
gcubme2_b.elf:     file format elf32-littlearm

Sections:
Idx Name          Size      VMA       LMA       File off  Algn
  0 .isr_vector   000001ac  08000000  08000000  00010000  2**0
                  CONTENTS, ALLOC, LOAD, READONLY, DATA
  1 .text         000040f4  080001ac  080001ac  000101ac  2**2
                  CONTENTS, ALLOC, LOAD, READONLY, CODE
  2 .rodata       00000020  080042a0  080042a0  000142a0  2**0
                  CONTENTS, ALLOC, LOAD, READONLY, DATA
  3 .ARM          00000008  080042c0  080042c0  000142c0  2**2
                  CONTENTS, ALLOC, LOAD, READONLY, DATA
  4 .init_array   00000004  080042c8  080042c8  000142c8  2**2
                  CONTENTS, ALLOC, LOAD, DATA
  5 .fini_array   00000004  080042cc  080042cc  000142cc  2**2
                  CONTENTS, ALLOC, LOAD, DATA
  6 .data         0000000c  20000000  080042d0  00020000  2**2
                  CONTENTS, ALLOC, LOAD, DATA
  7 .ccmram       00000000  10000000  10000000  0002000c  2**0
                  CONTENTS
  8 .bss          00000908  2000000c  2000000c  0002000c  2**2
                  ALLOC
  9 ._user_heap_stack 00000600  20000914  20000914  0002000c  2**0
                  ALLOC
 10 .ARM.attributes 00000030  00000000  00000000  0002000c  2**0
                  CONTENTS, READONLY
 11 .debug_info   000153ae  00000000  00000000  0002003c  2**0
                  CONTENTS, READONLY, DEBUGGING
 12 .debug_abbrev 00002bab  00000000  00000000  000353ea  2**0
                  CONTENTS, READONLY, DEBUGGING
 13 .debug_loc    0000a3d4  00000000  00000000  00037f95  2**0
                  CONTENTS, READONLY, DEBUGGING
 14 .debug_aranges 00000dc0  00000000  00000000  00042370  2**3
                  CONTENTS, READONLY, DEBUGGING
 15 .debug_ranges 00001338  00000000  00000000  00043130  2**3
                  CONTENTS, READONLY, DEBUGGING
 16 .debug_line   00006d5d  00000000  00000000  00044468  2**0
                  CONTENTS, READONLY, DEBUGGING
 17 .debug_str    00005a43  00000000  00000000  0004b1c5  2**0
                  CONTENTS, READONLY, DEBUGGING
 18 .comment      0000007c  00000000  00000000  00050c08  2**0
                  CONTENTS, READONLY
 19 .debug_frame  00002a38  00000000  00000000  00050c84  2**2
                  CONTENTS, READONLY, DEBUGGING

Disassembly of section .text:

080001ac <__do_global_dtors_aux>:
 80001ac:	b510      	push	{r4, lr}
 80001ae:	4c05      	ldr	r4, [pc, #20]	; (80001c4 <__do_global_dtors_aux+0x18>)
 80001b0:	7823      	ldrb	r3, [r4, #0]
 80001b2:	b933      	cbnz	r3, 80001c2 <__do_global_dtors_aux+0x16>
 80001b4:	4b04      	ldr	r3, [pc, #16]	; (80001c8 <__do_global_dtors_aux+0x1c>)
 80001b6:	b113      	cbz	r3, 80001be <__do_global_dtors_aux+0x12>
 80001b8:	4804      	ldr	r0, [pc, #16]	; (80001cc <__do_global_dtors_aux+0x20>)
 80001ba:	f3af 8000 	nop.w
 80001be:	2301      	movs	r3, #1
 80001c0:	7023      	strb	r3, [r4, #0]
 80001c2:	bd10      	pop	{r4, pc}
 80001c4:	2000000c 	.word	0x2000000c
 80001c8:	00000000 	.word	0x00000000
 80001cc:	08004288 	.word	0x08004288

080001d0 <frame_dummy>:
 80001d0:	b508      	push	{r3, lr}
 80001d2:	4b03      	ldr	r3, [pc, #12]	; (80001e0 <frame_dummy+0x10>)
 80001d4:	b11b      	cbz	r3, 80001de <frame_dummy+0xe>
 80001d6:	4903      	ldr	r1, [pc, #12]	; (80001e4 <frame_dummy+0x14>)
 80001d8:	4803      	ldr	r0, [pc, #12]	; (80001e8 <frame_dummy+0x18>)
 80001da:	f3af 8000 	nop.w
 80001de:	bd08      	pop	{r3, pc}
 80001e0:	00000000 	.word	0x00000000
 80001e4:	20000010 	.word	0x20000010
 80001e8:	08004288 	.word	0x08004288

080001ec <__aeabi_uldivmod>:
 80001ec:	b953      	cbnz	r3, 8000204 <__aeabi_uldivmod+0x18>
 80001ee:	b94a      	cbnz	r2, 8000204 <__aeabi_uldivmod+0x18>
 80001f0:	2900      	cmp	r1, #0
 80001f2:	bf08      	it	eq
 80001f4:	2800      	cmpeq	r0, #0
 80001f6:	bf1c      	itt	ne
 80001f8:	f04f 31ff 	movne.w	r1, #4294967295
 80001fc:	f04f 30ff 	movne.w	r0, #4294967295
 8000200:	f000 b97a 	b.w	80004f8 <__aeabi_idiv0>
 8000204:	f1ad 0c08 	sub.w	ip, sp, #8
 8000208:	e96d ce04 	strd	ip, lr, [sp, #-16]!
 800020c:	f000 f806 	bl	800021c <__udivmoddi4>
 8000210:	f8dd e004 	ldr.w	lr, [sp, #4]
 8000214:	e9dd 2302 	ldrd	r2, r3, [sp, #8]
 8000218:	b004      	add	sp, #16
 800021a:	4770      	bx	lr

0800021c <__udivmoddi4>:
 800021c:	e92d 47f0 	stmdb	sp!, {r4, r5, r6, r7, r8, r9, sl, lr}
 8000220:	468c      	mov	ip, r1
 8000222:	460d      	mov	r5, r1
 8000224:	4604      	mov	r4, r0
 8000226:	9e08      	ldr	r6, [sp, #32]
 8000228:	2b00      	cmp	r3, #0
 800022a:	d151      	bne.n	80002d0 <__udivmoddi4+0xb4>
 800022c:	428a      	cmp	r2, r1
 800022e:	4617      	mov	r7, r2
 8000230:	d96d      	bls.n	800030e <__udivmoddi4+0xf2>
 8000232:	fab2 fe82 	clz	lr, r2
 8000236:	f1be 0f00 	cmp.w	lr, #0
 800023a:	d00b      	beq.n	8000254 <__udivmoddi4+0x38>
 800023c:	f1ce 0c20 	rsb	ip, lr, #32
 8000240:	fa01 f50e 	lsl.w	r5, r1, lr
 8000244:	fa20 fc0c 	lsr.w	ip, r0, ip
 8000248:	fa02 f70e 	lsl.w	r7, r2, lr
 800024c:	ea4c 0c05 	orr.w	ip, ip, r5
 8000250:	fa00 f40e 	lsl.w	r4, r0, lr
 8000254:	ea4f 4a17 	mov.w	sl, r7, lsr #16
 8000258:	0c25      	lsrs	r5, r4, #16
 800025a:	fbbc f8fa 	udiv	r8, ip, sl
 800025e:	fa1f f987 	uxth.w	r9, r7
 8000262:	fb0a cc18 	mls	ip, sl, r8, ip
 8000266:	ea45 450c 	orr.w	r5, r5, ip, lsl #16
 800026a:	fb08 f309 	mul.w	r3, r8, r9
 800026e:	42ab      	cmp	r3, r5
 8000270:	d90a      	bls.n	8000288 <__udivmoddi4+0x6c>
 8000272:	19ed      	adds	r5, r5, r7
 8000274:	f108 32ff 	add.w	r2, r8, #4294967295
 8000278:	f080 8123 	bcs.w	80004c2 <__udivmoddi4+0x2a6>
 800027c:	42ab      	cmp	r3, r5
 800027e:	f240 8120 	bls.w	80004c2 <__udivmoddi4+0x2a6>
 8000282:	f1a8 0802 	sub.w	r8, r8, #2
 8000286:	443d      	add	r5, r7
 8000288:	1aed      	subs	r5, r5, r3
 800028a:	b2a4      	uxth	r4, r4
 800028c:	fbb5 f0fa 	udiv	r0, r5, sl
 8000290:	fb0a 5510 	mls	r5, sl, r0, r5
 8000294:	ea44 4405 	orr.w	r4, r4, r5, lsl #16
 8000298:	fb00 f909 	mul.w	r9, r0, r9
 800029c:	45a1      	cmp	r9, r4
 800029e:	d909      	bls.n	80002b4 <__udivmoddi4+0x98>
 80002a0:	19e4      	adds	r4, r4, r7
 80002a2:	f100 33ff 	add.w	r3, r0, #4294967295
 80002a6:	f080 810a 	bcs.w	80004be <__udivmoddi4+0x2a2>
 80002aa:	45a1      	cmp	r9, r4
 80002ac:	f240 8107 	bls.w	80004be <__udivmoddi4+0x2a2>
 80002b0:	3802      	subs	r0, #2
 80002b2:	443c      	add	r4, r7
 80002b4:	eba4 0409 	sub.w	r4, r4, r9
 80002b8:	ea40 4008 	orr.w	r0, r0, r8, lsl #16
 80002bc:	2100      	movs	r1, #0
 80002be:	2e00      	cmp	r6, #0
 80002c0:	d061      	beq.n	8000386 <__udivmoddi4+0x16a>
 80002c2:	fa24 f40e 	lsr.w	r4, r4, lr
 80002c6:	2300      	movs	r3, #0
 80002c8:	6034      	str	r4, [r6, #0]
 80002ca:	6073      	str	r3, [r6, #4]
 80002cc:	e8bd 87f0 	ldmia.w	sp!, {r4, r5, r6, r7, r8, r9, sl, pc}
 80002d0:	428b      	cmp	r3, r1
 80002d2:	d907      	bls.n	80002e4 <__udivmoddi4+0xc8>
 80002d4:	2e00      	cmp	r6, #0
 80002d6:	d054      	beq.n	8000382 <__udivmoddi4+0x166>
 80002d8:	2100      	movs	r1, #0
 80002da:	e886 0021 	stmia.w	r6, {r0, r5}
 80002de:	4608      	mov	r0, r1
 80002e0:	e8bd 87f0 	ldmia.w	sp!, {r4, r5, r6, r7, r8, r9, sl, pc}
 80002e4:	fab3 f183 	clz	r1, r3
 80002e8:	2900      	cmp	r1, #0
 80002ea:	f040 808e 	bne.w	800040a <__udivmoddi4+0x1ee>
 80002ee:	42ab      	cmp	r3, r5
 80002f0:	d302      	bcc.n	80002f8 <__udivmoddi4+0xdc>
 80002f2:	4282      	cmp	r2, r0
 80002f4:	f200 80fa 	bhi.w	80004ec <__udivmoddi4+0x2d0>
 80002f8:	1a84      	subs	r4, r0, r2
 80002fa:	eb65 0503 	sbc.w	r5, r5, r3
 80002fe:	2001      	movs	r0, #1
 8000300:	46ac      	mov	ip, r5
 8000302:	2e00      	cmp	r6, #0
 8000304:	d03f      	beq.n	8000386 <__udivmoddi4+0x16a>
 8000306:	e886 1010 	stmia.w	r6, {r4, ip}
 800030a:	e8bd 87f0 	ldmia.w	sp!, {r4, r5, r6, r7, r8, r9, sl, pc}
 800030e:	b912      	cbnz	r2, 8000316 <__udivmoddi4+0xfa>
 8000310:	2701      	movs	r7, #1
 8000312:	fbb7 f7f2 	udiv	r7, r7, r2
 8000316:	fab7 fe87 	clz	lr, r7
 800031a:	f1be 0f00 	cmp.w	lr, #0
 800031e:	d134      	bne.n	800038a <__udivmoddi4+0x16e>
 8000320:	1beb      	subs	r3, r5, r7
 8000322:	0c3a      	lsrs	r2, r7, #16
 8000324:	fa1f fc87 	uxth.w	ip, r7
 8000328:	2101      	movs	r1, #1
 800032a:	fbb3 f8f2 	udiv	r8, r3, r2
 800032e:	0c25      	lsrs	r5, r4, #16
 8000330:	fb02 3318 	mls	r3, r2, r8, r3
 8000334:	ea45 4503 	orr.w	r5, r5, r3, lsl #16
 8000338:	fb0c f308 	mul.w	r3, ip, r8
 800033c:	42ab      	cmp	r3, r5
 800033e:	d907      	bls.n	8000350 <__udivmoddi4+0x134>
 8000340:	19ed      	adds	r5, r5, r7
 8000342:	f108 30ff 	add.w	r0, r8, #4294967295
 8000346:	d202      	bcs.n	800034e <__udivmoddi4+0x132>
 8000348:	42ab      	cmp	r3, r5
 800034a:	f200 80d1 	bhi.w	80004f0 <__udivmoddi4+0x2d4>
 800034e:	4680      	mov	r8, r0
 8000350:	1aed      	subs	r5, r5, r3
 8000352:	b2a3      	uxth	r3, r4
 8000354:	fbb5 f0f2 	udiv	r0, r5, r2
 8000358:	fb02 5510 	mls	r5, r2, r0, r5
 800035c:	ea43 4405 	orr.w	r4, r3, r5, lsl #16
 8000360:	fb0c fc00 	mul.w	ip, ip, r0
 8000364:	45a4      	cmp	ip, r4
 8000366:	d907      	bls.n	8000378 <__udivmoddi4+0x15c>
 8000368:	19e4      	adds	r4, r4, r7
 800036a:	f100 33ff 	add.w	r3, r0, #4294967295
 800036e:	d202      	bcs.n	8000376 <__udivmoddi4+0x15a>
 8000370:	45a4      	cmp	ip, r4
 8000372:	f200 80b8 	bhi.w	80004e6 <__udivmoddi4+0x2ca>
 8000376:	4618      	mov	r0, r3
 8000378:	eba4 040c 	sub.w	r4, r4, ip
 800037c:	ea40 4008 	orr.w	r0, r0, r8, lsl #16
 8000380:	e79d      	b.n	80002be <__udivmoddi4+0xa2>
 8000382:	4631      	mov	r1, r6
 8000384:	4630      	mov	r0, r6
 8000386:	e8bd 87f0 	ldmia.w	sp!, {r4, r5, r6, r7, r8, r9, sl, pc}
 800038a:	f1ce 0420 	rsb	r4, lr, #32
 800038e:	fa05 f30e 	lsl.w	r3, r5, lr
 8000392:	fa07 f70e 	lsl.w	r7, r7, lr
 8000396:	fa20 f804 	lsr.w	r8, r0, r4
 800039a:	0c3a      	lsrs	r2, r7, #16
 800039c:	fa25 f404 	lsr.w	r4, r5, r4
 80003a0:	ea48 0803 	orr.w	r8, r8, r3
 80003a4:	fbb4 f1f2 	udiv	r1, r4, r2
 80003a8:	ea4f 4518 	mov.w	r5, r8, lsr #16
 80003ac:	fb02 4411 	mls	r4, r2, r1, r4
 80003b0:	fa1f fc87 	uxth.w	ip, r7
 80003b4:	ea45 4504 	orr.w	r5, r5, r4, lsl #16
 80003b8:	fb01 f30c 	mul.w	r3, r1, ip
 80003bc:	42ab      	cmp	r3, r5
 80003be:	fa00 f40e 	lsl.w	r4, r0, lr
 80003c2:	d909      	bls.n	80003d8 <__udivmoddi4+0x1bc>
 80003c4:	19ed      	adds	r5, r5, r7
 80003c6:	f101 30ff 	add.w	r0, r1, #4294967295
 80003ca:	f080 808a 	bcs.w	80004e2 <__udivmoddi4+0x2c6>
 80003ce:	42ab      	cmp	r3, r5
 80003d0:	f240 8087 	bls.w	80004e2 <__udivmoddi4+0x2c6>
 80003d4:	3902      	subs	r1, #2
 80003d6:	443d      	add	r5, r7
 80003d8:	1aeb      	subs	r3, r5, r3
 80003da:	fa1f f588 	uxth.w	r5, r8
 80003de:	fbb3 f0f2 	udiv	r0, r3, r2
 80003e2:	fb02 3310 	mls	r3, r2, r0, r3
 80003e6:	ea45 4503 	orr.w	r5, r5, r3, lsl #16
 80003ea:	fb00 f30c 	mul.w	r3, r0, ip
 80003ee:	42ab      	cmp	r3, r5
 80003f0:	d907      	bls.n	8000402 <__udivmoddi4+0x1e6>
 80003f2:	19ed      	adds	r5, r5, r7
 80003f4:	f100 38ff 	add.w	r8, r0, #4294967295
 80003f8:	d26f      	bcs.n	80004da <__udivmoddi4+0x2be>
 80003fa:	42ab      	cmp	r3, r5
 80003fc:	d96d      	bls.n	80004da <__udivmoddi4+0x2be>
 80003fe:	3802      	subs	r0, #2
 8000400:	443d      	add	r5, r7
 8000402:	1aeb      	subs	r3, r5, r3
 8000404:	ea40 4101 	orr.w	r1, r0, r1, lsl #16
 8000408:	e78f      	b.n	800032a <__udivmoddi4+0x10e>
 800040a:	f1c1 0720 	rsb	r7, r1, #32
 800040e:	fa22 f807 	lsr.w	r8, r2, r7
 8000412:	408b      	lsls	r3, r1
 8000414:	fa05 f401 	lsl.w	r4, r5, r1
 8000418:	ea48 0303 	orr.w	r3, r8, r3
 800041c:	fa20 fe07 	lsr.w	lr, r0, r7
 8000420:	ea4f 4c13 	mov.w	ip, r3, lsr #16
 8000424:	40fd      	lsrs	r5, r7
 8000426:	ea4e 0e04 	orr.w	lr, lr, r4
 800042a:	fbb5 f9fc 	udiv	r9, r5, ip
 800042e:	ea4f 441e 	mov.w	r4, lr, lsr #16
 8000432:	fb0c 5519 	mls	r5, ip, r9, r5
 8000436:	fa1f f883 	uxth.w	r8, r3
 800043a:	ea44 4505 	orr.w	r5, r4, r5, lsl #16
 800043e:	fb09 f408 	mul.w	r4, r9, r8
 8000442:	42ac      	cmp	r4, r5
 8000444:	fa02 f201 	lsl.w	r2, r2, r1
 8000448:	fa00 fa01 	lsl.w	sl, r0, r1
 800044c:	d908      	bls.n	8000460 <__udivmoddi4+0x244>
 800044e:	18ed      	adds	r5, r5, r3
 8000450:	f109 30ff 	add.w	r0, r9, #4294967295
 8000454:	d243      	bcs.n	80004de <__udivmoddi4+0x2c2>
 8000456:	42ac      	cmp	r4, r5
 8000458:	d941      	bls.n	80004de <__udivmoddi4+0x2c2>
 800045a:	f1a9 0902 	sub.w	r9, r9, #2
 800045e:	441d      	add	r5, r3
 8000460:	1b2d      	subs	r5, r5, r4
 8000462:	fa1f fe8e 	uxth.w	lr, lr
 8000466:	fbb5 f0fc 	udiv	r0, r5, ip
 800046a:	fb0c 5510 	mls	r5, ip, r0, r5
 800046e:	ea4e 4405 	orr.w	r4, lr, r5, lsl #16
 8000472:	fb00 f808 	mul.w	r8, r0, r8
 8000476:	45a0      	cmp	r8, r4
 8000478:	d907      	bls.n	800048a <__udivmoddi4+0x26e>
 800047a:	18e4      	adds	r4, r4, r3
 800047c:	f100 35ff 	add.w	r5, r0, #4294967295
 8000480:	d229      	bcs.n	80004d6 <__udivmoddi4+0x2ba>
 8000482:	45a0      	cmp	r8, r4
 8000484:	d927      	bls.n	80004d6 <__udivmoddi4+0x2ba>
 8000486:	3802      	subs	r0, #2
 8000488:	441c      	add	r4, r3
 800048a:	ea40 4009 	orr.w	r0, r0, r9, lsl #16
 800048e:	eba4 0408 	sub.w	r4, r4, r8
 8000492:	fba0 8902 	umull	r8, r9, r0, r2
 8000496:	454c      	cmp	r4, r9
 8000498:	46c6      	mov	lr, r8
 800049a:	464d      	mov	r5, r9
 800049c:	d315      	bcc.n	80004ca <__udivmoddi4+0x2ae>
 800049e:	d012      	beq.n	80004c6 <__udivmoddi4+0x2aa>
 80004a0:	b156      	cbz	r6, 80004b8 <__udivmoddi4+0x29c>
 80004a2:	ebba 030e 	subs.w	r3, sl, lr
 80004a6:	eb64 0405 	sbc.w	r4, r4, r5
 80004aa:	fa04 f707 	lsl.w	r7, r4, r7
 80004ae:	40cb      	lsrs	r3, r1
 80004b0:	431f      	orrs	r7, r3
 80004b2:	40cc      	lsrs	r4, r1
 80004b4:	6037      	str	r7, [r6, #0]
 80004b6:	6074      	str	r4, [r6, #4]
 80004b8:	2100      	movs	r1, #0
 80004ba:	e8bd 87f0 	ldmia.w	sp!, {r4, r5, r6, r7, r8, r9, sl, pc}
 80004be:	4618      	mov	r0, r3
 80004c0:	e6f8      	b.n	80002b4 <__udivmoddi4+0x98>
 80004c2:	4690      	mov	r8, r2
 80004c4:	e6e0      	b.n	8000288 <__udivmoddi4+0x6c>
 80004c6:	45c2      	cmp	sl, r8
 80004c8:	d2ea      	bcs.n	80004a0 <__udivmoddi4+0x284>
 80004ca:	ebb8 0e02 	subs.w	lr, r8, r2
 80004ce:	eb69 0503 	sbc.w	r5, r9, r3
 80004d2:	3801      	subs	r0, #1
 80004d4:	e7e4      	b.n	80004a0 <__udivmoddi4+0x284>
 80004d6:	4628      	mov	r0, r5
 80004d8:	e7d7      	b.n	800048a <__udivmoddi4+0x26e>
 80004da:	4640      	mov	r0, r8
 80004dc:	e791      	b.n	8000402 <__udivmoddi4+0x1e6>
 80004de:	4681      	mov	r9, r0
 80004e0:	e7be      	b.n	8000460 <__udivmoddi4+0x244>
 80004e2:	4601      	mov	r1, r0
 80004e4:	e778      	b.n	80003d8 <__udivmoddi4+0x1bc>
 80004e6:	3802      	subs	r0, #2
 80004e8:	443c      	add	r4, r7
 80004ea:	e745      	b.n	8000378 <__udivmoddi4+0x15c>
 80004ec:	4608      	mov	r0, r1
 80004ee:	e708      	b.n	8000302 <__udivmoddi4+0xe6>
 80004f0:	f1a8 0802 	sub.w	r8, r8, #2
 80004f4:	443d      	add	r5, r7
 80004f6:	e72b      	b.n	8000350 <__udivmoddi4+0x134>

080004f8 <__aeabi_idiv0>:
 80004f8:	4770      	bx	lr
 80004fa:	bf00      	nop

080004fc <HAL_InitTick>:
  *       implementation  in user file.
  * @param TickPriority Tick interrupt priority.
  * @retval HAL status
  */
__weak HAL_StatusTypeDef HAL_InitTick(uint32_t TickPriority)
{
 80004fc:	b538      	push	{r3, r4, r5, lr}
  /* Configure the SysTick to have interrupt in 1ms time basis*/
  if (HAL_SYSTICK_Config(SystemCoreClock / (1000U / uwTickFreq)) > 0U)
 80004fe:	4a0e      	ldr	r2, [pc, #56]	; (8000538 <HAL_InitTick+0x3c>)
 8000500:	4b0e      	ldr	r3, [pc, #56]	; (800053c <HAL_InitTick+0x40>)
{
 8000502:	4605      	mov	r5, r0
  if (HAL_SYSTICK_Config(SystemCoreClock / (1000U / uwTickFreq)) > 0U)
 8000504:	7818      	ldrb	r0, [r3, #0]
 8000506:	f44f 737a 	mov.w	r3, #1000	; 0x3e8
 800050a:	fbb3 f3f0 	udiv	r3, r3, r0
 800050e:	6810      	ldr	r0, [r2, #0]
 8000510:	fbb0 f0f3 	udiv	r0, r0, r3
 8000514:	f000 f8aa 	bl	800066c <HAL_SYSTICK_Config>
 8000518:	4604      	mov	r4, r0
 800051a:	b958      	cbnz	r0, 8000534 <HAL_InitTick+0x38>
  {
    return HAL_ERROR;
  }

  /* Configure the SysTick IRQ priority */
  if (TickPriority < (1UL << __NVIC_PRIO_BITS))
 800051c:	2d0f      	cmp	r5, #15
 800051e:	d809      	bhi.n	8000534 <HAL_InitTick+0x38>
  {
    HAL_NVIC_SetPriority(SysTick_IRQn, TickPriority, 0U);
 8000520:	4602      	mov	r2, r0
 8000522:	4629      	mov	r1, r5
 8000524:	f04f 30ff 	mov.w	r0, #4294967295
 8000528:	f000 f85e 	bl	80005e8 <HAL_NVIC_SetPriority>
    uwTickPrio = TickPriority;
 800052c:	4b04      	ldr	r3, [pc, #16]	; (8000540 <HAL_InitTick+0x44>)
 800052e:	4620      	mov	r0, r4
 8000530:	601d      	str	r5, [r3, #0]
 8000532:	bd38      	pop	{r3, r4, r5, pc}
    return HAL_ERROR;
 8000534:	2001      	movs	r0, #1
    return HAL_ERROR;
  }

  /* Return function status */
  return HAL_OK;
}
 8000536:	bd38      	pop	{r3, r4, r5, pc}
 8000538:	20000008 	.word	0x20000008
 800053c:	20000000 	.word	0x20000000
 8000540:	20000004 	.word	0x20000004

08000544 <HAL_Init>:
{
 8000544:	b508      	push	{r3, lr}
  __HAL_FLASH_INSTRUCTION_CACHE_ENABLE();
 8000546:	4b0b      	ldr	r3, [pc, #44]	; (8000574 <HAL_Init+0x30>)
 8000548:	681a      	ldr	r2, [r3, #0]
 800054a:	f442 7200 	orr.w	r2, r2, #512	; 0x200
 800054e:	601a      	str	r2, [r3, #0]
  __HAL_FLASH_DATA_CACHE_ENABLE();
 8000550:	681a      	ldr	r2, [r3, #0]
 8000552:	f442 6280 	orr.w	r2, r2, #1024	; 0x400
 8000556:	601a      	str	r2, [r3, #0]
  __HAL_FLASH_PREFETCH_BUFFER_ENABLE();
 8000558:	681a      	ldr	r2, [r3, #0]
 800055a:	f442 7280 	orr.w	r2, r2, #256	; 0x100
 800055e:	601a      	str	r2, [r3, #0]
  HAL_NVIC_SetPriorityGrouping(NVIC_PRIORITYGROUP_4);
 8000560:	2003      	movs	r0, #3
 8000562:	f000 f82f 	bl	80005c4 <HAL_NVIC_SetPriorityGrouping>
  HAL_InitTick(TICK_INT_PRIORITY);
 8000566:	2000      	movs	r0, #0
 8000568:	f7ff ffc8 	bl	80004fc <HAL_InitTick>
  HAL_MspInit();
 800056c:	f003 fad6 	bl	8003b1c <HAL_MspInit>
}
 8000570:	2000      	movs	r0, #0
 8000572:	bd08      	pop	{r3, pc}
 8000574:	40023c00 	.word	0x40023c00

08000578 <HAL_IncTick>:
  *      implementations in user file.
  * @retval None
  */
__weak void HAL_IncTick(void)
{
  uwTick += uwTickFreq;
 8000578:	4a03      	ldr	r2, [pc, #12]	; (8000588 <HAL_IncTick+0x10>)
 800057a:	4b04      	ldr	r3, [pc, #16]	; (800058c <HAL_IncTick+0x14>)
 800057c:	6811      	ldr	r1, [r2, #0]
 800057e:	781b      	ldrb	r3, [r3, #0]
 8000580:	440b      	add	r3, r1
 8000582:	6013      	str	r3, [r2, #0]
 8000584:	4770      	bx	lr
 8000586:	bf00      	nop
 8000588:	2000006c 	.word	0x2000006c
 800058c:	20000000 	.word	0x20000000

08000590 <HAL_GetTick>:
  *       implementations in user file.
  * @retval tick value
  */
__weak uint32_t HAL_GetTick(void)
{
  return uwTick;
 8000590:	4b01      	ldr	r3, [pc, #4]	; (8000598 <HAL_GetTick+0x8>)
 8000592:	6818      	ldr	r0, [r3, #0]
}
 8000594:	4770      	bx	lr
 8000596:	bf00      	nop
 8000598:	2000006c 	.word	0x2000006c

0800059c <HAL_Delay>:
  *       implementations in user file.
  * @param Delay specifies the delay time length, in milliseconds.
  * @retval None
  */
__weak void HAL_Delay(uint32_t Delay)
{
 800059c:	b538      	push	{r3, r4, r5, lr}
 800059e:	4604      	mov	r4, r0
  uint32_t tickstart = HAL_GetTick();
 80005a0:	f7ff fff6 	bl	8000590 <HAL_GetTick>
  uint32_t wait = Delay;

  /* Add a freq to guarantee minimum wait */
  if (wait < HAL_MAX_DELAY)
 80005a4:	1c63      	adds	r3, r4, #1
  {
    wait += (uint32_t)(uwTickFreq);
 80005a6:	bf1c      	itt	ne
 80005a8:	4b05      	ldrne	r3, [pc, #20]	; (80005c0 <HAL_Delay+0x24>)
 80005aa:	781b      	ldrbne	r3, [r3, #0]
  uint32_t tickstart = HAL_GetTick();
 80005ac:	4605      	mov	r5, r0
    wait += (uint32_t)(uwTickFreq);
 80005ae:	bf18      	it	ne
 80005b0:	18e4      	addne	r4, r4, r3
  }

  while((HAL_GetTick() - tickstart) < wait)
 80005b2:	f7ff ffed 	bl	8000590 <HAL_GetTick>
 80005b6:	1b40      	subs	r0, r0, r5
 80005b8:	4284      	cmp	r4, r0
 80005ba:	d8fa      	bhi.n	80005b2 <HAL_Delay+0x16>
  {
  }
}
 80005bc:	bd38      	pop	{r3, r4, r5, pc}
 80005be:	bf00      	nop
 80005c0:	20000000 	.word	0x20000000

080005c4 <HAL_NVIC_SetPriorityGrouping>:
__STATIC_INLINE void __NVIC_SetPriorityGrouping(uint32_t PriorityGroup)
{
  uint32_t reg_value;
  uint32_t PriorityGroupTmp = (PriorityGroup & (uint32_t)0x07UL);             /* only values 0..7 are used          */

  reg_value  =  SCB->AIRCR;                                                   /* read old register configuration    */
 80005c4:	4a07      	ldr	r2, [pc, #28]	; (80005e4 <HAL_NVIC_SetPriorityGrouping+0x20>)
 80005c6:	68d3      	ldr	r3, [r2, #12]
  reg_value &= ~((uint32_t)(SCB_AIRCR_VECTKEY_Msk | SCB_AIRCR_PRIGROUP_Msk)); /* clear bits to change               */
 80005c8:	f423 63e0 	bic.w	r3, r3, #1792	; 0x700
 80005cc:	041b      	lsls	r3, r3, #16
 80005ce:	0c1b      	lsrs	r3, r3, #16
 80005d0:	f043 63bf 	orr.w	r3, r3, #100139008	; 0x5f80000
  reg_value  =  (reg_value                                   |
                ((uint32_t)0x5FAUL << SCB_AIRCR_VECTKEY_Pos) |
                (PriorityGroupTmp << SCB_AIRCR_PRIGROUP_Pos)  );              /* Insert write key and priority group */
 80005d4:	0200      	lsls	r0, r0, #8
 80005d6:	f443 3300 	orr.w	r3, r3, #131072	; 0x20000
 80005da:	f400 60e0 	and.w	r0, r0, #1792	; 0x700
  reg_value  =  (reg_value                                   |
 80005de:	4303      	orrs	r3, r0
  SCB->AIRCR =  reg_value;
 80005e0:	60d3      	str	r3, [r2, #12]
 80005e2:	4770      	bx	lr
 80005e4:	e000ed00 	.word	0xe000ed00

080005e8 <HAL_NVIC_SetPriority>:
  \details Reads the priority grouping field from the NVIC Interrupt Controller.
  \return                Priority grouping field (SCB->AIRCR [10:8] PRIGROUP field).
 */
__STATIC_INLINE uint32_t __NVIC_GetPriorityGrouping(void)
{
  return ((uint32_t)((SCB->AIRCR & SCB_AIRCR_PRIGROUP_Msk) >> SCB_AIRCR_PRIGROUP_Pos));
 80005e8:	4b17      	ldr	r3, [pc, #92]	; (8000648 <HAL_NVIC_SetPriority+0x60>)
  *         This parameter can be a value between 0 and 15
  *         A lower priority value indicates a higher priority.          
  * @retval None
  */
void HAL_NVIC_SetPriority(IRQn_Type IRQn, uint32_t PreemptPriority, uint32_t SubPriority)
{ 
 80005ea:	b530      	push	{r4, r5, lr}
 80005ec:	68dc      	ldr	r4, [r3, #12]
 80005ee:	f3c4 2402 	ubfx	r4, r4, #8, #3
{
  uint32_t PriorityGroupTmp = (PriorityGroup & (uint32_t)0x07UL);   /* only values 0..7 are used          */
  uint32_t PreemptPriorityBits;
  uint32_t SubPriorityBits;

  PreemptPriorityBits = ((7UL - PriorityGroupTmp) > (uint32_t)(__NVIC_PRIO_BITS)) ? (uint32_t)(__NVIC_PRIO_BITS) : (uint32_t)(7UL - PriorityGroupTmp);
 80005f2:	f1c4 0307 	rsb	r3, r4, #7
  SubPriorityBits     = ((PriorityGroupTmp + (uint32_t)(__NVIC_PRIO_BITS)) < (uint32_t)7UL) ? (uint32_t)0UL : (uint32_t)((PriorityGroupTmp - 7UL) + (uint32_t)(__NVIC_PRIO_BITS));
 80005f6:	1d25      	adds	r5, r4, #4
  PreemptPriorityBits = ((7UL - PriorityGroupTmp) > (uint32_t)(__NVIC_PRIO_BITS)) ? (uint32_t)(__NVIC_PRIO_BITS) : (uint32_t)(7UL - PriorityGroupTmp);
 80005f8:	2b04      	cmp	r3, #4
 80005fa:	bf28      	it	cs
 80005fc:	2304      	movcs	r3, #4
  SubPriorityBits     = ((PriorityGroupTmp + (uint32_t)(__NVIC_PRIO_BITS)) < (uint32_t)7UL) ? (uint32_t)0UL : (uint32_t)((PriorityGroupTmp - 7UL) + (uint32_t)(__NVIC_PRIO_BITS));
 80005fe:	2d06      	cmp	r5, #6

  return (
           ((PreemptPriority & (uint32_t)((1UL << (PreemptPriorityBits)) - 1UL)) << SubPriorityBits) |
 8000600:	f04f 0501 	mov.w	r5, #1
 8000604:	fa05 f303 	lsl.w	r3, r5, r3
 8000608:	f103 33ff 	add.w	r3, r3, #4294967295
  SubPriorityBits     = ((PriorityGroupTmp + (uint32_t)(__NVIC_PRIO_BITS)) < (uint32_t)7UL) ? (uint32_t)0UL : (uint32_t)((PriorityGroupTmp - 7UL) + (uint32_t)(__NVIC_PRIO_BITS));
 800060c:	bf8c      	ite	hi
 800060e:	3c03      	subhi	r4, #3
 8000610:	2400      	movls	r4, #0
           ((PreemptPriority & (uint32_t)((1UL << (PreemptPriorityBits)) - 1UL)) << SubPriorityBits) |
 8000612:	4019      	ands	r1, r3
 8000614:	40a1      	lsls	r1, r4
           ((SubPriority     & (uint32_t)((1UL << (SubPriorityBits    )) - 1UL)))
 8000616:	fa05 f404 	lsl.w	r4, r5, r4
 800061a:	3c01      	subs	r4, #1
 800061c:	4022      	ands	r2, r4
  if ((int32_t)(IRQn) >= 0)
 800061e:	2800      	cmp	r0, #0
           ((PreemptPriority & (uint32_t)((1UL << (PreemptPriorityBits)) - 1UL)) << SubPriorityBits) |
 8000620:	ea42 0201 	orr.w	r2, r2, r1
 8000624:	ea4f 1202 	mov.w	r2, r2, lsl #4
    NVIC->IP[((uint32_t)IRQn)]               = (uint8_t)((priority << (8U - __NVIC_PRIO_BITS)) & (uint32_t)0xFFUL);
 8000628:	bfad      	iteet	ge
 800062a:	f100 4060 	addge.w	r0, r0, #3758096384	; 0xe0000000
    SCB->SHP[(((uint32_t)IRQn) & 0xFUL)-4UL] = (uint8_t)((priority << (8U - __NVIC_PRIO_BITS)) & (uint32_t)0xFFUL);
 800062e:	f000 000f 	andlt.w	r0, r0, #15
 8000632:	4b06      	ldrlt	r3, [pc, #24]	; (800064c <HAL_NVIC_SetPriority+0x64>)
    NVIC->IP[((uint32_t)IRQn)]               = (uint8_t)((priority << (8U - __NVIC_PRIO_BITS)) & (uint32_t)0xFFUL);
 8000634:	f500 4061 	addge.w	r0, r0, #57600	; 0xe100
    SCB->SHP[(((uint32_t)IRQn) & 0xFUL)-4UL] = (uint8_t)((priority << (8U - __NVIC_PRIO_BITS)) & (uint32_t)0xFFUL);
 8000638:	bfb5      	itete	lt
 800063a:	b2d2      	uxtblt	r2, r2
    NVIC->IP[((uint32_t)IRQn)]               = (uint8_t)((priority << (8U - __NVIC_PRIO_BITS)) & (uint32_t)0xFFUL);
 800063c:	b2d2      	uxtbge	r2, r2
    SCB->SHP[(((uint32_t)IRQn) & 0xFUL)-4UL] = (uint8_t)((priority << (8U - __NVIC_PRIO_BITS)) & (uint32_t)0xFFUL);
 800063e:	541a      	strblt	r2, [r3, r0]
    NVIC->IP[((uint32_t)IRQn)]               = (uint8_t)((priority << (8U - __NVIC_PRIO_BITS)) & (uint32_t)0xFFUL);
 8000640:	f880 2300 	strbge.w	r2, [r0, #768]	; 0x300
 8000644:	bd30      	pop	{r4, r5, pc}
 8000646:	bf00      	nop
 8000648:	e000ed00 	.word	0xe000ed00
 800064c:	e000ed14 	.word	0xe000ed14

08000650 <HAL_NVIC_EnableIRQ>:
  if ((int32_t)(IRQn) >= 0)
 8000650:	2800      	cmp	r0, #0
 8000652:	db08      	blt.n	8000666 <HAL_NVIC_EnableIRQ+0x16>
    NVIC->ISER[(((uint32_t)IRQn) >> 5UL)] = (uint32_t)(1UL << (((uint32_t)IRQn) & 0x1FUL));
 8000654:	0942      	lsrs	r2, r0, #5
 8000656:	2301      	movs	r3, #1
 8000658:	f000 001f 	and.w	r0, r0, #31
 800065c:	fa03 f000 	lsl.w	r0, r3, r0
 8000660:	4b01      	ldr	r3, [pc, #4]	; (8000668 <HAL_NVIC_EnableIRQ+0x18>)
 8000662:	f843 0022 	str.w	r0, [r3, r2, lsl #2]
 8000666:	4770      	bx	lr
 8000668:	e000e100 	.word	0xe000e100

0800066c <HAL_SYSTICK_Config>:
           function <b>SysTick_Config</b> is not included. In this case, the file <b><i>device</i>.h</b>
           must contain a vendor-specific implementation of this function.
 */
__STATIC_INLINE uint32_t SysTick_Config(uint32_t ticks)
{
  if ((ticks - 1UL) > SysTick_LOAD_RELOAD_Msk)
 800066c:	3801      	subs	r0, #1
 800066e:	f1b0 7f80 	cmp.w	r0, #16777216	; 0x1000000
 8000672:	d20a      	bcs.n	800068a <HAL_SYSTICK_Config+0x1e>
  {
    return (1UL);                                                   /* Reload value impossible */
  }

  SysTick->LOAD  = (uint32_t)(ticks - 1UL);                         /* set reload register */
 8000674:	4b06      	ldr	r3, [pc, #24]	; (8000690 <HAL_SYSTICK_Config+0x24>)
    SCB->SHP[(((uint32_t)IRQn) & 0xFUL)-4UL] = (uint8_t)((priority << (8U - __NVIC_PRIO_BITS)) & (uint32_t)0xFFUL);
 8000676:	4a07      	ldr	r2, [pc, #28]	; (8000694 <HAL_SYSTICK_Config+0x28>)
  SysTick->LOAD  = (uint32_t)(ticks - 1UL);                         /* set reload register */
 8000678:	6058      	str	r0, [r3, #4]
    SCB->SHP[(((uint32_t)IRQn) & 0xFUL)-4UL] = (uint8_t)((priority << (8U - __NVIC_PRIO_BITS)) & (uint32_t)0xFFUL);
 800067a:	21f0      	movs	r1, #240	; 0xf0
 800067c:	f882 1023 	strb.w	r1, [r2, #35]	; 0x23
  NVIC_SetPriority (SysTick_IRQn, (1UL << __NVIC_PRIO_BITS) - 1UL); /* set Priority for Systick Interrupt */
  SysTick->VAL   = 0UL;                                             /* Load the SysTick Counter Value */
 8000680:	2000      	movs	r0, #0
  SysTick->CTRL  = SysTick_CTRL_CLKSOURCE_Msk |
 8000682:	2207      	movs	r2, #7
  SysTick->VAL   = 0UL;                                             /* Load the SysTick Counter Value */
 8000684:	6098      	str	r0, [r3, #8]
  SysTick->CTRL  = SysTick_CTRL_CLKSOURCE_Msk |
 8000686:	601a      	str	r2, [r3, #0]
 8000688:	4770      	bx	lr
    return (1UL);                                                   /* Reload value impossible */
 800068a:	2001      	movs	r0, #1
  *                  - 1  Function failed.
  */
uint32_t HAL_SYSTICK_Config(uint32_t TicksNumb)
{
   return SysTick_Config(TicksNumb);
}
 800068c:	4770      	bx	lr
 800068e:	bf00      	nop
 8000690:	e000e010 	.word	0xe000e010
 8000694:	e000ed00 	.word	0xe000ed00

08000698 <HAL_DAC_Init>:
  * @param  hdac pointer to a DAC_HandleTypeDef structure that contains
  *         the configuration information for the specified DAC.
  * @retval HAL status
  */
HAL_StatusTypeDef HAL_DAC_Init(DAC_HandleTypeDef* hdac)
{ 
 8000698:	b510      	push	{r4, lr}
  /* Check DAC handle */
  if(hdac == NULL)
 800069a:	4604      	mov	r4, r0
 800069c:	b168      	cbz	r0, 80006ba <HAL_DAC_Init+0x22>
     return HAL_ERROR;
  }
  /* Check the parameters */
  assert_param(IS_DAC_ALL_INSTANCE(hdac->Instance));
  
  if(hdac->State == HAL_DAC_STATE_RESET)
 800069e:	7903      	ldrb	r3, [r0, #4]
 80006a0:	f003 02ff 	and.w	r2, r3, #255	; 0xff
 80006a4:	b913      	cbnz	r3, 80006ac <HAL_DAC_Init+0x14>
    {
      hdac->MspInitCallback               = HAL_DAC_MspInit;
    }
#endif /* USE_HAL_DAC_REGISTER_CALLBACKS */
    /* Allocate lock resource and initialize it */
    hdac->Lock = HAL_UNLOCKED;
 80006a6:	7142      	strb	r2, [r0, #5]
#if (USE_HAL_DAC_REGISTER_CALLBACKS == 1)
    /* Init the low level hardware */
    hdac->MspInitCallback(hdac);
#else
    /* Init the low level hardware */
    HAL_DAC_MspInit(hdac);
 80006a8:	f003 fa54 	bl	8003b54 <HAL_DAC_MspInit>
#endif /* USE_HAL_DAC_REGISTER_CALLBACKS */
  }
  
  /* Initialize the DAC state*/
  hdac->State = HAL_DAC_STATE_BUSY;
 80006ac:	2302      	movs	r3, #2
 80006ae:	7123      	strb	r3, [r4, #4]
  
  /* Set DAC error code to none */
  hdac->ErrorCode = HAL_DAC_ERROR_NONE;
 80006b0:	2000      	movs	r0, #0
  
  /* Initialize the DAC state*/
  hdac->State = HAL_DAC_STATE_READY;
 80006b2:	2301      	movs	r3, #1
  hdac->ErrorCode = HAL_DAC_ERROR_NONE;
 80006b4:	6120      	str	r0, [r4, #16]
  hdac->State = HAL_DAC_STATE_READY;
 80006b6:	7123      	strb	r3, [r4, #4]
  
  /* Return function status */
  return HAL_OK;
 80006b8:	bd10      	pop	{r4, pc}
     return HAL_ERROR;
 80006ba:	2001      	movs	r0, #1
}
 80006bc:	bd10      	pop	{r4, pc}

080006be <HAL_DAC_Start>:
  
  /* Check the parameters */
  assert_param(IS_DAC_CHANNEL(Channel));
  
  /* Process locked */
  __HAL_LOCK(hdac);
 80006be:	7943      	ldrb	r3, [r0, #5]
 80006c0:	2b01      	cmp	r3, #1
{
 80006c2:	b510      	push	{r4, lr}
 80006c4:	f04f 0302 	mov.w	r3, #2
  __HAL_LOCK(hdac);
 80006c8:	d018      	beq.n	80006fc <HAL_DAC_Start+0x3e>
  
  /* Change DAC state */
  hdac->State = HAL_DAC_STATE_BUSY;
 80006ca:	7103      	strb	r3, [r0, #4]
  
  /* Enable the Peripheral */
  __HAL_DAC_ENABLE(hdac, Channel);
 80006cc:	6803      	ldr	r3, [r0, #0]
  __HAL_LOCK(hdac);
 80006ce:	2201      	movs	r2, #1
  __HAL_DAC_ENABLE(hdac, Channel);
 80006d0:	681c      	ldr	r4, [r3, #0]
  __HAL_LOCK(hdac);
 80006d2:	7142      	strb	r2, [r0, #5]
  __HAL_DAC_ENABLE(hdac, Channel);
 80006d4:	408a      	lsls	r2, r1
 80006d6:	4322      	orrs	r2, r4
 80006d8:	601a      	str	r2, [r3, #0]
  
  if(Channel == DAC_CHANNEL_1)
 80006da:	b989      	cbnz	r1, 8000700 <HAL_DAC_Start+0x42>
  {
    tmp1 = hdac->Instance->CR & DAC_CR_TEN1;
 80006dc:	6819      	ldr	r1, [r3, #0]
    tmp2 = hdac->Instance->CR & DAC_CR_TSEL1;
 80006de:	681a      	ldr	r2, [r3, #0]
    /* Check if software trigger enabled */
    if((tmp1 ==  DAC_CR_TEN1) && (tmp2 ==  DAC_CR_TSEL1))
 80006e0:	074c      	lsls	r4, r1, #29
 80006e2:	d507      	bpl.n	80006f4 <HAL_DAC_Start+0x36>
    tmp2 = hdac->Instance->CR & DAC_CR_TSEL1;
 80006e4:	f002 0238 	and.w	r2, r2, #56	; 0x38
    if((tmp1 ==  DAC_CR_TEN1) && (tmp2 ==  DAC_CR_TSEL1))
 80006e8:	2a38      	cmp	r2, #56	; 0x38
 80006ea:	d103      	bne.n	80006f4 <HAL_DAC_Start+0x36>
    {
      /* Enable the selected DAC software conversion */
      hdac->Instance->SWTRIGR |= (uint32_t)DAC_SWTRIGR_SWTRIG1;
 80006ec:	685a      	ldr	r2, [r3, #4]
 80006ee:	f042 0201 	orr.w	r2, r2, #1
    tmp2 = hdac->Instance->CR & DAC_CR_TSEL2;    
    /* Check if software trigger enabled */
    if((tmp1 == DAC_CR_TEN2) && (tmp2 == DAC_CR_TSEL2))
    {
      /* Enable the selected DAC software conversion*/
      hdac->Instance->SWTRIGR |= (uint32_t)DAC_SWTRIGR_SWTRIG2;
 80006f2:	605a      	str	r2, [r3, #4]
    }
  }
  
  /* Change DAC state */
  hdac->State = HAL_DAC_STATE_READY;
 80006f4:	2301      	movs	r3, #1
 80006f6:	7103      	strb	r3, [r0, #4]
  
  /* Process unlocked */
  __HAL_UNLOCK(hdac);
 80006f8:	2300      	movs	r3, #0
 80006fa:	7143      	strb	r3, [r0, #5]
  __HAL_LOCK(hdac);
 80006fc:	4618      	mov	r0, r3
    
  /* Return function status */
  return HAL_OK;
}
 80006fe:	bd10      	pop	{r4, pc}
    tmp1 = hdac->Instance->CR & DAC_CR_TEN2;
 8000700:	6819      	ldr	r1, [r3, #0]
    tmp2 = hdac->Instance->CR & DAC_CR_TSEL2;    
 8000702:	681a      	ldr	r2, [r3, #0]
    if((tmp1 == DAC_CR_TEN2) && (tmp2 == DAC_CR_TSEL2))
 8000704:	0349      	lsls	r1, r1, #13
 8000706:	d5f5      	bpl.n	80006f4 <HAL_DAC_Start+0x36>
    tmp2 = hdac->Instance->CR & DAC_CR_TSEL2;    
 8000708:	f402 1260 	and.w	r2, r2, #3670016	; 0x380000
    if((tmp1 == DAC_CR_TEN2) && (tmp2 == DAC_CR_TSEL2))
 800070c:	f5b2 1f60 	cmp.w	r2, #3670016	; 0x380000
 8000710:	d1f0      	bne.n	80006f4 <HAL_DAC_Start+0x36>
      hdac->Instance->SWTRIGR |= (uint32_t)DAC_SWTRIGR_SWTRIG2;
 8000712:	685a      	ldr	r2, [r3, #4]
 8000714:	f042 0202 	orr.w	r2, r2, #2
 8000718:	e7eb      	b.n	80006f2 <HAL_DAC_Start+0x34>

0800071a <HAL_DAC_Stop>:
  *            @arg DAC_CHANNEL_1: DAC Channel1 selected
  *            @arg DAC_CHANNEL_2: DAC Channel2 selected  
  * @retval HAL status
  */
HAL_StatusTypeDef HAL_DAC_Stop(DAC_HandleTypeDef* hdac, uint32_t Channel)
{
 800071a:	b510      	push	{r4, lr}
  /* Check the parameters */
  assert_param(IS_DAC_CHANNEL(Channel));
  
  /* Disable the Peripheral */
  __HAL_DAC_DISABLE(hdac, Channel);
 800071c:	6804      	ldr	r4, [r0, #0]
 800071e:	2201      	movs	r2, #1
 8000720:	6823      	ldr	r3, [r4, #0]
 8000722:	fa02 f101 	lsl.w	r1, r2, r1
 8000726:	ea23 0301 	bic.w	r3, r3, r1
 800072a:	6023      	str	r3, [r4, #0]
 
  /* Change DAC state */
  hdac->State = HAL_DAC_STATE_READY;
 800072c:	7102      	strb	r2, [r0, #4]
  
  /* Return function status */
  return HAL_OK;
}
 800072e:	2000      	movs	r0, #0
 8000730:	bd10      	pop	{r4, pc}

08000732 <HAL_DAC_ConfigChannel>:
  assert_param(IS_DAC_TRIGGER(sConfig->DAC_Trigger));
  assert_param(IS_DAC_OUTPUT_BUFFER_STATE(sConfig->DAC_OutputBuffer));
  assert_param(IS_DAC_CHANNEL(Channel));
  
  /* Process locked */
  __HAL_LOCK(hdac);
 8000732:	7943      	ldrb	r3, [r0, #5]
 8000734:	2b01      	cmp	r3, #1
{
 8000736:	b530      	push	{r4, r5, lr}
 8000738:	f04f 0302 	mov.w	r3, #2
  __HAL_LOCK(hdac);
 800073c:	d017      	beq.n	800076e <HAL_DAC_ConfigChannel+0x3c>
  
  /* Change DAC state */
  hdac->State = HAL_DAC_STATE_BUSY;
  
  /* Get the DAC CR value */
  tmpreg1 = hdac->Instance->CR;
 800073e:	6804      	ldr	r4, [r0, #0]
  hdac->State = HAL_DAC_STATE_BUSY;
 8000740:	7103      	strb	r3, [r0, #4]
  tmpreg1 = hdac->Instance->CR;
 8000742:	6823      	ldr	r3, [r4, #0]
  /* Clear BOFFx, TENx, TSELx, WAVEx and MAMPx bits */
  tmpreg1 &= ~(((uint32_t)(DAC_CR_MAMP1 | DAC_CR_WAVE1 | DAC_CR_TSEL1 | DAC_CR_TEN1 | DAC_CR_BOFF1)) << Channel);
 8000744:	f640 75fe 	movw	r5, #4094	; 0xffe
 8000748:	4095      	lsls	r5, r2
 800074a:	ea23 0505 	bic.w	r5, r3, r5
  /* Configure for the selected DAC channel: buffer output, trigger */
  /* Set TSELx and TENx bits according to DAC_Trigger value */
  /* Set BOFFx bit according to DAC_OutputBuffer value */   
  tmpreg2 = (sConfig->DAC_Trigger | sConfig->DAC_OutputBuffer);
 800074e:	c90a      	ldmia	r1, {r1, r3}
 8000750:	430b      	orrs	r3, r1
  /* Calculate CR register value depending on DAC_Channel */
  tmpreg1 |= tmpreg2 << Channel;
 8000752:	4093      	lsls	r3, r2
 8000754:	432b      	orrs	r3, r5
  /* Write to DAC CR */
  hdac->Instance->CR = tmpreg1;
 8000756:	6023      	str	r3, [r4, #0]
  /* Disable wave generation */
  hdac->Instance->CR &= ~(DAC_CR_WAVE1 << Channel);
 8000758:	6823      	ldr	r3, [r4, #0]
 800075a:	21c0      	movs	r1, #192	; 0xc0
 800075c:	fa01 f202 	lsl.w	r2, r1, r2
 8000760:	ea23 0202 	bic.w	r2, r3, r2
  
  /* Change DAC state */
  hdac->State = HAL_DAC_STATE_READY;
 8000764:	2301      	movs	r3, #1
  hdac->Instance->CR &= ~(DAC_CR_WAVE1 << Channel);
 8000766:	6022      	str	r2, [r4, #0]
  hdac->State = HAL_DAC_STATE_READY;
 8000768:	7103      	strb	r3, [r0, #4]
  
  /* Process unlocked */
  __HAL_UNLOCK(hdac);
 800076a:	2300      	movs	r3, #0
 800076c:	7143      	strb	r3, [r0, #5]
  __HAL_LOCK(hdac);
 800076e:	4618      	mov	r0, r3
  
  /* Return function status */
  return HAL_OK;
}
 8000770:	bd30      	pop	{r4, r5, pc}

08000772 <HAL_DAC_SetValue>:
  *            @arg DAC_ALIGN_12B_R: 12bit right data alignment selected
  * @param  Data Data to be loaded in the selected data holding register.
  * @retval HAL status
  */
HAL_StatusTypeDef HAL_DAC_SetValue(DAC_HandleTypeDef* hdac, uint32_t Channel, uint32_t Alignment, uint32_t Data)
{  
 8000772:	b513      	push	{r0, r1, r4, lr}
  __IO uint32_t tmp = 0U;
 8000774:	2400      	movs	r4, #0
  /* Check the parameters */
  assert_param(IS_DAC_CHANNEL(Channel));
  assert_param(IS_DAC_ALIGN(Alignment));
  assert_param(IS_DAC_DATA(Data));
  
  tmp = (uint32_t)hdac->Instance; 
 8000776:	6800      	ldr	r0, [r0, #0]
  __IO uint32_t tmp = 0U;
 8000778:	9401      	str	r4, [sp, #4]
  tmp = (uint32_t)hdac->Instance; 
 800077a:	9001      	str	r0, [sp, #4]
  if(Channel == DAC_CHANNEL_1)
 800077c:	b941      	cbnz	r1, 8000790 <HAL_DAC_SetValue+0x1e>
  {
    tmp += DAC_DHR12R1_ALIGNMENT(Alignment);
 800077e:	9901      	ldr	r1, [sp, #4]
 8000780:	3108      	adds	r1, #8
  }
  else
  {
    tmp += DAC_DHR12R2_ALIGNMENT(Alignment);
 8000782:	440a      	add	r2, r1
 8000784:	9201      	str	r2, [sp, #4]
  }

  /* Set the DAC channel1 selected data holding register */
  *(__IO uint32_t *) tmp = Data;
 8000786:	9a01      	ldr	r2, [sp, #4]
  
  /* Return function status */
  return HAL_OK;
}
 8000788:	2000      	movs	r0, #0
  *(__IO uint32_t *) tmp = Data;
 800078a:	6013      	str	r3, [r2, #0]
}
 800078c:	b002      	add	sp, #8
 800078e:	bd10      	pop	{r4, pc}
    tmp += DAC_DHR12R2_ALIGNMENT(Alignment);
 8000790:	9901      	ldr	r1, [sp, #4]
 8000792:	3114      	adds	r1, #20
 8000794:	e7f5      	b.n	8000782 <HAL_DAC_SetValue+0x10>
	...

08000798 <DMA_CalcBaseAndBitshift>:
  *                     the configuration information for the specified DMA Stream. 
  * @retval Stream base address
  */
static uint32_t DMA_CalcBaseAndBitshift(DMA_HandleTypeDef *hdma)
{
  uint32_t stream_number = (((uint32_t)hdma->Instance & 0xFFU) - 16U) / 24U;
 8000798:	6803      	ldr	r3, [r0, #0]
 800079a:	b2da      	uxtb	r2, r3
 800079c:	f423 737f 	bic.w	r3, r3, #1020	; 0x3fc
 80007a0:	f023 0303 	bic.w	r3, r3, #3
 80007a4:	2118      	movs	r1, #24
 80007a6:	3a10      	subs	r2, #16
 80007a8:	fbb2 f2f1 	udiv	r2, r2, r1
  
  /* lookup table for necessary bitshift of flags within status registers */
  static const uint8_t flagBitshiftOffset[8U] = {0U, 6U, 16U, 22U, 0U, 6U, 16U, 22U};
  hdma->StreamIndex = flagBitshiftOffset[stream_number];
 80007ac:	4904      	ldr	r1, [pc, #16]	; (80007c0 <DMA_CalcBaseAndBitshift+0x28>)
  
  if (stream_number > 3U)
 80007ae:	2a03      	cmp	r2, #3
  {
    /* return pointer to HISR and HIFCR */
    hdma->StreamBaseAddress = (((uint32_t)hdma->Instance & (uint32_t)(~0x3FFU)) + 4U);
 80007b0:	bf88      	it	hi
 80007b2:	3304      	addhi	r3, #4
  hdma->StreamIndex = flagBitshiftOffset[stream_number];
 80007b4:	5c89      	ldrb	r1, [r1, r2]
  }
  else
  {
    /* return pointer to LISR and LIFCR */
    hdma->StreamBaseAddress = ((uint32_t)hdma->Instance & (uint32_t)(~0x3FFU));
 80007b6:	6583      	str	r3, [r0, #88]	; 0x58
  hdma->StreamIndex = flagBitshiftOffset[stream_number];
 80007b8:	65c1      	str	r1, [r0, #92]	; 0x5c
  }
  
  return hdma->StreamBaseAddress;
}
 80007ba:	6d80      	ldr	r0, [r0, #88]	; 0x58
 80007bc:	4770      	bx	lr
 80007be:	bf00      	nop
 80007c0:	080042a0 	.word	0x080042a0

080007c4 <HAL_DMA_Init>:
{
 80007c4:	b570      	push	{r4, r5, r6, lr}
 80007c6:	4604      	mov	r4, r0
  uint32_t tickstart = HAL_GetTick();
 80007c8:	f7ff fee2 	bl	8000590 <HAL_GetTick>
 80007cc:	4605      	mov	r5, r0
  if(hdma == NULL)
 80007ce:	2c00      	cmp	r4, #0
 80007d0:	d071      	beq.n	80008b6 <HAL_DMA_Init+0xf2>
  __HAL_UNLOCK(hdma);
 80007d2:	2300      	movs	r3, #0
 80007d4:	f884 3034 	strb.w	r3, [r4, #52]	; 0x34
  __HAL_DMA_DISABLE(hdma);
 80007d8:	6822      	ldr	r2, [r4, #0]
  hdma->State = HAL_DMA_STATE_BUSY;
 80007da:	2302      	movs	r3, #2
 80007dc:	f884 3035 	strb.w	r3, [r4, #53]	; 0x35
  __HAL_DMA_DISABLE(hdma);
 80007e0:	6813      	ldr	r3, [r2, #0]
 80007e2:	f023 0301 	bic.w	r3, r3, #1
 80007e6:	6013      	str	r3, [r2, #0]
  while((hdma->Instance->CR & DMA_SxCR_EN) != RESET)
 80007e8:	6821      	ldr	r1, [r4, #0]
 80007ea:	680b      	ldr	r3, [r1, #0]
 80007ec:	07d8      	lsls	r0, r3, #31
 80007ee:	d43c      	bmi.n	800086a <HAL_DMA_Init+0xa6>
  tmp = hdma->Instance->CR;
 80007f0:	680b      	ldr	r3, [r1, #0]
  tmp &= ((uint32_t)~(DMA_SxCR_CHSEL | DMA_SxCR_MBURST | DMA_SxCR_PBURST | \
 80007f2:	4d32      	ldr	r5, [pc, #200]	; (80008bc <HAL_DMA_Init+0xf8>)
  tmp |=  hdma->Init.Channel             | hdma->Init.Direction        |
 80007f4:	6862      	ldr	r2, [r4, #4]
          hdma->Init.PeriphDataAlignment | hdma->Init.MemDataAlignment |
 80007f6:	69a0      	ldr	r0, [r4, #24]
  tmp &= ((uint32_t)~(DMA_SxCR_CHSEL | DMA_SxCR_MBURST | DMA_SxCR_PBURST | \
 80007f8:	401d      	ands	r5, r3
  tmp |=  hdma->Init.Channel             | hdma->Init.Direction        |
 80007fa:	68a3      	ldr	r3, [r4, #8]
 80007fc:	4313      	orrs	r3, r2
 80007fe:	68e2      	ldr	r2, [r4, #12]
 8000800:	4313      	orrs	r3, r2
          hdma->Init.PeriphInc           | hdma->Init.MemInc           |
 8000802:	6922      	ldr	r2, [r4, #16]
 8000804:	4313      	orrs	r3, r2
 8000806:	6962      	ldr	r2, [r4, #20]
 8000808:	4313      	orrs	r3, r2
          hdma->Init.PeriphDataAlignment | hdma->Init.MemDataAlignment |
 800080a:	69e2      	ldr	r2, [r4, #28]
 800080c:	4303      	orrs	r3, r0
 800080e:	4313      	orrs	r3, r2
          hdma->Init.Mode                | hdma->Init.Priority;
 8000810:	6a22      	ldr	r2, [r4, #32]
 8000812:	4313      	orrs	r3, r2
  if(hdma->Init.FIFOMode == DMA_FIFOMODE_ENABLE)
 8000814:	6a62      	ldr	r2, [r4, #36]	; 0x24
 8000816:	2a04      	cmp	r2, #4
  tmp |=  hdma->Init.Channel             | hdma->Init.Direction        |
 8000818:	ea43 0305 	orr.w	r3, r3, r5
    tmp |=  hdma->Init.MemBurst | hdma->Init.PeriphBurst;
 800081c:	bf01      	itttt	eq
 800081e:	6b26      	ldreq	r6, [r4, #48]	; 0x30
 8000820:	6ae5      	ldreq	r5, [r4, #44]	; 0x2c
 8000822:	4335      	orreq	r5, r6
 8000824:	432b      	orreq	r3, r5
  hdma->Instance->CR = tmp;  
 8000826:	600b      	str	r3, [r1, #0]
  tmp = hdma->Instance->FCR;
 8000828:	694b      	ldr	r3, [r1, #20]
  if(hdma->Init.FIFOMode == DMA_FIFOMODE_ENABLE)
 800082a:	2a04      	cmp	r2, #4
  tmp &= (uint32_t)~(DMA_SxFCR_DMDIS | DMA_SxFCR_FTH);
 800082c:	f023 0307 	bic.w	r3, r3, #7
  tmp |= hdma->Init.FIFOMode;
 8000830:	ea43 0302 	orr.w	r3, r3, r2
  if(hdma->Init.FIFOMode == DMA_FIFOMODE_ENABLE)
 8000834:	d10b      	bne.n	800084e <HAL_DMA_Init+0x8a>
    tmp |= hdma->Init.FIFOThreshold;
 8000836:	6aa2      	ldr	r2, [r4, #40]	; 0x28
    if (hdma->Init.MemBurst != DMA_MBURST_SINGLE)
 8000838:	6ae5      	ldr	r5, [r4, #44]	; 0x2c
    tmp |= hdma->Init.FIFOThreshold;
 800083a:	4313      	orrs	r3, r2
    if (hdma->Init.MemBurst != DMA_MBURST_SINGLE)
 800083c:	b13d      	cbz	r5, 800084e <HAL_DMA_Init+0x8a>
{
  HAL_StatusTypeDef status = HAL_OK;
  uint32_t tmp = hdma->Init.FIFOThreshold;
  
  /* Memory Data size equal to Byte */
  if(hdma->Init.MemDataAlignment == DMA_MDATAALIGN_BYTE)
 800083e:	b9f8      	cbnz	r0, 8000880 <HAL_DMA_Init+0xbc>
  {
    switch (tmp)
 8000840:	2a01      	cmp	r2, #1
 8000842:	d02d      	beq.n	80008a0 <HAL_DMA_Init+0xdc>
 8000844:	d301      	bcc.n	800084a <HAL_DMA_Init+0x86>
 8000846:	2a02      	cmp	r2, #2
  }
  
  /* Memory Data size equal to Word */
  else
  {
    switch (tmp)
 8000848:	d101      	bne.n	800084e <HAL_DMA_Init+0x8a>
    case DMA_FIFO_THRESHOLD_HALFFULL:
    case DMA_FIFO_THRESHOLD_3QUARTERSFULL:
      status = HAL_ERROR;
      break;
    case DMA_FIFO_THRESHOLD_FULL:
      if ((hdma->Init.MemBurst & DMA_SxCR_MBURST_1) == DMA_SxCR_MBURST_1)
 800084a:	01ea      	lsls	r2, r5, #7
 800084c:	d42b      	bmi.n	80008a6 <HAL_DMA_Init+0xe2>
  hdma->Instance->FCR = tmp;
 800084e:	614b      	str	r3, [r1, #20]
  regs = (DMA_Base_Registers *)DMA_CalcBaseAndBitshift(hdma);
 8000850:	4620      	mov	r0, r4
 8000852:	f7ff ffa1 	bl	8000798 <DMA_CalcBaseAndBitshift>
  regs->IFCR = 0x3FU << hdma->StreamIndex;
 8000856:	6de2      	ldr	r2, [r4, #92]	; 0x5c
 8000858:	233f      	movs	r3, #63	; 0x3f
 800085a:	4093      	lsls	r3, r2
 800085c:	6083      	str	r3, [r0, #8]
  hdma->ErrorCode = HAL_DMA_ERROR_NONE;
 800085e:	2000      	movs	r0, #0
  hdma->State = HAL_DMA_STATE_READY;
 8000860:	2301      	movs	r3, #1
  hdma->ErrorCode = HAL_DMA_ERROR_NONE;
 8000862:	6560      	str	r0, [r4, #84]	; 0x54
  hdma->State = HAL_DMA_STATE_READY;
 8000864:	f884 3035 	strb.w	r3, [r4, #53]	; 0x35
  return HAL_OK;
 8000868:	bd70      	pop	{r4, r5, r6, pc}
    if((HAL_GetTick() - tickstart ) > HAL_TIMEOUT_DMA_ABORT)
 800086a:	f7ff fe91 	bl	8000590 <HAL_GetTick>
 800086e:	1b40      	subs	r0, r0, r5
 8000870:	2805      	cmp	r0, #5
 8000872:	d9b9      	bls.n	80007e8 <HAL_DMA_Init+0x24>
      hdma->ErrorCode = HAL_DMA_ERROR_TIMEOUT;
 8000874:	2320      	movs	r3, #32
 8000876:	6563      	str	r3, [r4, #84]	; 0x54
      hdma->State = HAL_DMA_STATE_TIMEOUT;
 8000878:	2003      	movs	r0, #3
        hdma->State = HAL_DMA_STATE_READY;
 800087a:	f884 0035 	strb.w	r0, [r4, #53]	; 0x35
}
 800087e:	bd70      	pop	{r4, r5, r6, pc}
  else if (hdma->Init.MemDataAlignment == DMA_MDATAALIGN_HALFWORD)
 8000880:	f5b0 5f00 	cmp.w	r0, #8192	; 0x2000
 8000884:	d113      	bne.n	80008ae <HAL_DMA_Init+0xea>
    switch (tmp)
 8000886:	2a03      	cmp	r2, #3
 8000888:	d8e1      	bhi.n	800084e <HAL_DMA_Init+0x8a>
 800088a:	a001      	add	r0, pc, #4	; (adr r0, 8000890 <HAL_DMA_Init+0xcc>)
 800088c:	f850 f022 	ldr.w	pc, [r0, r2, lsl #2]
 8000890:	080008a7 	.word	0x080008a7
 8000894:	0800084b 	.word	0x0800084b
 8000898:	080008a7 	.word	0x080008a7
 800089c:	080008a1 	.word	0x080008a1
      if (hdma->Init.MemBurst == DMA_MBURST_INC16)
 80008a0:	f1b5 7fc0 	cmp.w	r5, #25165824	; 0x1800000
 80008a4:	d1d3      	bne.n	800084e <HAL_DMA_Init+0x8a>
        hdma->ErrorCode = HAL_DMA_ERROR_PARAM;
 80008a6:	2340      	movs	r3, #64	; 0x40
 80008a8:	6563      	str	r3, [r4, #84]	; 0x54
        hdma->State = HAL_DMA_STATE_READY;
 80008aa:	2001      	movs	r0, #1
 80008ac:	e7e5      	b.n	800087a <HAL_DMA_Init+0xb6>
    switch (tmp)
 80008ae:	2a02      	cmp	r2, #2
 80008b0:	d9f9      	bls.n	80008a6 <HAL_DMA_Init+0xe2>
 80008b2:	2a03      	cmp	r2, #3
 80008b4:	e7c8      	b.n	8000848 <HAL_DMA_Init+0x84>
    return HAL_ERROR;
 80008b6:	2001      	movs	r0, #1
 80008b8:	bd70      	pop	{r4, r5, r6, pc}
 80008ba:	bf00      	nop
 80008bc:	f010803f 	.word	0xf010803f

080008c0 <HAL_DMA_Start_IT>:
{
 80008c0:	b570      	push	{r4, r5, r6, lr}
  __HAL_LOCK(hdma);
 80008c2:	f890 4034 	ldrb.w	r4, [r0, #52]	; 0x34
 80008c6:	2c01      	cmp	r4, #1
 80008c8:	d036      	beq.n	8000938 <HAL_DMA_Start_IT+0x78>
 80008ca:	2401      	movs	r4, #1
 80008cc:	f880 4034 	strb.w	r4, [r0, #52]	; 0x34
  if(HAL_DMA_STATE_READY == hdma->State)
 80008d0:	f890 4035 	ldrb.w	r4, [r0, #53]	; 0x35
  DMA_Base_Registers *regs = (DMA_Base_Registers *)hdma->StreamBaseAddress;
 80008d4:	6d86      	ldr	r6, [r0, #88]	; 0x58
  if(HAL_DMA_STATE_READY == hdma->State)
 80008d6:	2c01      	cmp	r4, #1
 80008d8:	f04f 0500 	mov.w	r5, #0
 80008dc:	f04f 0402 	mov.w	r4, #2
 80008e0:	d128      	bne.n	8000934 <HAL_DMA_Start_IT+0x74>
    hdma->State = HAL_DMA_STATE_BUSY;
 80008e2:	f880 4035 	strb.w	r4, [r0, #53]	; 0x35
  hdma->Instance->CR &= (uint32_t)(~DMA_SxCR_DBM);
 80008e6:	6804      	ldr	r4, [r0, #0]
    hdma->ErrorCode = HAL_DMA_ERROR_NONE;
 80008e8:	6545      	str	r5, [r0, #84]	; 0x54
  hdma->Instance->CR &= (uint32_t)(~DMA_SxCR_DBM);
 80008ea:	6825      	ldr	r5, [r4, #0]
 80008ec:	f425 2580 	bic.w	r5, r5, #262144	; 0x40000
 80008f0:	6025      	str	r5, [r4, #0]
  hdma->Instance->NDTR = DataLength;
 80008f2:	6063      	str	r3, [r4, #4]
  if((hdma->Init.Direction) == DMA_MEMORY_TO_PERIPH)
 80008f4:	6883      	ldr	r3, [r0, #8]
 80008f6:	2b40      	cmp	r3, #64	; 0x40
    hdma->Instance->PAR = DstAddress;
 80008f8:	bf0e      	itee	eq
 80008fa:	60a2      	streq	r2, [r4, #8]
    hdma->Instance->PAR = SrcAddress;
 80008fc:	60a1      	strne	r1, [r4, #8]
    hdma->Instance->M0AR = DstAddress;
 80008fe:	60e2      	strne	r2, [r4, #12]
    regs->IFCR = 0x3FU << hdma->StreamIndex;
 8000900:	6dc2      	ldr	r2, [r0, #92]	; 0x5c
    hdma->Instance->M0AR = SrcAddress;
 8000902:	bf08      	it	eq
 8000904:	60e1      	streq	r1, [r4, #12]
    regs->IFCR = 0x3FU << hdma->StreamIndex;
 8000906:	233f      	movs	r3, #63	; 0x3f
 8000908:	4093      	lsls	r3, r2
 800090a:	60b3      	str	r3, [r6, #8]
    hdma->Instance->CR  |= DMA_IT_TC | DMA_IT_TE | DMA_IT_DME;
 800090c:	6823      	ldr	r3, [r4, #0]
 800090e:	f043 0316 	orr.w	r3, r3, #22
 8000912:	6023      	str	r3, [r4, #0]
    hdma->Instance->FCR |= DMA_IT_FE;
 8000914:	6963      	ldr	r3, [r4, #20]
 8000916:	f043 0380 	orr.w	r3, r3, #128	; 0x80
 800091a:	6163      	str	r3, [r4, #20]
    if(hdma->XferHalfCpltCallback != NULL)
 800091c:	6c03      	ldr	r3, [r0, #64]	; 0x40
 800091e:	b11b      	cbz	r3, 8000928 <HAL_DMA_Start_IT+0x68>
      hdma->Instance->CR  |= DMA_IT_HT;
 8000920:	6823      	ldr	r3, [r4, #0]
 8000922:	f043 0308 	orr.w	r3, r3, #8
 8000926:	6023      	str	r3, [r4, #0]
    __HAL_DMA_ENABLE(hdma);
 8000928:	6823      	ldr	r3, [r4, #0]
 800092a:	f043 0301 	orr.w	r3, r3, #1
 800092e:	6023      	str	r3, [r4, #0]
  HAL_StatusTypeDef status = HAL_OK;
 8000930:	2000      	movs	r0, #0
 8000932:	bd70      	pop	{r4, r5, r6, pc}
    __HAL_UNLOCK(hdma);	  
 8000934:	f880 5034 	strb.w	r5, [r0, #52]	; 0x34
  __HAL_LOCK(hdma);
 8000938:	2002      	movs	r0, #2
}
 800093a:	bd70      	pop	{r4, r5, r6, pc}

0800093c <HAL_DMA_Abort>:
{
 800093c:	b570      	push	{r4, r5, r6, lr}
 800093e:	4604      	mov	r4, r0
  DMA_Base_Registers *regs = (DMA_Base_Registers *)hdma->StreamBaseAddress;
 8000940:	6d85      	ldr	r5, [r0, #88]	; 0x58
  uint32_t tickstart = HAL_GetTick();
 8000942:	f7ff fe25 	bl	8000590 <HAL_GetTick>
  if(hdma->State != HAL_DMA_STATE_BUSY)
 8000946:	f894 3035 	ldrb.w	r3, [r4, #53]	; 0x35
 800094a:	2b02      	cmp	r3, #2
  uint32_t tickstart = HAL_GetTick();
 800094c:	4606      	mov	r6, r0
  if(hdma->State != HAL_DMA_STATE_BUSY)
 800094e:	d006      	beq.n	800095e <HAL_DMA_Abort+0x22>
    hdma->ErrorCode = HAL_DMA_ERROR_NO_XFER;
 8000950:	2380      	movs	r3, #128	; 0x80
 8000952:	6563      	str	r3, [r4, #84]	; 0x54
    __HAL_UNLOCK(hdma);
 8000954:	2300      	movs	r3, #0
 8000956:	f884 3034 	strb.w	r3, [r4, #52]	; 0x34
    return HAL_ERROR;
 800095a:	2001      	movs	r0, #1
 800095c:	bd70      	pop	{r4, r5, r6, pc}
    hdma->Instance->CR  &= ~(DMA_IT_TC | DMA_IT_TE | DMA_IT_DME);
 800095e:	6823      	ldr	r3, [r4, #0]
 8000960:	681a      	ldr	r2, [r3, #0]
 8000962:	f022 0216 	bic.w	r2, r2, #22
 8000966:	601a      	str	r2, [r3, #0]
    hdma->Instance->FCR &= ~(DMA_IT_FE);
 8000968:	695a      	ldr	r2, [r3, #20]
 800096a:	f022 0280 	bic.w	r2, r2, #128	; 0x80
 800096e:	615a      	str	r2, [r3, #20]
    if((hdma->XferHalfCpltCallback != NULL) || (hdma->XferM1HalfCpltCallback != NULL))
 8000970:	6c22      	ldr	r2, [r4, #64]	; 0x40
 8000972:	b90a      	cbnz	r2, 8000978 <HAL_DMA_Abort+0x3c>
 8000974:	6ca2      	ldr	r2, [r4, #72]	; 0x48
 8000976:	b11a      	cbz	r2, 8000980 <HAL_DMA_Abort+0x44>
      hdma->Instance->CR  &= ~(DMA_IT_HT);
 8000978:	681a      	ldr	r2, [r3, #0]
 800097a:	f022 0208 	bic.w	r2, r2, #8
 800097e:	601a      	str	r2, [r3, #0]
    __HAL_DMA_DISABLE(hdma);
 8000980:	681a      	ldr	r2, [r3, #0]
 8000982:	f022 0201 	bic.w	r2, r2, #1
 8000986:	601a      	str	r2, [r3, #0]
    while((hdma->Instance->CR & DMA_SxCR_EN) != RESET)
 8000988:	6823      	ldr	r3, [r4, #0]
 800098a:	6818      	ldr	r0, [r3, #0]
 800098c:	f010 0001 	ands.w	r0, r0, #1
 8000990:	d109      	bne.n	80009a6 <HAL_DMA_Abort+0x6a>
    regs->IFCR = 0x3FU << hdma->StreamIndex;
 8000992:	6de2      	ldr	r2, [r4, #92]	; 0x5c
 8000994:	233f      	movs	r3, #63	; 0x3f
 8000996:	4093      	lsls	r3, r2
 8000998:	60ab      	str	r3, [r5, #8]
    hdma->State = HAL_DMA_STATE_READY;
 800099a:	2301      	movs	r3, #1
    __HAL_UNLOCK(hdma);
 800099c:	f884 0034 	strb.w	r0, [r4, #52]	; 0x34
    hdma->State = HAL_DMA_STATE_READY;
 80009a0:	f884 3035 	strb.w	r3, [r4, #53]	; 0x35
}
 80009a4:	bd70      	pop	{r4, r5, r6, pc}
      if((HAL_GetTick() - tickstart ) > HAL_TIMEOUT_DMA_ABORT)
 80009a6:	f7ff fdf3 	bl	8000590 <HAL_GetTick>
 80009aa:	1b80      	subs	r0, r0, r6
 80009ac:	2805      	cmp	r0, #5
 80009ae:	d9eb      	bls.n	8000988 <HAL_DMA_Abort+0x4c>
        hdma->ErrorCode = HAL_DMA_ERROR_TIMEOUT;
 80009b0:	2320      	movs	r3, #32
 80009b2:	6563      	str	r3, [r4, #84]	; 0x54
        hdma->State = HAL_DMA_STATE_TIMEOUT;
 80009b4:	2003      	movs	r0, #3
        __HAL_UNLOCK(hdma);
 80009b6:	2300      	movs	r3, #0
 80009b8:	f884 3034 	strb.w	r3, [r4, #52]	; 0x34
        hdma->State = HAL_DMA_STATE_TIMEOUT;
 80009bc:	f884 0035 	strb.w	r0, [r4, #53]	; 0x35
        return HAL_TIMEOUT;
 80009c0:	bd70      	pop	{r4, r5, r6, pc}
	...

080009c4 <HAL_DMA_IRQHandler>:
{
 80009c4:	b5f7      	push	{r0, r1, r2, r4, r5, r6, r7, lr}
  __IO uint32_t count = 0U;
 80009c6:	2300      	movs	r3, #0
 80009c8:	9301      	str	r3, [sp, #4]
  uint32_t timeout = SystemCoreClock / 9600U;
 80009ca:	4b5a      	ldr	r3, [pc, #360]	; (8000b34 <HAL_DMA_IRQHandler+0x170>)
  DMA_Base_Registers *regs = (DMA_Base_Registers *)hdma->StreamBaseAddress;
 80009cc:	6d85      	ldr	r5, [r0, #88]	; 0x58
  uint32_t timeout = SystemCoreClock / 9600U;
 80009ce:	681f      	ldr	r7, [r3, #0]
  if ((tmpisr & (DMA_FLAG_TEIF0_4 << hdma->StreamIndex)) != RESET)
 80009d0:	6dc3      	ldr	r3, [r0, #92]	; 0x5c
  tmpisr = regs->ISR;
 80009d2:	682e      	ldr	r6, [r5, #0]
  if ((tmpisr & (DMA_FLAG_TEIF0_4 << hdma->StreamIndex)) != RESET)
 80009d4:	2208      	movs	r2, #8
 80009d6:	409a      	lsls	r2, r3
 80009d8:	4216      	tst	r6, r2
{
 80009da:	4604      	mov	r4, r0
  if ((tmpisr & (DMA_FLAG_TEIF0_4 << hdma->StreamIndex)) != RESET)
 80009dc:	d00c      	beq.n	80009f8 <HAL_DMA_IRQHandler+0x34>
    if(__HAL_DMA_GET_IT_SOURCE(hdma, DMA_IT_TE) != RESET)
 80009de:	6801      	ldr	r1, [r0, #0]
 80009e0:	6808      	ldr	r0, [r1, #0]
 80009e2:	0740      	lsls	r0, r0, #29
 80009e4:	d508      	bpl.n	80009f8 <HAL_DMA_IRQHandler+0x34>
      hdma->Instance->CR  &= ~(DMA_IT_TE);
 80009e6:	6808      	ldr	r0, [r1, #0]
 80009e8:	f020 0004 	bic.w	r0, r0, #4
 80009ec:	6008      	str	r0, [r1, #0]
      regs->IFCR = DMA_FLAG_TEIF0_4 << hdma->StreamIndex;
 80009ee:	60aa      	str	r2, [r5, #8]
      hdma->ErrorCode |= HAL_DMA_ERROR_TE;
 80009f0:	6d62      	ldr	r2, [r4, #84]	; 0x54
 80009f2:	f042 0201 	orr.w	r2, r2, #1
 80009f6:	6562      	str	r2, [r4, #84]	; 0x54
  if ((tmpisr & (DMA_FLAG_FEIF0_4 << hdma->StreamIndex)) != RESET)
 80009f8:	2201      	movs	r2, #1
 80009fa:	409a      	lsls	r2, r3
 80009fc:	4216      	tst	r6, r2
 80009fe:	d008      	beq.n	8000a12 <HAL_DMA_IRQHandler+0x4e>
    if(__HAL_DMA_GET_IT_SOURCE(hdma, DMA_IT_FE) != RESET)
 8000a00:	6821      	ldr	r1, [r4, #0]
 8000a02:	6949      	ldr	r1, [r1, #20]
 8000a04:	0609      	lsls	r1, r1, #24
      regs->IFCR = DMA_FLAG_FEIF0_4 << hdma->StreamIndex;
 8000a06:	bf41      	itttt	mi
 8000a08:	60aa      	strmi	r2, [r5, #8]
      hdma->ErrorCode |= HAL_DMA_ERROR_FE;
 8000a0a:	6d62      	ldrmi	r2, [r4, #84]	; 0x54
 8000a0c:	f042 0202 	orrmi.w	r2, r2, #2
 8000a10:	6562      	strmi	r2, [r4, #84]	; 0x54
  if ((tmpisr & (DMA_FLAG_DMEIF0_4 << hdma->StreamIndex)) != RESET)
 8000a12:	2204      	movs	r2, #4
 8000a14:	409a      	lsls	r2, r3
 8000a16:	4216      	tst	r6, r2
 8000a18:	d008      	beq.n	8000a2c <HAL_DMA_IRQHandler+0x68>
    if(__HAL_DMA_GET_IT_SOURCE(hdma, DMA_IT_DME) != RESET)
 8000a1a:	6821      	ldr	r1, [r4, #0]
 8000a1c:	6809      	ldr	r1, [r1, #0]
 8000a1e:	0788      	lsls	r0, r1, #30
      regs->IFCR = DMA_FLAG_DMEIF0_4 << hdma->StreamIndex;
 8000a20:	bf41      	itttt	mi
 8000a22:	60aa      	strmi	r2, [r5, #8]
      hdma->ErrorCode |= HAL_DMA_ERROR_DME;
 8000a24:	6d62      	ldrmi	r2, [r4, #84]	; 0x54
 8000a26:	f042 0204 	orrmi.w	r2, r2, #4
 8000a2a:	6562      	strmi	r2, [r4, #84]	; 0x54
  if ((tmpisr & (DMA_FLAG_HTIF0_4 << hdma->StreamIndex)) != RESET)
 8000a2c:	2210      	movs	r2, #16
 8000a2e:	409a      	lsls	r2, r3
 8000a30:	4216      	tst	r6, r2
 8000a32:	d010      	beq.n	8000a56 <HAL_DMA_IRQHandler+0x92>
    if(__HAL_DMA_GET_IT_SOURCE(hdma, DMA_IT_HT) != RESET)
 8000a34:	6823      	ldr	r3, [r4, #0]
 8000a36:	6819      	ldr	r1, [r3, #0]
 8000a38:	0709      	lsls	r1, r1, #28
 8000a3a:	d50c      	bpl.n	8000a56 <HAL_DMA_IRQHandler+0x92>
      regs->IFCR = DMA_FLAG_HTIF0_4 << hdma->StreamIndex;
 8000a3c:	60aa      	str	r2, [r5, #8]
      if(((hdma->Instance->CR) & (uint32_t)(DMA_SxCR_DBM)) != RESET)
 8000a3e:	681a      	ldr	r2, [r3, #0]
 8000a40:	0350      	lsls	r0, r2, #13
 8000a42:	d535      	bpl.n	8000ab0 <HAL_DMA_IRQHandler+0xec>
        if((hdma->Instance->CR & DMA_SxCR_CT) == RESET)
 8000a44:	681b      	ldr	r3, [r3, #0]
 8000a46:	0319      	lsls	r1, r3, #12
 8000a48:	d401      	bmi.n	8000a4e <HAL_DMA_IRQHandler+0x8a>
        if(hdma->XferHalfCpltCallback != NULL)
 8000a4a:	6c23      	ldr	r3, [r4, #64]	; 0x40
 8000a4c:	e000      	b.n	8000a50 <HAL_DMA_IRQHandler+0x8c>
          if(hdma->XferM1HalfCpltCallback != NULL)
 8000a4e:	6ca3      	ldr	r3, [r4, #72]	; 0x48
        if(hdma->XferHalfCpltCallback != NULL)
 8000a50:	b10b      	cbz	r3, 8000a56 <HAL_DMA_IRQHandler+0x92>
          hdma->XferHalfCpltCallback(hdma);
 8000a52:	4620      	mov	r0, r4
 8000a54:	4798      	blx	r3
  if ((tmpisr & (DMA_FLAG_TCIF0_4 << hdma->StreamIndex)) != RESET)
 8000a56:	6de1      	ldr	r1, [r4, #92]	; 0x5c
 8000a58:	2220      	movs	r2, #32
 8000a5a:	408a      	lsls	r2, r1
 8000a5c:	4216      	tst	r6, r2
 8000a5e:	d038      	beq.n	8000ad2 <HAL_DMA_IRQHandler+0x10e>
    if(__HAL_DMA_GET_IT_SOURCE(hdma, DMA_IT_TC) != RESET)
 8000a60:	6823      	ldr	r3, [r4, #0]
 8000a62:	6818      	ldr	r0, [r3, #0]
 8000a64:	06c6      	lsls	r6, r0, #27
 8000a66:	d534      	bpl.n	8000ad2 <HAL_DMA_IRQHandler+0x10e>
      regs->IFCR = DMA_FLAG_TCIF0_4 << hdma->StreamIndex;
 8000a68:	60aa      	str	r2, [r5, #8]
      if(HAL_DMA_STATE_ABORT == hdma->State)
 8000a6a:	f894 2035 	ldrb.w	r2, [r4, #53]	; 0x35
 8000a6e:	2a05      	cmp	r2, #5
        hdma->Instance->CR  &= ~(DMA_IT_TC | DMA_IT_TE | DMA_IT_DME);
 8000a70:	681a      	ldr	r2, [r3, #0]
      if(HAL_DMA_STATE_ABORT == hdma->State)
 8000a72:	d125      	bne.n	8000ac0 <HAL_DMA_IRQHandler+0xfc>
        hdma->Instance->CR  &= ~(DMA_IT_TC | DMA_IT_TE | DMA_IT_DME);
 8000a74:	f022 0216 	bic.w	r2, r2, #22
 8000a78:	601a      	str	r2, [r3, #0]
        hdma->Instance->FCR &= ~(DMA_IT_FE);
 8000a7a:	695a      	ldr	r2, [r3, #20]
 8000a7c:	f022 0280 	bic.w	r2, r2, #128	; 0x80
 8000a80:	615a      	str	r2, [r3, #20]
        if((hdma->XferHalfCpltCallback != NULL) || (hdma->XferM1HalfCpltCallback != NULL))
 8000a82:	6c22      	ldr	r2, [r4, #64]	; 0x40
 8000a84:	b90a      	cbnz	r2, 8000a8a <HAL_DMA_IRQHandler+0xc6>
 8000a86:	6ca2      	ldr	r2, [r4, #72]	; 0x48
 8000a88:	b11a      	cbz	r2, 8000a92 <HAL_DMA_IRQHandler+0xce>
          hdma->Instance->CR  &= ~(DMA_IT_HT);
 8000a8a:	681a      	ldr	r2, [r3, #0]
 8000a8c:	f022 0208 	bic.w	r2, r2, #8
 8000a90:	601a      	str	r2, [r3, #0]
        regs->IFCR = 0x3FU << hdma->StreamIndex;
 8000a92:	233f      	movs	r3, #63	; 0x3f
 8000a94:	408b      	lsls	r3, r1
 8000a96:	60ab      	str	r3, [r5, #8]
        __HAL_UNLOCK(hdma);
 8000a98:	2300      	movs	r3, #0
 8000a9a:	f884 3034 	strb.w	r3, [r4, #52]	; 0x34
        hdma->State = HAL_DMA_STATE_READY;
 8000a9e:	2301      	movs	r3, #1
 8000aa0:	f884 3035 	strb.w	r3, [r4, #53]	; 0x35
        if(hdma->XferAbortCallback != NULL)
 8000aa4:	6d23      	ldr	r3, [r4, #80]	; 0x50
    if(hdma->XferErrorCallback != NULL)
 8000aa6:	b10b      	cbz	r3, 8000aac <HAL_DMA_IRQHandler+0xe8>
      hdma->XferErrorCallback(hdma);
 8000aa8:	4620      	mov	r0, r4
 8000aaa:	4798      	blx	r3
}
 8000aac:	b003      	add	sp, #12
 8000aae:	bdf0      	pop	{r4, r5, r6, r7, pc}
        if((hdma->Instance->CR & DMA_SxCR_CIRC) == RESET)
 8000ab0:	681a      	ldr	r2, [r3, #0]
 8000ab2:	05d2      	lsls	r2, r2, #23
          hdma->Instance->CR  &= ~(DMA_IT_HT);
 8000ab4:	bf5e      	ittt	pl
 8000ab6:	681a      	ldrpl	r2, [r3, #0]
 8000ab8:	f022 0208 	bicpl.w	r2, r2, #8
 8000abc:	601a      	strpl	r2, [r3, #0]
 8000abe:	e7c4      	b.n	8000a4a <HAL_DMA_IRQHandler+0x86>
      if(((hdma->Instance->CR) & (uint32_t)(DMA_SxCR_DBM)) != RESET)
 8000ac0:	0350      	lsls	r0, r2, #13
 8000ac2:	d528      	bpl.n	8000b16 <HAL_DMA_IRQHandler+0x152>
        if((hdma->Instance->CR & DMA_SxCR_CT) == RESET)
 8000ac4:	681b      	ldr	r3, [r3, #0]
 8000ac6:	0319      	lsls	r1, r3, #12
 8000ac8:	d432      	bmi.n	8000b30 <HAL_DMA_IRQHandler+0x16c>
          if(hdma->XferM1CpltCallback != NULL)
 8000aca:	6c63      	ldr	r3, [r4, #68]	; 0x44
        if(hdma->XferCpltCallback != NULL)
 8000acc:	b10b      	cbz	r3, 8000ad2 <HAL_DMA_IRQHandler+0x10e>
          hdma->XferCpltCallback(hdma);
 8000ace:	4620      	mov	r0, r4
 8000ad0:	4798      	blx	r3
  if(hdma->ErrorCode != HAL_DMA_ERROR_NONE)
 8000ad2:	6d63      	ldr	r3, [r4, #84]	; 0x54
 8000ad4:	2b00      	cmp	r3, #0
 8000ad6:	d0e9      	beq.n	8000aac <HAL_DMA_IRQHandler+0xe8>
    if((hdma->ErrorCode & HAL_DMA_ERROR_TE) != RESET)
 8000ad8:	6d63      	ldr	r3, [r4, #84]	; 0x54
 8000ada:	07da      	lsls	r2, r3, #31
 8000adc:	d519      	bpl.n	8000b12 <HAL_DMA_IRQHandler+0x14e>
      hdma->State = HAL_DMA_STATE_ABORT;
 8000ade:	2305      	movs	r3, #5
      __HAL_DMA_DISABLE(hdma);
 8000ae0:	6822      	ldr	r2, [r4, #0]
      hdma->State = HAL_DMA_STATE_ABORT;
 8000ae2:	f884 3035 	strb.w	r3, [r4, #53]	; 0x35
      __HAL_DMA_DISABLE(hdma);
 8000ae6:	6813      	ldr	r3, [r2, #0]
 8000ae8:	f023 0301 	bic.w	r3, r3, #1
 8000aec:	6013      	str	r3, [r2, #0]
  uint32_t timeout = SystemCoreClock / 9600U;
 8000aee:	f44f 5316 	mov.w	r3, #9600	; 0x2580
 8000af2:	fbb7 f7f3 	udiv	r7, r7, r3
        if (++count > timeout)
 8000af6:	9b01      	ldr	r3, [sp, #4]
 8000af8:	3301      	adds	r3, #1
 8000afa:	429f      	cmp	r7, r3
 8000afc:	9301      	str	r3, [sp, #4]
 8000afe:	d302      	bcc.n	8000b06 <HAL_DMA_IRQHandler+0x142>
      while((hdma->Instance->CR & DMA_SxCR_EN) != RESET);
 8000b00:	6813      	ldr	r3, [r2, #0]
 8000b02:	07db      	lsls	r3, r3, #31
 8000b04:	d4f7      	bmi.n	8000af6 <HAL_DMA_IRQHandler+0x132>
      __HAL_UNLOCK(hdma);
 8000b06:	2300      	movs	r3, #0
 8000b08:	f884 3034 	strb.w	r3, [r4, #52]	; 0x34
      hdma->State = HAL_DMA_STATE_READY;
 8000b0c:	2301      	movs	r3, #1
 8000b0e:	f884 3035 	strb.w	r3, [r4, #53]	; 0x35
    if(hdma->XferErrorCallback != NULL)
 8000b12:	6ce3      	ldr	r3, [r4, #76]	; 0x4c
 8000b14:	e7c7      	b.n	8000aa6 <HAL_DMA_IRQHandler+0xe2>
        if((hdma->Instance->CR & DMA_SxCR_CIRC) == RESET)
 8000b16:	681a      	ldr	r2, [r3, #0]
 8000b18:	f412 7280 	ands.w	r2, r2, #256	; 0x100
 8000b1c:	d108      	bne.n	8000b30 <HAL_DMA_IRQHandler+0x16c>
          hdma->Instance->CR  &= ~(DMA_IT_TC);
 8000b1e:	6819      	ldr	r1, [r3, #0]
 8000b20:	f021 0110 	bic.w	r1, r1, #16
 8000b24:	6019      	str	r1, [r3, #0]
          hdma->State = HAL_DMA_STATE_READY;
 8000b26:	2301      	movs	r3, #1
          __HAL_UNLOCK(hdma);
 8000b28:	f884 2034 	strb.w	r2, [r4, #52]	; 0x34
          hdma->State = HAL_DMA_STATE_READY;
 8000b2c:	f884 3035 	strb.w	r3, [r4, #53]	; 0x35
        if(hdma->XferCpltCallback != NULL)
 8000b30:	6be3      	ldr	r3, [r4, #60]	; 0x3c
 8000b32:	e7cb      	b.n	8000acc <HAL_DMA_IRQHandler+0x108>
 8000b34:	20000008 	.word	0x20000008

08000b38 <ETH_MACDMAConfig>:
  *         the configuration information for ETHERNET module
  * @param  err Ethernet Init error
  * @retval HAL status
  */
static void ETH_MACDMAConfig(ETH_HandleTypeDef *heth, uint32_t err)
{
 8000b38:	b570      	push	{r4, r5, r6, lr}
 8000b3a:	4604      	mov	r4, r0
  ETH_MACInitTypeDef macinit;
  ETH_DMAInitTypeDef dmainit;
  uint32_t tmpreg1 = 0U;
  
  if (err != ETH_SUCCESS) /* Auto-negotiation failed */
 8000b3c:	b129      	cbz	r1, 8000b4a <ETH_MACDMAConfig+0x12>
  {
    /* Set Ethernet duplex mode to Full-duplex */
    (heth->Init).DuplexMode = ETH_MODE_FULLDUPLEX;
 8000b3e:	f44f 6300 	mov.w	r3, #2048	; 0x800
 8000b42:	60c3      	str	r3, [r0, #12]
    
    /* Set Ethernet speed to 100M */
    (heth->Init).Speed = ETH_SPEED_100M;
 8000b44:	f44f 4380 	mov.w	r3, #16384	; 0x4000
 8000b48:	6083      	str	r3, [r0, #8]
  macinit.Jabber = ETH_JABBER_ENABLE;
  macinit.InterFrameGap = ETH_INTERFRAMEGAP_96BIT;
  macinit.CarrierSense = ETH_CARRIERSENCE_ENABLE;
  macinit.ReceiveOwn = ETH_RECEIVEOWN_ENABLE;
  macinit.LoopbackMode = ETH_LOOPBACKMODE_DISABLE;
  if(heth->Init.ChecksumMode == ETH_CHECKSUM_BY_HARDWARE)
 8000b4a:	69e3      	ldr	r3, [r4, #28]
  macinit.VLANTagComparison = ETH_VLANTAGCOMPARISON_16BIT;
  macinit.VLANTagIdentifier = 0x0U;
  
  /*------------------------ ETHERNET MACCR Configuration --------------------*/
  /* Get the ETHERNET MACCR value */
  tmpreg1 = (heth->Instance)->MACCR;
 8000b4c:	6822      	ldr	r2, [r4, #0]
                       macinit.Jabber | 
                       macinit.InterFrameGap |
                       macinit.CarrierSense |
                       (heth->Init).Speed | 
                       macinit.ReceiveOwn |
                       macinit.LoopbackMode |
 8000b4e:	68e0      	ldr	r0, [r4, #12]
  tmpreg1 = (heth->Instance)->MACCR;
 8000b50:	6815      	ldr	r5, [r2, #0]
    macinit.ChecksumOffload = ETH_CHECKSUMOFFLAOD_DISABLE;
 8000b52:	2b00      	cmp	r3, #0
                       macinit.LoopbackMode |
 8000b54:	68a3      	ldr	r3, [r4, #8]
 8000b56:	ea43 0300 	orr.w	r3, r3, r0
  tmpreg1 &= ETH_MACCR_CLEAR_MASK;
 8000b5a:	4830      	ldr	r0, [pc, #192]	; (8000c1c <ETH_MACDMAConfig+0xe4>)
 8000b5c:	f443 7300 	orr.w	r3, r3, #512	; 0x200
 8000b60:	ea00 0005 	and.w	r0, r0, r5
    macinit.ChecksumOffload = ETH_CHECKSUMOFFLAOD_DISABLE;
 8000b64:	bf0c      	ite	eq
 8000b66:	f44f 6180 	moveq.w	r1, #1024	; 0x400
 8000b6a:	2100      	movne	r1, #0
 8000b6c:	4303      	orrs	r3, r0
  tmpreg1 |= (uint32_t)(macinit.Watchdog | 
 8000b6e:	430b      	orrs	r3, r1
                       macinit.AutomaticPadCRCStrip | 
                       macinit.BackOffLimit | 
                       macinit.DeferralCheck);
  
  /* Write to ETHERNET MACCR */
  (heth->Instance)->MACCR = (uint32_t)tmpreg1;
 8000b70:	6013      	str	r3, [r2, #0]
  
  /* Wait until the write operation will be taken into account:
     at least four TX_CLK/RX_CLK clock cycles */
  tmpreg1 = (heth->Instance)->MACCR;
  HAL_Delay(ETH_REG_WRITE_DELAY);
 8000b72:	2001      	movs	r0, #1
  tmpreg1 = (heth->Instance)->MACCR;
 8000b74:	6815      	ldr	r5, [r2, #0]
  HAL_Delay(ETH_REG_WRITE_DELAY);
 8000b76:	f7ff fd11 	bl	800059c <HAL_Delay>
  (heth->Instance)->MACCR = tmpreg1; 
 8000b7a:	6823      	ldr	r3, [r4, #0]
  /* Set the DAIF bit according to ETH DestinationAddrFilter value */
  /* Set the PR bit according to ETH PromiscuousMode value */
  /* Set the PM, HMC and HPF bits according to ETH MulticastFramesFilter value */
  /* Set the HUC and HPF bits according to ETH UnicastFramesFilter value */
  /* Write to ETHERNET MACFFR */  
  (heth->Instance)->MACFFR = (uint32_t)(macinit.ReceiveAll | 
 8000b7c:	2240      	movs	r2, #64	; 0x40
  (heth->Instance)->MACCR = tmpreg1; 
 8000b7e:	601d      	str	r5, [r3, #0]
                                        macinit.UnicastFramesFilter);
   
   /* Wait until the write operation will be taken into account:
      at least four TX_CLK/RX_CLK clock cycles */
   tmpreg1 = (heth->Instance)->MACFFR;
   HAL_Delay(ETH_REG_WRITE_DELAY);
 8000b80:	2001      	movs	r0, #1
  (heth->Instance)->MACFFR = (uint32_t)(macinit.ReceiveAll | 
 8000b82:	605a      	str	r2, [r3, #4]
   tmpreg1 = (heth->Instance)->MACFFR;
 8000b84:	685d      	ldr	r5, [r3, #4]
   HAL_Delay(ETH_REG_WRITE_DELAY);
 8000b86:	f7ff fd09 	bl	800059c <HAL_Delay>
   (heth->Instance)->MACFFR = tmpreg1;
 8000b8a:	6823      	ldr	r3, [r4, #0]
 8000b8c:	605d      	str	r5, [r3, #4]
   
   /*--------------- ETHERNET MACHTHR and MACHTLR Configuration --------------*/
   /* Write to ETHERNET MACHTHR */
   (heth->Instance)->MACHTHR = (uint32_t)macinit.HashTableHigh;
 8000b8e:	2500      	movs	r5, #0
 8000b90:	609d      	str	r5, [r3, #8]
   
   /* Write to ETHERNET MACHTLR */
   (heth->Instance)->MACHTLR = (uint32_t)macinit.HashTableLow;
 8000b92:	60dd      	str	r5, [r3, #12]
   /*----------------------- ETHERNET MACFCR Configuration -------------------*/
   
   /* Get the ETHERNET MACFCR value */  
   tmpreg1 = (heth->Instance)->MACFCR;
 8000b94:	699a      	ldr	r2, [r3, #24]
   /* Clear xx bits */
   tmpreg1 &= ETH_MACFCR_CLEAR_MASK;
 8000b96:	f022 02be 	bic.w	r2, r2, #190	; 0xbe
 8000b9a:	0412      	lsls	r2, r2, #16
 8000b9c:	0c12      	lsrs	r2, r2, #16
   /* Set the DZPQ bit according to ETH ZeroQuantaPause value */
   /* Set the PLT bit according to ETH PauseLowThreshold value */
   /* Set the UP bit according to ETH UnicastPauseFrameDetect value */
   /* Set the RFE bit according to ETH ReceiveFlowControl value */
   /* Set the TFE bit according to ETH TransmitFlowControl value */ 
   tmpreg1 |= (uint32_t)((macinit.PauseTime << 16U) | 
 8000b9e:	f042 0280 	orr.w	r2, r2, #128	; 0x80
                        macinit.UnicastPauseFrameDetect | 
                        macinit.ReceiveFlowControl |
                        macinit.TransmitFlowControl); 
   
   /* Write to ETHERNET MACFCR */
   (heth->Instance)->MACFCR = (uint32_t)tmpreg1;
 8000ba2:	619a      	str	r2, [r3, #24]
   
   /* Wait until the write operation will be taken into account:
   at least four TX_CLK/RX_CLK clock cycles */
   tmpreg1 = (heth->Instance)->MACFCR;
   HAL_Delay(ETH_REG_WRITE_DELAY);
 8000ba4:	2001      	movs	r0, #1
   tmpreg1 = (heth->Instance)->MACFCR;
 8000ba6:	699e      	ldr	r6, [r3, #24]
   HAL_Delay(ETH_REG_WRITE_DELAY);
 8000ba8:	f7ff fcf8 	bl	800059c <HAL_Delay>
   (heth->Instance)->MACFCR = tmpreg1;
 8000bac:	6823      	ldr	r3, [r4, #0]
                                            macinit.VLANTagIdentifier);
    
    /* Wait until the write operation will be taken into account:
       at least four TX_CLK/RX_CLK clock cycles */
    tmpreg1 = (heth->Instance)->MACVLANTR;
    HAL_Delay(ETH_REG_WRITE_DELAY);
 8000bae:	2001      	movs	r0, #1
   (heth->Instance)->MACFCR = tmpreg1;
 8000bb0:	619e      	str	r6, [r3, #24]
   (heth->Instance)->MACVLANTR = (uint32_t)(macinit.VLANTagComparison | 
 8000bb2:	61dd      	str	r5, [r3, #28]
    tmpreg1 = (heth->Instance)->MACVLANTR;
 8000bb4:	69dd      	ldr	r5, [r3, #28]
    HAL_Delay(ETH_REG_WRITE_DELAY);
 8000bb6:	f7ff fcf1 	bl	800059c <HAL_Delay>
    (heth->Instance)->MACVLANTR = tmpreg1;
 8000bba:	6822      	ldr	r2, [r4, #0]
    dmainit.DMAArbitration = ETH_DMAARBITRATION_ROUNDROBIN_RXTX_1_1;
    
    /* Get the ETHERNET DMAOMR value */
    tmpreg1 = (heth->Instance)->DMAOMR;
    /* Clear xx bits */
    tmpreg1 &= ETH_DMAOMR_CLEAR_MASK;
 8000bbc:	4b18      	ldr	r3, [pc, #96]	; (8000c20 <ETH_MACDMAConfig+0xe8>)
    (heth->Instance)->MACVLANTR = tmpreg1;
 8000bbe:	61d5      	str	r5, [r2, #28]
    tmpreg1 = (heth->Instance)->DMAOMR;
 8000bc0:	f241 0518 	movw	r5, #4120	; 0x1018
    (heth->Instance)->DMAOMR = (uint32_t)tmpreg1;
    
    /* Wait until the write operation will be taken into account:
       at least four TX_CLK/RX_CLK clock cycles */
    tmpreg1 = (heth->Instance)->DMAOMR;
    HAL_Delay(ETH_REG_WRITE_DELAY);
 8000bc4:	2001      	movs	r0, #1
    tmpreg1 = (heth->Instance)->DMAOMR;
 8000bc6:	5951      	ldr	r1, [r2, r5]
    tmpreg1 &= ETH_DMAOMR_CLEAR_MASK;
 8000bc8:	400b      	ands	r3, r1
    tmpreg1 |= (uint32_t)(dmainit.DropTCPIPChecksumErrorFrame | 
 8000bca:	f043 7308 	orr.w	r3, r3, #35651584	; 0x2200000
 8000bce:	f043 0304 	orr.w	r3, r3, #4
    (heth->Instance)->DMAOMR = (uint32_t)tmpreg1;
 8000bd2:	5153      	str	r3, [r2, r5]
    tmpreg1 = (heth->Instance)->DMAOMR;
 8000bd4:	5956      	ldr	r6, [r2, r5]
    HAL_Delay(ETH_REG_WRITE_DELAY);
 8000bd6:	f7ff fce1 	bl	800059c <HAL_Delay>
    (heth->Instance)->DMAOMR = tmpreg1;
 8000bda:	6823      	ldr	r3, [r4, #0]
    /* Set the RPBL and 4*PBL bits according to ETH RxDMABurstLength value */
    /* Set the PBL and 4*PBL bits according to ETH TxDMABurstLength value */
    /* Set the Enhanced DMA descriptors bit according to ETH EnhancedDescriptorFormat value*/
    /* Set the DSL bit according to ETH DesciptorSkipLength value */
    /* Set the PR and DA bits according to ETH DMAArbitration value */
    (heth->Instance)->DMABMR = (uint32_t)(dmainit.AddressAlignedBeats | 
 8000bdc:	4a11      	ldr	r2, [pc, #68]	; (8000c24 <ETH_MACDMAConfig+0xec>)
    (heth->Instance)->DMAOMR = tmpreg1;
 8000bde:	515e      	str	r6, [r3, r5]
    (heth->Instance)->DMABMR = (uint32_t)(dmainit.AddressAlignedBeats | 
 8000be0:	f503 5380 	add.w	r3, r3, #4096	; 0x1000
                                          ETH_DMABMR_USP); /* Enable use of separate PBL for Rx and Tx */
     
     /* Wait until the write operation will be taken into account:
        at least four TX_CLK/RX_CLK clock cycles */
     tmpreg1 = (heth->Instance)->DMABMR;
     HAL_Delay(ETH_REG_WRITE_DELAY);
 8000be4:	2001      	movs	r0, #1
    (heth->Instance)->DMABMR = (uint32_t)(dmainit.AddressAlignedBeats | 
 8000be6:	601a      	str	r2, [r3, #0]
     tmpreg1 = (heth->Instance)->DMABMR;
 8000be8:	681d      	ldr	r5, [r3, #0]
     HAL_Delay(ETH_REG_WRITE_DELAY);
 8000bea:	f7ff fcd7 	bl	800059c <HAL_Delay>
     (heth->Instance)->DMABMR = tmpreg1;
 8000bee:	6822      	ldr	r2, [r4, #0]
 8000bf0:	f502 5380 	add.w	r3, r2, #4096	; 0x1000
 8000bf4:	601d      	str	r5, [r3, #0]

     if((heth->Init).RxMode == ETH_RXINTERRUPT_MODE)
 8000bf6:	69a3      	ldr	r3, [r4, #24]
 8000bf8:	2b01      	cmp	r3, #1
 8000bfa:	d107      	bne.n	8000c0c <ETH_MACDMAConfig+0xd4>
     {
       /* Enable the Ethernet Rx Interrupt */
       __HAL_ETH_DMA_ENABLE_IT((heth), ETH_DMA_IT_NIS | ETH_DMA_IT_R);
 8000bfc:	f241 011c 	movw	r1, #4124	; 0x101c
 8000c00:	5853      	ldr	r3, [r2, r1]
 8000c02:	f443 3380 	orr.w	r3, r3, #65536	; 0x10000
 8000c06:	f043 0340 	orr.w	r3, r3, #64	; 0x40
 8000c0a:	5053      	str	r3, [r2, r1]
     }

     /* Initialize MAC address in ethernet MAC */ 
     ETH_MACAddressConfig(heth, ETH_MAC_ADDRESS0, heth->Init.MACAddr);
 8000c0c:	6963      	ldr	r3, [r4, #20]
  assert_param(IS_ETH_MAC_ADDRESS0123(MacAddr));
  
  /* Calculate the selected MAC address high register */
  tmpreg1 = ((uint32_t)Addr[5U] << 8U) | (uint32_t)Addr[4U];
  /* Load the selected MAC address high register */
  (*(__IO uint32_t *)((uint32_t)(ETH_MAC_ADDR_HBASE + MacAddr))) = tmpreg1;
 8000c0e:	4a06      	ldr	r2, [pc, #24]	; (8000c28 <ETH_MACDMAConfig+0xf0>)
  tmpreg1 = ((uint32_t)Addr[5U] << 8U) | (uint32_t)Addr[4U];
 8000c10:	8899      	ldrh	r1, [r3, #4]
  (*(__IO uint32_t *)((uint32_t)(ETH_MAC_ADDR_HBASE + MacAddr))) = tmpreg1;
 8000c12:	6011      	str	r1, [r2, #0]
  /* Calculate the selected MAC address low register */
  tmpreg1 = ((uint32_t)Addr[3U] << 24U) | ((uint32_t)Addr[2U] << 16U) | ((uint32_t)Addr[1U] << 8U) | Addr[0U];
 8000c14:	681a      	ldr	r2, [r3, #0]
  
  /* Load the selected MAC address low register */
  (*(__IO uint32_t *)((uint32_t)(ETH_MAC_ADDR_LBASE + MacAddr))) = tmpreg1;
 8000c16:	4b05      	ldr	r3, [pc, #20]	; (8000c2c <ETH_MACDMAConfig+0xf4>)
 8000c18:	601a      	str	r2, [r3, #0]
 8000c1a:	bd70      	pop	{r4, r5, r6, pc}
 8000c1c:	ff20810f 	.word	0xff20810f
 8000c20:	f8de3f23 	.word	0xf8de3f23
 8000c24:	02c12080 	.word	0x02c12080
 8000c28:	40028040 	.word	0x40028040
 8000c2c:	40028044 	.word	0x40028044

08000c30 <HAL_ETH_ReadPHYRegister>:
{
 8000c30:	b5f8      	push	{r3, r4, r5, r6, r7, lr}
  if(heth->State == HAL_ETH_STATE_BUSY_RD)
 8000c32:	f890 3044 	ldrb.w	r3, [r0, #68]	; 0x44
 8000c36:	2b82      	cmp	r3, #130	; 0x82
{
 8000c38:	4605      	mov	r5, r0
 8000c3a:	4616      	mov	r6, r2
  if(heth->State == HAL_ETH_STATE_BUSY_RD)
 8000c3c:	d030      	beq.n	8000ca0 <HAL_ETH_ReadPHYRegister+0x70>
  tmpreg1 = heth->Instance->MACMIIAR;
 8000c3e:	6802      	ldr	r2, [r0, #0]
  heth->State = HAL_ETH_STATE_BUSY_RD;
 8000c40:	2382      	movs	r3, #130	; 0x82
 8000c42:	f880 3044 	strb.w	r3, [r0, #68]	; 0x44
  tmpreg1 = heth->Instance->MACMIIAR;
 8000c46:	6913      	ldr	r3, [r2, #16]
  tmpreg1 |=(((uint32_t)PHYReg<<6U) & ETH_MACMIIAR_MR);                   /* Set the PHY register address */
 8000c48:	0189      	lsls	r1, r1, #6
 8000c4a:	f401 64f8 	and.w	r4, r1, #1984	; 0x7c0
  tmpreg1 &= ~ETH_MACMIIAR_CR_MASK;
 8000c4e:	f003 011c 	and.w	r1, r3, #28
 8000c52:	4321      	orrs	r1, r4
  tmpreg1 |=(((uint32_t)heth->Init.PhyAddress << 11U) & ETH_MACMIIAR_PA); /* Set the PHY device address   */
 8000c54:	8a04      	ldrh	r4, [r0, #16]
 8000c56:	02e4      	lsls	r4, r4, #11
 8000c58:	b2a4      	uxth	r4, r4
  tmpreg1 &= ~ETH_MACMIIAR_MW;                                            /* Set the read mode            */
 8000c5a:	430c      	orrs	r4, r1
  tmpreg1 |= ETH_MACMIIAR_MB;                                             /* Set the MII Busy bit         */
 8000c5c:	f044 0401 	orr.w	r4, r4, #1
  heth->Instance->MACMIIAR = tmpreg1;
 8000c60:	6114      	str	r4, [r2, #16]
  tickstart = HAL_GetTick();
 8000c62:	f7ff fc95 	bl	8000590 <HAL_GetTick>
 8000c66:	4607      	mov	r7, r0
  while((tmpreg1 & ETH_MACMIIAR_MB) == ETH_MACMIIAR_MB)
 8000c68:	f014 0001 	ands.w	r0, r4, #1
 8000c6c:	d107      	bne.n	8000c7e <HAL_ETH_ReadPHYRegister+0x4e>
  *RegValue = (uint16_t)(heth->Instance->MACMIIDR);
 8000c6e:	682b      	ldr	r3, [r5, #0]
 8000c70:	695b      	ldr	r3, [r3, #20]
 8000c72:	b29b      	uxth	r3, r3
 8000c74:	6033      	str	r3, [r6, #0]
  heth->State = HAL_ETH_STATE_READY;
 8000c76:	2301      	movs	r3, #1
 8000c78:	f885 3044 	strb.w	r3, [r5, #68]	; 0x44
 8000c7c:	bdf8      	pop	{r3, r4, r5, r6, r7, pc}
    if((HAL_GetTick() - tickstart ) > PHY_READ_TO)
 8000c7e:	f7ff fc87 	bl	8000590 <HAL_GetTick>
 8000c82:	1bc0      	subs	r0, r0, r7
 8000c84:	f5b0 3f80 	cmp.w	r0, #65536	; 0x10000
 8000c88:	d307      	bcc.n	8000c9a <HAL_ETH_ReadPHYRegister+0x6a>
      heth->State= HAL_ETH_STATE_READY;
 8000c8a:	2301      	movs	r3, #1
 8000c8c:	f885 3044 	strb.w	r3, [r5, #68]	; 0x44
      __HAL_UNLOCK(heth);
 8000c90:	2300      	movs	r3, #0
 8000c92:	f885 3045 	strb.w	r3, [r5, #69]	; 0x45
      return HAL_TIMEOUT;
 8000c96:	2003      	movs	r0, #3
 8000c98:	bdf8      	pop	{r3, r4, r5, r6, r7, pc}
    tmpreg1 = heth->Instance->MACMIIAR;
 8000c9a:	682b      	ldr	r3, [r5, #0]
 8000c9c:	691c      	ldr	r4, [r3, #16]
 8000c9e:	e7e3      	b.n	8000c68 <HAL_ETH_ReadPHYRegister+0x38>
    return HAL_BUSY;
 8000ca0:	2002      	movs	r0, #2
}
 8000ca2:	bdf8      	pop	{r3, r4, r5, r6, r7, pc}

08000ca4 <HAL_ETH_WritePHYRegister>:
  if(heth->State == HAL_ETH_STATE_BUSY_WR)
 8000ca4:	f890 3044 	ldrb.w	r3, [r0, #68]	; 0x44
 8000ca8:	2b42      	cmp	r3, #66	; 0x42
{
 8000caa:	b570      	push	{r4, r5, r6, lr}
 8000cac:	4605      	mov	r5, r0
  if(heth->State == HAL_ETH_STATE_BUSY_WR)
 8000cae:	d02e      	beq.n	8000d0e <HAL_ETH_WritePHYRegister+0x6a>
  heth->State = HAL_ETH_STATE_BUSY_WR;
 8000cb0:	2342      	movs	r3, #66	; 0x42
 8000cb2:	f880 3044 	strb.w	r3, [r0, #68]	; 0x44
  tmpreg1 = heth->Instance->MACMIIAR;
 8000cb6:	6803      	ldr	r3, [r0, #0]
  tmpreg1 |=(((uint32_t)PHYReg<<6U) & ETH_MACMIIAR_MR);                 /* Set the PHY register address */
 8000cb8:	018c      	lsls	r4, r1, #6
  tmpreg1 = heth->Instance->MACMIIAR;
 8000cba:	6918      	ldr	r0, [r3, #16]
  tmpreg1 |=(((uint32_t)PHYReg<<6U) & ETH_MACMIIAR_MR);                 /* Set the PHY register address */
 8000cbc:	f404 64f8 	and.w	r4, r4, #1984	; 0x7c0
 8000cc0:	f044 0403 	orr.w	r4, r4, #3
  tmpreg1 &= ~ETH_MACMIIAR_CR_MASK;
 8000cc4:	f000 001c 	and.w	r0, r0, #28
 8000cc8:	4320      	orrs	r0, r4
  tmpreg1 |=(((uint32_t)heth->Init.PhyAddress<<11U) & ETH_MACMIIAR_PA); /* Set the PHY device address */
 8000cca:	8a2c      	ldrh	r4, [r5, #16]
 8000ccc:	02e4      	lsls	r4, r4, #11
 8000cce:	b2a4      	uxth	r4, r4
  tmpreg1 |= ETH_MACMIIAR_MB;                                           /* Set the MII Busy bit */
 8000cd0:	4304      	orrs	r4, r0
 8000cd2:	b292      	uxth	r2, r2
  heth->Instance->MACMIIDR = (uint16_t)RegValue;
 8000cd4:	615a      	str	r2, [r3, #20]
  heth->Instance->MACMIIAR = tmpreg1;
 8000cd6:	611c      	str	r4, [r3, #16]
  tickstart = HAL_GetTick();
 8000cd8:	f7ff fc5a 	bl	8000590 <HAL_GetTick>
 8000cdc:	4606      	mov	r6, r0
  while((tmpreg1 & ETH_MACMIIAR_MB) == ETH_MACMIIAR_MB)
 8000cde:	f014 0001 	ands.w	r0, r4, #1
 8000ce2:	d103      	bne.n	8000cec <HAL_ETH_WritePHYRegister+0x48>
  heth->State = HAL_ETH_STATE_READY;
 8000ce4:	2301      	movs	r3, #1
 8000ce6:	f885 3044 	strb.w	r3, [r5, #68]	; 0x44
 8000cea:	bd70      	pop	{r4, r5, r6, pc}
    if((HAL_GetTick() - tickstart ) > PHY_WRITE_TO)
 8000cec:	f7ff fc50 	bl	8000590 <HAL_GetTick>
 8000cf0:	1b80      	subs	r0, r0, r6
 8000cf2:	f5b0 3f80 	cmp.w	r0, #65536	; 0x10000
 8000cf6:	d307      	bcc.n	8000d08 <HAL_ETH_WritePHYRegister+0x64>
      heth->State= HAL_ETH_STATE_READY;
 8000cf8:	2301      	movs	r3, #1
 8000cfa:	f885 3044 	strb.w	r3, [r5, #68]	; 0x44
      __HAL_UNLOCK(heth);
 8000cfe:	2300      	movs	r3, #0
 8000d00:	f885 3045 	strb.w	r3, [r5, #69]	; 0x45
      return HAL_TIMEOUT;
 8000d04:	2003      	movs	r0, #3
 8000d06:	bd70      	pop	{r4, r5, r6, pc}
    tmpreg1 = heth->Instance->MACMIIAR;
 8000d08:	682b      	ldr	r3, [r5, #0]
 8000d0a:	691c      	ldr	r4, [r3, #16]
 8000d0c:	e7e7      	b.n	8000cde <HAL_ETH_WritePHYRegister+0x3a>
    return HAL_BUSY;
 8000d0e:	2002      	movs	r0, #2
}
 8000d10:	bd70      	pop	{r4, r5, r6, pc}
	...

08000d14 <HAL_ETH_Init>:
{
 8000d14:	b5f7      	push	{r0, r1, r2, r4, r5, r6, r7, lr}
  uint32_t tmpreg1 = 0U, phyreg = 0U;
 8000d16:	2300      	movs	r3, #0
 8000d18:	9300      	str	r3, [sp, #0]
  if(heth == NULL)
 8000d1a:	4604      	mov	r4, r0
 8000d1c:	2800      	cmp	r0, #0
 8000d1e:	f000 80de 	beq.w	8000ede <HAL_ETH_Init+0x1ca>
  if(heth->State == HAL_ETH_STATE_RESET)
 8000d22:	f890 3044 	ldrb.w	r3, [r0, #68]	; 0x44
 8000d26:	f003 02ff 	and.w	r2, r3, #255	; 0xff
 8000d2a:	b91b      	cbnz	r3, 8000d34 <HAL_ETH_Init+0x20>
    heth->Lock = HAL_UNLOCKED;
 8000d2c:	f880 2045 	strb.w	r2, [r0, #69]	; 0x45
    HAL_ETH_MspInit(heth);
 8000d30:	f002 ff42 	bl	8003bb8 <HAL_ETH_MspInit>
  __HAL_RCC_SYSCFG_CLK_ENABLE();
 8000d34:	2300      	movs	r3, #0
 8000d36:	9301      	str	r3, [sp, #4]
 8000d38:	4b6a      	ldr	r3, [pc, #424]	; (8000ee4 <HAL_ETH_Init+0x1d0>)
 8000d3a:	6c5a      	ldr	r2, [r3, #68]	; 0x44
 8000d3c:	f442 4280 	orr.w	r2, r2, #16384	; 0x4000
 8000d40:	645a      	str	r2, [r3, #68]	; 0x44
 8000d42:	6c5b      	ldr	r3, [r3, #68]	; 0x44
 8000d44:	f403 4380 	and.w	r3, r3, #16384	; 0x4000
 8000d48:	9301      	str	r3, [sp, #4]
 8000d4a:	9b01      	ldr	r3, [sp, #4]
  SYSCFG->PMC &= ~(SYSCFG_PMC_MII_RMII_SEL);
 8000d4c:	4b66      	ldr	r3, [pc, #408]	; (8000ee8 <HAL_ETH_Init+0x1d4>)
 8000d4e:	685a      	ldr	r2, [r3, #4]
 8000d50:	f422 0200 	bic.w	r2, r2, #8388608	; 0x800000
 8000d54:	605a      	str	r2, [r3, #4]
  SYSCFG->PMC |= (uint32_t)heth->Init.MediaInterface;
 8000d56:	685a      	ldr	r2, [r3, #4]
 8000d58:	6a21      	ldr	r1, [r4, #32]
 8000d5a:	430a      	orrs	r2, r1
 8000d5c:	605a      	str	r2, [r3, #4]
  (heth->Instance)->DMABMR |= ETH_DMABMR_SR;
 8000d5e:	6823      	ldr	r3, [r4, #0]
 8000d60:	f503 5380 	add.w	r3, r3, #4096	; 0x1000
 8000d64:	681a      	ldr	r2, [r3, #0]
 8000d66:	f042 0201 	orr.w	r2, r2, #1
 8000d6a:	601a      	str	r2, [r3, #0]
  tickstart = HAL_GetTick();
 8000d6c:	f7ff fc10 	bl	8000590 <HAL_GetTick>
 8000d70:	4605      	mov	r5, r0
  while (((heth->Instance)->DMABMR & ETH_DMABMR_SR) != (uint32_t)RESET)
 8000d72:	6823      	ldr	r3, [r4, #0]
 8000d74:	f503 5280 	add.w	r2, r3, #4096	; 0x1000
 8000d78:	6812      	ldr	r2, [r2, #0]
 8000d7a:	07d0      	lsls	r0, r2, #31
 8000d7c:	d41d      	bmi.n	8000dba <HAL_ETH_Init+0xa6>
  tmpreg1 = (heth->Instance)->MACMIIAR;
 8000d7e:	691d      	ldr	r5, [r3, #16]
  hclk = HAL_RCC_GetHCLKFreq();
 8000d80:	f000 fc9a 	bl	80016b8 <HAL_RCC_GetHCLKFreq>
  if((hclk >= 20000000U)&&(hclk < 35000000U))
 8000d84:	4b59      	ldr	r3, [pc, #356]	; (8000eec <HAL_ETH_Init+0x1d8>)
 8000d86:	4a5a      	ldr	r2, [pc, #360]	; (8000ef0 <HAL_ETH_Init+0x1dc>)
 8000d88:	4403      	add	r3, r0
 8000d8a:	4293      	cmp	r3, r2
  tmpreg1 &= ETH_MACMIIAR_CR_MASK;
 8000d8c:	f025 051c 	bic.w	r5, r5, #28
  if((hclk >= 20000000U)&&(hclk < 35000000U))
 8000d90:	d822      	bhi.n	8000dd8 <HAL_ETH_Init+0xc4>
    tmpreg1 |= (uint32_t)ETH_MACMIIAR_CR_Div16;
 8000d92:	f045 0508 	orr.w	r5, r5, #8
  (heth->Instance)->MACMIIAR = (uint32_t)tmpreg1;
 8000d96:	6823      	ldr	r3, [r4, #0]
  if((HAL_ETH_WritePHYRegister(heth, PHY_BCR, PHY_RESET)) != HAL_OK)
 8000d98:	f44f 4200 	mov.w	r2, #32768	; 0x8000
  (heth->Instance)->MACMIIAR = (uint32_t)tmpreg1;
 8000d9c:	611d      	str	r5, [r3, #16]
  if((HAL_ETH_WritePHYRegister(heth, PHY_BCR, PHY_RESET)) != HAL_OK)
 8000d9e:	2100      	movs	r1, #0
 8000da0:	4620      	mov	r0, r4
 8000da2:	f7ff ff7f 	bl	8000ca4 <HAL_ETH_WritePHYRegister>
 8000da6:	4605      	mov	r5, r0
 8000da8:	b368      	cbz	r0, 8000e06 <HAL_ETH_Init+0xf2>
      ETH_MACDMAConfig(heth, err);
 8000daa:	2101      	movs	r1, #1
 8000dac:	4620      	mov	r0, r4
      heth->State = HAL_ETH_STATE_READY;
 8000dae:	2501      	movs	r5, #1
      ETH_MACDMAConfig(heth, err);
 8000db0:	f7ff fec2 	bl	8000b38 <ETH_MACDMAConfig>
      heth->State = HAL_ETH_STATE_READY;
 8000db4:	f884 5044 	strb.w	r5, [r4, #68]	; 0x44
      return HAL_ERROR;
 8000db8:	e00b      	b.n	8000dd2 <HAL_ETH_Init+0xbe>
    if((HAL_GetTick() - tickstart ) > ETH_TIMEOUT_SWRESET)
 8000dba:	f7ff fbe9 	bl	8000590 <HAL_GetTick>
 8000dbe:	1b40      	subs	r0, r0, r5
 8000dc0:	f5b0 7ffa 	cmp.w	r0, #500	; 0x1f4
 8000dc4:	d9d5      	bls.n	8000d72 <HAL_ETH_Init+0x5e>
      heth->State= HAL_ETH_STATE_TIMEOUT;
 8000dc6:	2503      	movs	r5, #3
      __HAL_UNLOCK(heth);
 8000dc8:	2300      	movs	r3, #0
      heth->State= HAL_ETH_STATE_TIMEOUT;
 8000dca:	f884 5044 	strb.w	r5, [r4, #68]	; 0x44
      __HAL_UNLOCK(heth);
 8000dce:	f884 3045 	strb.w	r3, [r4, #69]	; 0x45
}
 8000dd2:	4628      	mov	r0, r5
 8000dd4:	b003      	add	sp, #12
 8000dd6:	bdf0      	pop	{r4, r5, r6, r7, pc}
  else if((hclk >= 35000000U)&&(hclk < 60000000U))
 8000dd8:	4b46      	ldr	r3, [pc, #280]	; (8000ef4 <HAL_ETH_Init+0x1e0>)
 8000dda:	4a47      	ldr	r2, [pc, #284]	; (8000ef8 <HAL_ETH_Init+0x1e4>)
 8000ddc:	4403      	add	r3, r0
 8000dde:	4293      	cmp	r3, r2
 8000de0:	d802      	bhi.n	8000de8 <HAL_ETH_Init+0xd4>
    tmpreg1 |= (uint32_t)ETH_MACMIIAR_CR_Div26;
 8000de2:	f045 050c 	orr.w	r5, r5, #12
 8000de6:	e7d6      	b.n	8000d96 <HAL_ETH_Init+0x82>
  else if((hclk >= 60000000U)&&(hclk < 100000000U))
 8000de8:	4b44      	ldr	r3, [pc, #272]	; (8000efc <HAL_ETH_Init+0x1e8>)
 8000dea:	4a45      	ldr	r2, [pc, #276]	; (8000f00 <HAL_ETH_Init+0x1ec>)
 8000dec:	4403      	add	r3, r0
 8000dee:	4293      	cmp	r3, r2
 8000df0:	d9d1      	bls.n	8000d96 <HAL_ETH_Init+0x82>
  else if((hclk >= 100000000U)&&(hclk < 150000000U))
 8000df2:	4b44      	ldr	r3, [pc, #272]	; (8000f04 <HAL_ETH_Init+0x1f0>)
 8000df4:	4a44      	ldr	r2, [pc, #272]	; (8000f08 <HAL_ETH_Init+0x1f4>)
 8000df6:	4403      	add	r3, r0
 8000df8:	4293      	cmp	r3, r2
    tmpreg1 |= (uint32_t)ETH_MACMIIAR_CR_Div62;
 8000dfa:	bf94      	ite	ls
 8000dfc:	f045 0504 	orrls.w	r5, r5, #4
    tmpreg1 |= (uint32_t)ETH_MACMIIAR_CR_Div102;    
 8000e00:	f045 0510 	orrhi.w	r5, r5, #16
 8000e04:	e7c7      	b.n	8000d96 <HAL_ETH_Init+0x82>
  HAL_Delay(PHY_RESET_DELAY);
 8000e06:	20ff      	movs	r0, #255	; 0xff
 8000e08:	f7ff fbc8 	bl	800059c <HAL_Delay>
  if((heth->Init).AutoNegotiation != ETH_AUTONEGOTIATION_DISABLE)
 8000e0c:	6863      	ldr	r3, [r4, #4]
 8000e0e:	2b00      	cmp	r3, #0
 8000e10:	d053      	beq.n	8000eba <HAL_ETH_Init+0x1a6>
    tickstart = HAL_GetTick();
 8000e12:	f7ff fbbd 	bl	8000590 <HAL_GetTick>
      if((HAL_GetTick() - tickstart ) > ETH_TIMEOUT_LINKED_STATE)
 8000e16:	f241 3788 	movw	r7, #5000	; 0x1388
    tickstart = HAL_GetTick();
 8000e1a:	4606      	mov	r6, r0
      HAL_ETH_ReadPHYRegister(heth, PHY_BSR, &phyreg);
 8000e1c:	466a      	mov	r2, sp
 8000e1e:	2101      	movs	r1, #1
 8000e20:	4620      	mov	r0, r4
 8000e22:	f7ff ff05 	bl	8000c30 <HAL_ETH_ReadPHYRegister>
      if((HAL_GetTick() - tickstart ) > ETH_TIMEOUT_LINKED_STATE)
 8000e26:	f7ff fbb3 	bl	8000590 <HAL_GetTick>
 8000e2a:	1b80      	subs	r0, r0, r6
 8000e2c:	42b8      	cmp	r0, r7
 8000e2e:	d90b      	bls.n	8000e48 <HAL_ETH_Init+0x134>
        ETH_MACDMAConfig(heth, err);
 8000e30:	2101      	movs	r1, #1
 8000e32:	4620      	mov	r0, r4
 8000e34:	f7ff fe80 	bl	8000b38 <ETH_MACDMAConfig>
        heth->State= HAL_ETH_STATE_READY;
 8000e38:	2301      	movs	r3, #1
 8000e3a:	f884 3044 	strb.w	r3, [r4, #68]	; 0x44
        __HAL_UNLOCK(heth);
 8000e3e:	2300      	movs	r3, #0
 8000e40:	f884 3045 	strb.w	r3, [r4, #69]	; 0x45
        return HAL_TIMEOUT;
 8000e44:	2503      	movs	r5, #3
 8000e46:	e7c4      	b.n	8000dd2 <HAL_ETH_Init+0xbe>
    } while (((phyreg & PHY_LINKED_STATUS) != PHY_LINKED_STATUS));
 8000e48:	9b00      	ldr	r3, [sp, #0]
 8000e4a:	0759      	lsls	r1, r3, #29
 8000e4c:	d5e6      	bpl.n	8000e1c <HAL_ETH_Init+0x108>
    if((HAL_ETH_WritePHYRegister(heth, PHY_BCR, PHY_AUTONEGOTIATION)) != HAL_OK)
 8000e4e:	f44f 5280 	mov.w	r2, #4096	; 0x1000
 8000e52:	2100      	movs	r1, #0
 8000e54:	4620      	mov	r0, r4
 8000e56:	f7ff ff25 	bl	8000ca4 <HAL_ETH_WritePHYRegister>
 8000e5a:	2800      	cmp	r0, #0
 8000e5c:	d1a5      	bne.n	8000daa <HAL_ETH_Init+0x96>
    tickstart = HAL_GetTick();
 8000e5e:	f7ff fb97 	bl	8000590 <HAL_GetTick>
      if((HAL_GetTick() - tickstart ) > ETH_TIMEOUT_AUTONEGO_COMPLETED)
 8000e62:	f241 3788 	movw	r7, #5000	; 0x1388
    tickstart = HAL_GetTick();
 8000e66:	4606      	mov	r6, r0
      HAL_ETH_ReadPHYRegister(heth, PHY_BSR, &phyreg);
 8000e68:	466a      	mov	r2, sp
 8000e6a:	2101      	movs	r1, #1
 8000e6c:	4620      	mov	r0, r4
 8000e6e:	f7ff fedf 	bl	8000c30 <HAL_ETH_ReadPHYRegister>
      if((HAL_GetTick() - tickstart ) > ETH_TIMEOUT_AUTONEGO_COMPLETED)
 8000e72:	f7ff fb8d 	bl	8000590 <HAL_GetTick>
 8000e76:	1b80      	subs	r0, r0, r6
 8000e78:	42b8      	cmp	r0, r7
 8000e7a:	d8d9      	bhi.n	8000e30 <HAL_ETH_Init+0x11c>
    } while (((phyreg & PHY_AUTONEGO_COMPLETE) != PHY_AUTONEGO_COMPLETE));
 8000e7c:	9b00      	ldr	r3, [sp, #0]
 8000e7e:	069a      	lsls	r2, r3, #26
 8000e80:	d5f2      	bpl.n	8000e68 <HAL_ETH_Init+0x154>
    if((HAL_ETH_ReadPHYRegister(heth, PHY_SR, &phyreg)) != HAL_OK)
 8000e82:	466a      	mov	r2, sp
 8000e84:	211f      	movs	r1, #31
 8000e86:	4620      	mov	r0, r4
 8000e88:	f7ff fed2 	bl	8000c30 <HAL_ETH_ReadPHYRegister>
 8000e8c:	2800      	cmp	r0, #0
 8000e8e:	d18c      	bne.n	8000daa <HAL_ETH_Init+0x96>
    if((phyreg & PHY_DUPLEX_STATUS) != (uint32_t)RESET)
 8000e90:	9b00      	ldr	r3, [sp, #0]
 8000e92:	f013 0210 	ands.w	r2, r3, #16
      (heth->Init).DuplexMode = ETH_MODE_FULLDUPLEX;  
 8000e96:	bf18      	it	ne
 8000e98:	f44f 6200 	movne.w	r2, #2048	; 0x800
    if((phyreg & PHY_SPEED_STATUS) == PHY_SPEED_STATUS)
 8000e9c:	075b      	lsls	r3, r3, #29
      (heth->Init).Speed = ETH_SPEED_10M; 
 8000e9e:	bf4c      	ite	mi
 8000ea0:	2300      	movmi	r3, #0
      (heth->Init).Speed = ETH_SPEED_100M;
 8000ea2:	f44f 4380 	movpl.w	r3, #16384	; 0x4000
      (heth->Init).DuplexMode = ETH_MODE_HALFDUPLEX;           
 8000ea6:	60e2      	str	r2, [r4, #12]
      (heth->Init).Speed = ETH_SPEED_100M;
 8000ea8:	60a3      	str	r3, [r4, #8]
  ETH_MACDMAConfig(heth, err);
 8000eaa:	2100      	movs	r1, #0
 8000eac:	4620      	mov	r0, r4
 8000eae:	f7ff fe43 	bl	8000b38 <ETH_MACDMAConfig>
  heth->State= HAL_ETH_STATE_READY;
 8000eb2:	2301      	movs	r3, #1
 8000eb4:	f884 3044 	strb.w	r3, [r4, #68]	; 0x44
  return HAL_OK;
 8000eb8:	e78b      	b.n	8000dd2 <HAL_ETH_Init+0xbe>
                                                (uint16_t)((heth->Init).Speed >> 1U))) != HAL_OK)
 8000eba:	68a3      	ldr	r3, [r4, #8]
    if(HAL_ETH_WritePHYRegister(heth, PHY_BCR, ((uint16_t)((heth->Init).DuplexMode >> 3U) |
 8000ebc:	68e2      	ldr	r2, [r4, #12]
                                                (uint16_t)((heth->Init).Speed >> 1U))) != HAL_OK)
 8000ebe:	085b      	lsrs	r3, r3, #1
    if(HAL_ETH_WritePHYRegister(heth, PHY_BCR, ((uint16_t)((heth->Init).DuplexMode >> 3U) |
 8000ec0:	ea43 02d2 	orr.w	r2, r3, r2, lsr #3
 8000ec4:	b292      	uxth	r2, r2
 8000ec6:	4629      	mov	r1, r5
 8000ec8:	4620      	mov	r0, r4
 8000eca:	f7ff feeb 	bl	8000ca4 <HAL_ETH_WritePHYRegister>
 8000ece:	2800      	cmp	r0, #0
 8000ed0:	f47f af6b 	bne.w	8000daa <HAL_ETH_Init+0x96>
    HAL_Delay(PHY_CONFIG_DELAY);
 8000ed4:	f640 70ff 	movw	r0, #4095	; 0xfff
 8000ed8:	f7ff fb60 	bl	800059c <HAL_Delay>
 8000edc:	e7e5      	b.n	8000eaa <HAL_ETH_Init+0x196>
    return HAL_ERROR;
 8000ede:	2501      	movs	r5, #1
 8000ee0:	e777      	b.n	8000dd2 <HAL_ETH_Init+0xbe>
 8000ee2:	bf00      	nop
 8000ee4:	40023800 	.word	0x40023800
 8000ee8:	40013800 	.word	0x40013800
 8000eec:	feced300 	.word	0xfeced300
 8000ef0:	00e4e1bf 	.word	0x00e4e1bf
 8000ef4:	fde9f140 	.word	0xfde9f140
 8000ef8:	017d783f 	.word	0x017d783f
 8000efc:	fc6c7900 	.word	0xfc6c7900
 8000f00:	026259ff 	.word	0x026259ff
 8000f04:	fa0a1f00 	.word	0xfa0a1f00
 8000f08:	02faf07f 	.word	0x02faf07f

08000f0c <HAL_GPIO_Init>:
  * @param  GPIO_Init pointer to a GPIO_InitTypeDef structure that contains
  *         the configuration information for the specified GPIO peripheral.
  * @retval None
  */
void HAL_GPIO_Init(GPIO_TypeDef  *GPIOx, GPIO_InitTypeDef *GPIO_Init)
{
 8000f0c:	e92d 4ff0 	stmdb	sp!, {r4, r5, r6, r7, r8, r9, sl, fp, lr}
 8000f10:	b085      	sub	sp, #20
  for(position = 0U; position < GPIO_NUMBER; position++)
  {
    /* Get the IO position */
    ioposition = 0x01U << position;
    /* Get the current IO position */
    iocurrent = (uint32_t)(GPIO_Init->Pin) & ioposition;
 8000f12:	680b      	ldr	r3, [r1, #0]
      /*--------------------- EXTI Mode Configuration ------------------------*/
      /* Configure the External Interrupt or event for the current IO */
      if((GPIO_Init->Mode & EXTI_MODE) == EXTI_MODE)
      {
        /* Enable SYSCFG Clock */
        __HAL_RCC_SYSCFG_CLK_ENABLE();
 8000f14:	f8df 81c4 	ldr.w	r8, [pc, #452]	; 80010dc <HAL_GPIO_Init+0x1d0>
        temp &= ~(0x0FU << (4U * (position & 0x03U)));
        temp |= ((uint32_t)(GPIO_GET_INDEX(GPIOx)) << (4U * (position & 0x03U)));
        SYSCFG->EXTICR[position >> 2U] = temp;

        /* Clear EXTI line configuration */
        temp = EXTI->IMR;
 8000f18:	4a6e      	ldr	r2, [pc, #440]	; (80010d4 <HAL_GPIO_Init+0x1c8>)
        temp |= ((uint32_t)(GPIO_GET_INDEX(GPIOx)) << (4U * (position & 0x03U)));
 8000f1a:	f8df 91c4 	ldr.w	r9, [pc, #452]	; 80010e0 <HAL_GPIO_Init+0x1d4>
    iocurrent = (uint32_t)(GPIO_Init->Pin) & ioposition;
 8000f1e:	9301      	str	r3, [sp, #4]
  for(position = 0U; position < GPIO_NUMBER; position++)
 8000f20:	2300      	movs	r3, #0
    ioposition = 0x01U << position;
 8000f22:	f04f 0e01 	mov.w	lr, #1
    iocurrent = (uint32_t)(GPIO_Init->Pin) & ioposition;
 8000f26:	9c01      	ldr	r4, [sp, #4]
    ioposition = 0x01U << position;
 8000f28:	fa0e fe03 	lsl.w	lr, lr, r3
    iocurrent = (uint32_t)(GPIO_Init->Pin) & ioposition;
 8000f2c:	ea0e 0604 	and.w	r6, lr, r4
    if(iocurrent == ioposition)
 8000f30:	45b6      	cmp	lr, r6
 8000f32:	f040 80b6 	bne.w	80010a2 <HAL_GPIO_Init+0x196>
      if((GPIO_Init->Mode == GPIO_MODE_AF_PP) || (GPIO_Init->Mode == GPIO_MODE_AF_OD))
 8000f36:	684c      	ldr	r4, [r1, #4]
 8000f38:	f024 0710 	bic.w	r7, r4, #16
 8000f3c:	2f02      	cmp	r7, #2
 8000f3e:	d116      	bne.n	8000f6e <HAL_GPIO_Init+0x62>
        temp = GPIOx->AFR[position >> 3U];
 8000f40:	ea4f 0ad3 	mov.w	sl, r3, lsr #3
 8000f44:	eb00 0a8a 	add.w	sl, r0, sl, lsl #2
        temp &= ~(0xFU << ((uint32_t)(position & 0x07U) * 4U)) ;
 8000f48:	f003 0b07 	and.w	fp, r3, #7
        temp = GPIOx->AFR[position >> 3U];
 8000f4c:	f8da 5020 	ldr.w	r5, [sl, #32]
        temp &= ~(0xFU << ((uint32_t)(position & 0x07U) * 4U)) ;
 8000f50:	ea4f 0b8b 	mov.w	fp, fp, lsl #2
 8000f54:	f04f 0c0f 	mov.w	ip, #15
 8000f58:	fa0c fc0b 	lsl.w	ip, ip, fp
 8000f5c:	ea25 0c0c 	bic.w	ip, r5, ip
        temp |= ((uint32_t)(GPIO_Init->Alternate) << (((uint32_t)position & 0x07U) * 4U));
 8000f60:	690d      	ldr	r5, [r1, #16]
 8000f62:	fa05 f50b 	lsl.w	r5, r5, fp
 8000f66:	ea45 050c 	orr.w	r5, r5, ip
        GPIOx->AFR[position >> 3U] = temp;
 8000f6a:	f8ca 5020 	str.w	r5, [sl, #32]
 8000f6e:	ea4f 0a43 	mov.w	sl, r3, lsl #1
      temp &= ~(GPIO_MODER_MODER0 << (position * 2U));
 8000f72:	2503      	movs	r5, #3
      temp = GPIOx->MODER;
 8000f74:	f8d0 b000 	ldr.w	fp, [r0]
      temp &= ~(GPIO_MODER_MODER0 << (position * 2U));
 8000f78:	fa05 f50a 	lsl.w	r5, r5, sl
 8000f7c:	43ed      	mvns	r5, r5
      temp |= ((GPIO_Init->Mode & GPIO_MODE) << (position * 2U));
 8000f7e:	f004 0c03 	and.w	ip, r4, #3
      temp &= ~(GPIO_MODER_MODER0 << (position * 2U));
 8000f82:	ea0b 0b05 	and.w	fp, fp, r5
      temp |= ((GPIO_Init->Mode & GPIO_MODE) << (position * 2U));
 8000f86:	fa0c fc0a 	lsl.w	ip, ip, sl
      if((GPIO_Init->Mode == GPIO_MODE_OUTPUT_PP) || (GPIO_Init->Mode == GPIO_MODE_AF_PP) ||
 8000f8a:	3f01      	subs	r7, #1
      temp |= ((GPIO_Init->Mode & GPIO_MODE) << (position * 2U));
 8000f8c:	ea4c 0c0b 	orr.w	ip, ip, fp
      if((GPIO_Init->Mode == GPIO_MODE_OUTPUT_PP) || (GPIO_Init->Mode == GPIO_MODE_AF_PP) ||
 8000f90:	2f01      	cmp	r7, #1
      GPIOx->MODER = temp;
 8000f92:	f8c0 c000 	str.w	ip, [r0]
      if((GPIO_Init->Mode == GPIO_MODE_OUTPUT_PP) || (GPIO_Init->Mode == GPIO_MODE_AF_PP) ||
 8000f96:	d811      	bhi.n	8000fbc <HAL_GPIO_Init+0xb0>
        temp = GPIOx->OSPEEDR; 
 8000f98:	6887      	ldr	r7, [r0, #8]
        temp &= ~(GPIO_OSPEEDER_OSPEEDR0 << (position * 2U));
 8000f9a:	ea07 0b05 	and.w	fp, r7, r5
        temp |= (GPIO_Init->Speed << (position * 2U));
 8000f9e:	68cf      	ldr	r7, [r1, #12]
 8000fa0:	fa07 fc0a 	lsl.w	ip, r7, sl
 8000fa4:	ea4c 070b 	orr.w	r7, ip, fp
        GPIOx->OSPEEDR = temp;
 8000fa8:	6087      	str	r7, [r0, #8]
        temp = GPIOx->OTYPER;
 8000faa:	6847      	ldr	r7, [r0, #4]
        temp &= ~(GPIO_OTYPER_OT_0 << position) ;
 8000fac:	ea27 0e0e 	bic.w	lr, r7, lr
        temp |= (((GPIO_Init->Mode & GPIO_OUTPUT_TYPE) >> 4U) << position);
 8000fb0:	f3c4 1700 	ubfx	r7, r4, #4, #1
 8000fb4:	409f      	lsls	r7, r3
 8000fb6:	ea47 070e 	orr.w	r7, r7, lr
        GPIOx->OTYPER = temp;
 8000fba:	6047      	str	r7, [r0, #4]
      temp = GPIOx->PUPDR;
 8000fbc:	68c7      	ldr	r7, [r0, #12]
      temp &= ~(GPIO_PUPDR_PUPDR0 << (position * 2U));
 8000fbe:	403d      	ands	r5, r7
      temp |= ((GPIO_Init->Pull) << (position * 2U));
 8000fc0:	688f      	ldr	r7, [r1, #8]
 8000fc2:	fa07 f70a 	lsl.w	r7, r7, sl
 8000fc6:	433d      	orrs	r5, r7
      GPIOx->PUPDR = temp;
 8000fc8:	60c5      	str	r5, [r0, #12]
      if((GPIO_Init->Mode & EXTI_MODE) == EXTI_MODE)
 8000fca:	00e5      	lsls	r5, r4, #3
 8000fcc:	d569      	bpl.n	80010a2 <HAL_GPIO_Init+0x196>
        __HAL_RCC_SYSCFG_CLK_ENABLE();
 8000fce:	f04f 0b00 	mov.w	fp, #0
 8000fd2:	f8cd b00c 	str.w	fp, [sp, #12]
 8000fd6:	f8d8 7044 	ldr.w	r7, [r8, #68]	; 0x44
        temp |= ((uint32_t)(GPIO_GET_INDEX(GPIOx)) << (4U * (position & 0x03U)));
 8000fda:	4d3f      	ldr	r5, [pc, #252]	; (80010d8 <HAL_GPIO_Init+0x1cc>)
        __HAL_RCC_SYSCFG_CLK_ENABLE();
 8000fdc:	f447 4780 	orr.w	r7, r7, #16384	; 0x4000
 8000fe0:	f8c8 7044 	str.w	r7, [r8, #68]	; 0x44
 8000fe4:	f8d8 7044 	ldr.w	r7, [r8, #68]	; 0x44
 8000fe8:	f407 4780 	and.w	r7, r7, #16384	; 0x4000
 8000fec:	9703      	str	r7, [sp, #12]
 8000fee:	9f03      	ldr	r7, [sp, #12]
 8000ff0:	f023 0703 	bic.w	r7, r3, #3
 8000ff4:	f107 4780 	add.w	r7, r7, #1073741824	; 0x40000000
 8000ff8:	f507 379c 	add.w	r7, r7, #79872	; 0x13800
        temp &= ~(0x0FU << (4U * (position & 0x03U)));
 8000ffc:	f003 0c03 	and.w	ip, r3, #3
        temp = SYSCFG->EXTICR[position >> 2U];
 8001000:	f8d7 a008 	ldr.w	sl, [r7, #8]
        temp &= ~(0x0FU << (4U * (position & 0x03U)));
 8001004:	ea4f 0c8c 	mov.w	ip, ip, lsl #2
 8001008:	f04f 0e0f 	mov.w	lr, #15
 800100c:	fa0e fe0c 	lsl.w	lr, lr, ip
        temp |= ((uint32_t)(GPIO_GET_INDEX(GPIOx)) << (4U * (position & 0x03U)));
 8001010:	42a8      	cmp	r0, r5
        temp &= ~(0x0FU << (4U * (position & 0x03U)));
 8001012:	ea2a 0e0e 	bic.w	lr, sl, lr
        temp |= ((uint32_t)(GPIO_GET_INDEX(GPIOx)) << (4U * (position & 0x03U)));
 8001016:	d04b      	beq.n	80010b0 <HAL_GPIO_Init+0x1a4>
 8001018:	f505 6580 	add.w	r5, r5, #1024	; 0x400
 800101c:	42a8      	cmp	r0, r5
 800101e:	d049      	beq.n	80010b4 <HAL_GPIO_Init+0x1a8>
 8001020:	f505 6580 	add.w	r5, r5, #1024	; 0x400
 8001024:	42a8      	cmp	r0, r5
 8001026:	d047      	beq.n	80010b8 <HAL_GPIO_Init+0x1ac>
 8001028:	f505 6580 	add.w	r5, r5, #1024	; 0x400
 800102c:	42a8      	cmp	r0, r5
 800102e:	d045      	beq.n	80010bc <HAL_GPIO_Init+0x1b0>
 8001030:	f505 6580 	add.w	r5, r5, #1024	; 0x400
 8001034:	42a8      	cmp	r0, r5
 8001036:	d043      	beq.n	80010c0 <HAL_GPIO_Init+0x1b4>
 8001038:	4548      	cmp	r0, r9
 800103a:	d043      	beq.n	80010c4 <HAL_GPIO_Init+0x1b8>
 800103c:	f505 6500 	add.w	r5, r5, #2048	; 0x800
 8001040:	42a8      	cmp	r0, r5
 8001042:	d041      	beq.n	80010c8 <HAL_GPIO_Init+0x1bc>
 8001044:	f505 6580 	add.w	r5, r5, #1024	; 0x400
 8001048:	42a8      	cmp	r0, r5
 800104a:	d03f      	beq.n	80010cc <HAL_GPIO_Init+0x1c0>
 800104c:	f505 6580 	add.w	r5, r5, #1024	; 0x400
 8001050:	42a8      	cmp	r0, r5
 8001052:	d03d      	beq.n	80010d0 <HAL_GPIO_Init+0x1c4>
 8001054:	f505 6580 	add.w	r5, r5, #1024	; 0x400
 8001058:	42a8      	cmp	r0, r5
 800105a:	bf14      	ite	ne
 800105c:	250a      	movne	r5, #10
 800105e:	2509      	moveq	r5, #9
 8001060:	fa05 f50c 	lsl.w	r5, r5, ip
 8001064:	ea45 050e 	orr.w	r5, r5, lr
        SYSCFG->EXTICR[position >> 2U] = temp;
 8001068:	60bd      	str	r5, [r7, #8]
        temp = EXTI->IMR;
 800106a:	6815      	ldr	r5, [r2, #0]
        temp &= ~((uint32_t)iocurrent);
 800106c:	43f7      	mvns	r7, r6
        if((GPIO_Init->Mode & GPIO_MODE_IT) == GPIO_MODE_IT)
 800106e:	f414 3f80 	tst.w	r4, #65536	; 0x10000
        temp &= ~((uint32_t)iocurrent);
 8001072:	bf0c      	ite	eq
 8001074:	403d      	andeq	r5, r7
        {
          temp |= iocurrent;
 8001076:	4335      	orrne	r5, r6
        }
        EXTI->IMR = temp;
 8001078:	6015      	str	r5, [r2, #0]

        temp = EXTI->EMR;
 800107a:	6855      	ldr	r5, [r2, #4]
        temp &= ~((uint32_t)iocurrent);
        if((GPIO_Init->Mode & GPIO_MODE_EVT) == GPIO_MODE_EVT)
 800107c:	f414 3f00 	tst.w	r4, #131072	; 0x20000
        temp &= ~((uint32_t)iocurrent);
 8001080:	bf0c      	ite	eq
 8001082:	403d      	andeq	r5, r7
        {
          temp |= iocurrent;
 8001084:	4335      	orrne	r5, r6
        }
        EXTI->EMR = temp;
 8001086:	6055      	str	r5, [r2, #4]

        /* Clear Rising Falling edge configuration */
        temp = EXTI->RTSR;
 8001088:	6895      	ldr	r5, [r2, #8]
        temp &= ~((uint32_t)iocurrent);
        if((GPIO_Init->Mode & RISING_EDGE) == RISING_EDGE)
 800108a:	f414 1f80 	tst.w	r4, #1048576	; 0x100000
        temp &= ~((uint32_t)iocurrent);
 800108e:	bf0c      	ite	eq
 8001090:	403d      	andeq	r5, r7
        {
          temp |= iocurrent;
 8001092:	4335      	orrne	r5, r6
        }
        EXTI->RTSR = temp;
 8001094:	6095      	str	r5, [r2, #8]

        temp = EXTI->FTSR;
 8001096:	68d5      	ldr	r5, [r2, #12]
        temp &= ~((uint32_t)iocurrent);
        if((GPIO_Init->Mode & FALLING_EDGE) == FALLING_EDGE)
 8001098:	02a4      	lsls	r4, r4, #10
        temp &= ~((uint32_t)iocurrent);
 800109a:	bf54      	ite	pl
 800109c:	403d      	andpl	r5, r7
        {
          temp |= iocurrent;
 800109e:	4335      	orrmi	r5, r6
        }
        EXTI->FTSR = temp;
 80010a0:	60d5      	str	r5, [r2, #12]
  for(position = 0U; position < GPIO_NUMBER; position++)
 80010a2:	3301      	adds	r3, #1
 80010a4:	2b10      	cmp	r3, #16
 80010a6:	f47f af3c 	bne.w	8000f22 <HAL_GPIO_Init+0x16>
      }
    }
  }
}
 80010aa:	b005      	add	sp, #20
 80010ac:	e8bd 8ff0 	ldmia.w	sp!, {r4, r5, r6, r7, r8, r9, sl, fp, pc}
        temp |= ((uint32_t)(GPIO_GET_INDEX(GPIOx)) << (4U * (position & 0x03U)));
 80010b0:	465d      	mov	r5, fp
 80010b2:	e7d5      	b.n	8001060 <HAL_GPIO_Init+0x154>
 80010b4:	2501      	movs	r5, #1
 80010b6:	e7d3      	b.n	8001060 <HAL_GPIO_Init+0x154>
 80010b8:	2502      	movs	r5, #2
 80010ba:	e7d1      	b.n	8001060 <HAL_GPIO_Init+0x154>
 80010bc:	2503      	movs	r5, #3
 80010be:	e7cf      	b.n	8001060 <HAL_GPIO_Init+0x154>
 80010c0:	2504      	movs	r5, #4
 80010c2:	e7cd      	b.n	8001060 <HAL_GPIO_Init+0x154>
 80010c4:	2505      	movs	r5, #5
 80010c6:	e7cb      	b.n	8001060 <HAL_GPIO_Init+0x154>
 80010c8:	2506      	movs	r5, #6
 80010ca:	e7c9      	b.n	8001060 <HAL_GPIO_Init+0x154>
 80010cc:	2507      	movs	r5, #7
 80010ce:	e7c7      	b.n	8001060 <HAL_GPIO_Init+0x154>
 80010d0:	2508      	movs	r5, #8
 80010d2:	e7c5      	b.n	8001060 <HAL_GPIO_Init+0x154>
 80010d4:	40013c00 	.word	0x40013c00
 80010d8:	40020000 	.word	0x40020000
 80010dc:	40023800 	.word	0x40023800
 80010e0:	40021400 	.word	0x40021400

080010e4 <HAL_GPIO_ReadPin>:
  GPIO_PinState bitstatus;

  /* Check the parameters */
  assert_param(IS_GPIO_PIN(GPIO_Pin));

  if((GPIOx->IDR & GPIO_Pin) != (uint32_t)GPIO_PIN_RESET)
 80010e4:	6903      	ldr	r3, [r0, #16]
 80010e6:	4219      	tst	r1, r3
  else
  {
    bitstatus = GPIO_PIN_RESET;
  }
  return bitstatus;
}
 80010e8:	bf14      	ite	ne
 80010ea:	2001      	movne	r0, #1
 80010ec:	2000      	moveq	r0, #0
 80010ee:	4770      	bx	lr

080010f0 <HAL_GPIO_WritePin>:
{
  /* Check the parameters */
  assert_param(IS_GPIO_PIN(GPIO_Pin));
  assert_param(IS_GPIO_PIN_ACTION(PinState));

  if(PinState != GPIO_PIN_RESET)
 80010f0:	b10a      	cbz	r2, 80010f6 <HAL_GPIO_WritePin+0x6>
  {
    GPIOx->BSRR = GPIO_Pin;
  }
  else
  {
    GPIOx->BSRR = (uint32_t)GPIO_Pin << 16U;
 80010f2:	6181      	str	r1, [r0, #24]
 80010f4:	4770      	bx	lr
 80010f6:	0409      	lsls	r1, r1, #16
 80010f8:	e7fb      	b.n	80010f2 <HAL_GPIO_WritePin+0x2>
	...

080010fc <HAL_GPIO_EXTI_IRQHandler>:
  * @brief  This function handles EXTI interrupt request.
  * @param  GPIO_Pin Specifies the pins connected EXTI line
  * @retval None
  */
void HAL_GPIO_EXTI_IRQHandler(uint16_t GPIO_Pin)
{
 80010fc:	b508      	push	{r3, lr}
  /* EXTI line interrupt detected */
  if(__HAL_GPIO_EXTI_GET_IT(GPIO_Pin) != RESET)
 80010fe:	4b04      	ldr	r3, [pc, #16]	; (8001110 <HAL_GPIO_EXTI_IRQHandler+0x14>)
 8001100:	6959      	ldr	r1, [r3, #20]
 8001102:	4201      	tst	r1, r0
 8001104:	d002      	beq.n	800110c <HAL_GPIO_EXTI_IRQHandler+0x10>
  {
    __HAL_GPIO_EXTI_CLEAR_IT(GPIO_Pin);
 8001106:	6158      	str	r0, [r3, #20]
    HAL_GPIO_EXTI_Callback(GPIO_Pin);
 8001108:	f001 fa6a 	bl	80025e0 <HAL_GPIO_EXTI_Callback>
 800110c:	bd08      	pop	{r3, pc}
 800110e:	bf00      	nop
 8001110:	40013c00 	.word	0x40013c00

08001114 <HAL_PCD_Init>:
  *         parameters in the PCD_InitTypeDef and initialize the associated handle.
  * @param  hpcd PCD handle
  * @retval HAL status
  */
HAL_StatusTypeDef HAL_PCD_Init(PCD_HandleTypeDef *hpcd)
{
 8001114:	b5f0      	push	{r4, r5, r6, r7, lr}
  USB_OTG_GlobalTypeDef *USBx;
  uint8_t i;

  /* Check the PCD handle allocation */
  if (hpcd == NULL)
 8001116:	4604      	mov	r4, r0
{
 8001118:	b08b      	sub	sp, #44	; 0x2c
  if (hpcd == NULL)
 800111a:	b360      	cbz	r0, 8001176 <HAL_PCD_Init+0x62>
  /* Check the parameters */
  assert_param(IS_PCD_ALL_INSTANCE(hpcd->Instance));

  USBx = hpcd->Instance;

  if (hpcd->State == HAL_PCD_STATE_RESET)
 800111c:	f890 33bd 	ldrb.w	r3, [r0, #957]	; 0x3bd
  USBx = hpcd->Instance;
 8001120:	6805      	ldr	r5, [r0, #0]
  if (hpcd->State == HAL_PCD_STATE_RESET)
 8001122:	f003 02ff 	and.w	r2, r3, #255	; 0xff
 8001126:	b91b      	cbnz	r3, 8001130 <HAL_PCD_Init+0x1c>
  {
    /* Allocate lock resource and initialize it */
    hpcd->Lock = HAL_UNLOCKED;
 8001128:	f880 23bc 	strb.w	r2, [r0, #956]	; 0x3bc

    /* Init the low level hardware */
    hpcd->MspInitCallback(hpcd);
#else
    /* Init the low level hardware : GPIO, CLOCK, NVIC... */
    HAL_PCD_MspInit(hpcd);
 800112c:	f002 ffc2 	bl	80040b4 <HAL_PCD_MspInit>
#endif /* (USE_HAL_PCD_REGISTER_CALLBACKS) */
  }

  hpcd->State = HAL_PCD_STATE_BUSY;
 8001130:	2303      	movs	r3, #3
 8001132:	f884 33bd 	strb.w	r3, [r4, #957]	; 0x3bd

  /* Disable DMA mode for FS instance */
  if ((USBx->CID & (0x1U << 8)) == 0U)
 8001136:	6beb      	ldr	r3, [r5, #60]	; 0x3c
  {
    hpcd->Init.dma_enable = 0U;
  }

  /* Disable the Interrupts */
  __HAL_PCD_DISABLE(hpcd);
 8001138:	4625      	mov	r5, r4
  if ((USBx->CID & (0x1U << 8)) == 0U)
 800113a:	f413 7380 	ands.w	r3, r3, #256	; 0x100
  __HAL_PCD_DISABLE(hpcd);
 800113e:	f855 0b10 	ldr.w	r0, [r5], #16
    hpcd->Init.dma_enable = 0U;
 8001142:	bf08      	it	eq
 8001144:	6123      	streq	r3, [r4, #16]
  __HAL_PCD_DISABLE(hpcd);
 8001146:	f001 f933 	bl	80023b0 <USB_DisableGlobalInt>

  /*Init the Core (common init.) */
  if (USB_CoreInit(hpcd->Instance, hpcd->Init) != HAL_OK)
 800114a:	cd0f      	ldmia	r5!, {r0, r1, r2, r3}
 800114c:	466e      	mov	r6, sp
 800114e:	c60f      	stmia	r6!, {r0, r1, r2, r3}
 8001150:	cd0f      	ldmia	r5!, {r0, r1, r2, r3}
 8001152:	c60f      	stmia	r6!, {r0, r1, r2, r3}
 8001154:	e895 0003 	ldmia.w	r5, {r0, r1}
 8001158:	e886 0003 	stmia.w	r6, {r0, r1}
 800115c:	4625      	mov	r5, r4
 800115e:	1d27      	adds	r7, r4, #4
 8001160:	e897 000e 	ldmia.w	r7, {r1, r2, r3}
 8001164:	f855 0b10 	ldr.w	r0, [r5], #16
 8001168:	f001 f8e2 	bl	8002330 <USB_CoreInit>
 800116c:	4606      	mov	r6, r0
 800116e:	b120      	cbz	r0, 800117a <HAL_PCD_Init+0x66>
  {
    hpcd->State = HAL_PCD_STATE_ERROR;
 8001170:	2302      	movs	r3, #2
 8001172:	f884 33bd 	strb.w	r3, [r4, #957]	; 0x3bd
    return HAL_ERROR;
 8001176:	2501      	movs	r5, #1
 8001178:	e050      	b.n	800121c <HAL_PCD_Init+0x108>
    return HAL_ERROR;
  }

  /* Force Device Mode*/
  (void)USB_SetCurrentMode(hpcd->Instance, USB_DEVICE_MODE);
 800117a:	4601      	mov	r1, r0
 800117c:	6820      	ldr	r0, [r4, #0]
 800117e:	f001 f91d 	bl	80023bc <USB_SetCurrentMode>

  /* Init endpoints structures */
  for (i = 0U; i < hpcd->Init.dev_endpoints; i++)
 8001182:	4630      	mov	r0, r6
 8001184:	f8d4 e004 	ldr.w	lr, [r4, #4]
  {
    /* Init ep structure */
    hpcd->IN_ep[i].is_in = 1U;
 8001188:	261c      	movs	r6, #28
 800118a:	f04f 0c01 	mov.w	ip, #1
    hpcd->IN_ep[i].num = i;
    hpcd->IN_ep[i].tx_fifo_num = i;
    /* Control until ep is activated */
    hpcd->IN_ep[i].type = EP_TYPE_CTRL;
 800118e:	4601      	mov	r1, r0
 8001190:	b2c2      	uxtb	r2, r0
  for (i = 0U; i < hpcd->Init.dev_endpoints; i++)
 8001192:	4596      	cmp	lr, r2
 8001194:	f100 0001 	add.w	r0, r0, #1
 8001198:	d81c      	bhi.n	80011d4 <HAL_PCD_Init+0xc0>
 800119a:	2300      	movs	r3, #0
    hpcd->IN_ep[i].xfer_len = 0U;
  }

  for (i = 0U; i < hpcd->Init.dev_endpoints; i++)
  {
    hpcd->OUT_ep[i].is_in = 0U;
 800119c:	261c      	movs	r6, #28
 800119e:	4619      	mov	r1, r3
 80011a0:	b2d8      	uxtb	r0, r3
  for (i = 0U; i < hpcd->Init.dev_endpoints; i++)
 80011a2:	4586      	cmp	lr, r0
 80011a4:	f103 0301 	add.w	r3, r3, #1
 80011a8:	d822      	bhi.n	80011f0 <HAL_PCD_Init+0xdc>
    hpcd->OUT_ep[i].xfer_buff = 0U;
    hpcd->OUT_ep[i].xfer_len = 0U;
  }

  /* Init Device */
  if (USB_DevInit(hpcd->Instance, hpcd->Init) != HAL_OK)
 80011aa:	cd0f      	ldmia	r5!, {r0, r1, r2, r3}
 80011ac:	466e      	mov	r6, sp
 80011ae:	c60f      	stmia	r6!, {r0, r1, r2, r3}
 80011b0:	cd0f      	ldmia	r5!, {r0, r1, r2, r3}
 80011b2:	c60f      	stmia	r6!, {r0, r1, r2, r3}
 80011b4:	e895 0003 	ldmia.w	r5, {r0, r1}
 80011b8:	e886 0003 	stmia.w	r6, {r0, r1}
 80011bc:	e897 000e 	ldmia.w	r7, {r1, r2, r3}
 80011c0:	6820      	ldr	r0, [r4, #0]
 80011c2:	f001 f93d 	bl	8002440 <USB_DevInit>
 80011c6:	2301      	movs	r3, #1
 80011c8:	4605      	mov	r5, r0
 80011ca:	b300      	cbz	r0, 800120e <HAL_PCD_Init+0xfa>
  {
    hpcd->State = HAL_PCD_STATE_ERROR;
 80011cc:	2202      	movs	r2, #2
 80011ce:	f884 23bd 	strb.w	r2, [r4, #957]	; 0x3bd
 80011d2:	e7d0      	b.n	8001176 <HAL_PCD_Init+0x62>
    hpcd->IN_ep[i].is_in = 1U;
 80011d4:	fb06 4302 	mla	r3, r6, r2, r4
 80011d8:	f883 c03d 	strb.w	ip, [r3, #61]	; 0x3d
    hpcd->IN_ep[i].num = i;
 80011dc:	f883 203c 	strb.w	r2, [r3, #60]	; 0x3c
    hpcd->IN_ep[i].tx_fifo_num = i;
 80011e0:	f8a3 2042 	strh.w	r2, [r3, #66]	; 0x42
    hpcd->IN_ep[i].type = EP_TYPE_CTRL;
 80011e4:	f883 103f 	strb.w	r1, [r3, #63]	; 0x3f
    hpcd->IN_ep[i].maxpacket = 0U;
 80011e8:	6459      	str	r1, [r3, #68]	; 0x44
    hpcd->IN_ep[i].xfer_buff = 0U;
 80011ea:	6499      	str	r1, [r3, #72]	; 0x48
    hpcd->IN_ep[i].xfer_len = 0U;
 80011ec:	6519      	str	r1, [r3, #80]	; 0x50
 80011ee:	e7cf      	b.n	8001190 <HAL_PCD_Init+0x7c>
    hpcd->OUT_ep[i].is_in = 0U;
 80011f0:	fb06 4200 	mla	r2, r6, r0, r4
 80011f4:	f882 11fd 	strb.w	r1, [r2, #509]	; 0x1fd
    hpcd->OUT_ep[i].num = i;
 80011f8:	f882 01fc 	strb.w	r0, [r2, #508]	; 0x1fc
    hpcd->OUT_ep[i].type = EP_TYPE_CTRL;
 80011fc:	f882 11ff 	strb.w	r1, [r2, #511]	; 0x1ff
    hpcd->OUT_ep[i].maxpacket = 0U;
 8001200:	f8c2 1204 	str.w	r1, [r2, #516]	; 0x204
    hpcd->OUT_ep[i].xfer_buff = 0U;
 8001204:	f8c2 1208 	str.w	r1, [r2, #520]	; 0x208
    hpcd->OUT_ep[i].xfer_len = 0U;
 8001208:	f8c2 1210 	str.w	r1, [r2, #528]	; 0x210
 800120c:	e7c8      	b.n	80011a0 <HAL_PCD_Init+0x8c>
    return HAL_ERROR;
  }

  hpcd->USB_Address = 0U;
 800120e:	f884 0038 	strb.w	r0, [r4, #56]	; 0x38
  hpcd->State = HAL_PCD_STATE_READY;
 8001212:	f884 33bd 	strb.w	r3, [r4, #957]	; 0x3bd
  if (hpcd->Init.lpm_enable == 1U)
  {
    (void)HAL_PCDEx_ActivateLPM(hpcd);
  }
  #endif /* defined(STM32F446xx) || defined(STM32F469xx) || defined(STM32F479xx) || defined(STM32F412Zx) || defined(STM32F412Vx) || defined(STM32F412Rx) || defined(STM32F412Cx) || defined(STM32F413xx) || defined(STM32F423xx) */
  (void)USB_DevDisconnect(hpcd->Instance);
 8001216:	6820      	ldr	r0, [r4, #0]
 8001218:	f001 f9d6 	bl	80025c8 <USB_DevDisconnect>

  return HAL_OK;
}
 800121c:	4628      	mov	r0, r5
 800121e:	b00b      	add	sp, #44	; 0x2c
 8001220:	bdf0      	pop	{r4, r5, r6, r7, pc}
	...

08001224 <HAL_RCC_OscConfig>:
  *         supported by this API. User should request a transition to HSE Off
  *         first and then HSE On or HSE Bypass.
  * @retval HAL status
  */
__weak HAL_StatusTypeDef HAL_RCC_OscConfig(RCC_OscInitTypeDef  *RCC_OscInitStruct)
{
 8001224:	e92d 41f3 	stmdb	sp!, {r0, r1, r4, r5, r6, r7, r8, lr}
  uint32_t tickstart;

  /* Check Null pointer */
  if(RCC_OscInitStruct == NULL)
 8001228:	4604      	mov	r4, r0
 800122a:	b918      	cbnz	r0, 8001234 <HAL_RCC_OscConfig+0x10>
  {
    return HAL_ERROR;
 800122c:	2001      	movs	r0, #1
    {
      return HAL_ERROR;
    }
  }
  return HAL_OK;
}
 800122e:	b002      	add	sp, #8
 8001230:	e8bd 81f0 	ldmia.w	sp!, {r4, r5, r6, r7, r8, pc}
  if(((RCC_OscInitStruct->OscillatorType) & RCC_OSCILLATORTYPE_HSE) == RCC_OSCILLATORTYPE_HSE)
 8001234:	6803      	ldr	r3, [r0, #0]
 8001236:	07dd      	lsls	r5, r3, #31
 8001238:	d410      	bmi.n	800125c <HAL_RCC_OscConfig+0x38>
  if(((RCC_OscInitStruct->OscillatorType) & RCC_OSCILLATORTYPE_HSI) == RCC_OSCILLATORTYPE_HSI)
 800123a:	6823      	ldr	r3, [r4, #0]
 800123c:	0798      	lsls	r0, r3, #30
 800123e:	d458      	bmi.n	80012f2 <HAL_RCC_OscConfig+0xce>
  if(((RCC_OscInitStruct->OscillatorType) & RCC_OSCILLATORTYPE_LSI) == RCC_OSCILLATORTYPE_LSI)
 8001240:	6823      	ldr	r3, [r4, #0]
 8001242:	071a      	lsls	r2, r3, #28
 8001244:	f100 809a 	bmi.w	800137c <HAL_RCC_OscConfig+0x158>
  if(((RCC_OscInitStruct->OscillatorType) & RCC_OSCILLATORTYPE_LSE) == RCC_OSCILLATORTYPE_LSE)
 8001248:	6823      	ldr	r3, [r4, #0]
 800124a:	075b      	lsls	r3, r3, #29
 800124c:	f100 80b8 	bmi.w	80013c0 <HAL_RCC_OscConfig+0x19c>
  if ((RCC_OscInitStruct->PLL.PLLState) != RCC_PLL_NONE)
 8001250:	69a2      	ldr	r2, [r4, #24]
 8001252:	2a00      	cmp	r2, #0
 8001254:	f040 8119 	bne.w	800148a <HAL_RCC_OscConfig+0x266>
  return HAL_OK;
 8001258:	2000      	movs	r0, #0
 800125a:	e7e8      	b.n	800122e <HAL_RCC_OscConfig+0xa>
    if((__HAL_RCC_GET_SYSCLK_SOURCE() == RCC_CFGR_SWS_HSE) ||\
 800125c:	4ba6      	ldr	r3, [pc, #664]	; (80014f8 <HAL_RCC_OscConfig+0x2d4>)
 800125e:	689a      	ldr	r2, [r3, #8]
 8001260:	f002 020c 	and.w	r2, r2, #12
 8001264:	2a04      	cmp	r2, #4
 8001266:	d007      	beq.n	8001278 <HAL_RCC_OscConfig+0x54>
      ((__HAL_RCC_GET_SYSCLK_SOURCE() == RCC_CFGR_SWS_PLL) && ((RCC->PLLCFGR & RCC_PLLCFGR_PLLSRC) == RCC_PLLCFGR_PLLSRC_HSE)))
 8001268:	689a      	ldr	r2, [r3, #8]
 800126a:	f002 020c 	and.w	r2, r2, #12
    if((__HAL_RCC_GET_SYSCLK_SOURCE() == RCC_CFGR_SWS_HSE) ||\
 800126e:	2a08      	cmp	r2, #8
 8001270:	d10a      	bne.n	8001288 <HAL_RCC_OscConfig+0x64>
      ((__HAL_RCC_GET_SYSCLK_SOURCE() == RCC_CFGR_SWS_PLL) && ((RCC->PLLCFGR & RCC_PLLCFGR_PLLSRC) == RCC_PLLCFGR_PLLSRC_HSE)))
 8001272:	685b      	ldr	r3, [r3, #4]
 8001274:	0259      	lsls	r1, r3, #9
 8001276:	d507      	bpl.n	8001288 <HAL_RCC_OscConfig+0x64>
      if((__HAL_RCC_GET_FLAG(RCC_FLAG_HSERDY) != RESET) && (RCC_OscInitStruct->HSEState == RCC_HSE_OFF))
 8001278:	4b9f      	ldr	r3, [pc, #636]	; (80014f8 <HAL_RCC_OscConfig+0x2d4>)
 800127a:	681b      	ldr	r3, [r3, #0]
 800127c:	039a      	lsls	r2, r3, #14
 800127e:	d5dc      	bpl.n	800123a <HAL_RCC_OscConfig+0x16>
 8001280:	6863      	ldr	r3, [r4, #4]
 8001282:	2b00      	cmp	r3, #0
 8001284:	d1d9      	bne.n	800123a <HAL_RCC_OscConfig+0x16>
 8001286:	e7d1      	b.n	800122c <HAL_RCC_OscConfig+0x8>
      __HAL_RCC_HSE_CONFIG(RCC_OscInitStruct->HSEState);
 8001288:	6863      	ldr	r3, [r4, #4]
 800128a:	4d9b      	ldr	r5, [pc, #620]	; (80014f8 <HAL_RCC_OscConfig+0x2d4>)
 800128c:	f5b3 3f80 	cmp.w	r3, #65536	; 0x10000
 8001290:	d111      	bne.n	80012b6 <HAL_RCC_OscConfig+0x92>
 8001292:	682b      	ldr	r3, [r5, #0]
 8001294:	f443 3380 	orr.w	r3, r3, #65536	; 0x10000
 8001298:	602b      	str	r3, [r5, #0]
        tickstart = HAL_GetTick();
 800129a:	f7ff f979 	bl	8000590 <HAL_GetTick>
        while(__HAL_RCC_GET_FLAG(RCC_FLAG_HSERDY) == RESET)
 800129e:	4d96      	ldr	r5, [pc, #600]	; (80014f8 <HAL_RCC_OscConfig+0x2d4>)
        tickstart = HAL_GetTick();
 80012a0:	4606      	mov	r6, r0
        while(__HAL_RCC_GET_FLAG(RCC_FLAG_HSERDY) == RESET)
 80012a2:	682b      	ldr	r3, [r5, #0]
 80012a4:	039b      	lsls	r3, r3, #14
 80012a6:	d4c8      	bmi.n	800123a <HAL_RCC_OscConfig+0x16>
          if((HAL_GetTick() - tickstart ) > HSE_TIMEOUT_VALUE)
 80012a8:	f7ff f972 	bl	8000590 <HAL_GetTick>
 80012ac:	1b80      	subs	r0, r0, r6
 80012ae:	2864      	cmp	r0, #100	; 0x64
 80012b0:	d9f7      	bls.n	80012a2 <HAL_RCC_OscConfig+0x7e>
            return HAL_TIMEOUT;
 80012b2:	2003      	movs	r0, #3
 80012b4:	e7bb      	b.n	800122e <HAL_RCC_OscConfig+0xa>
      __HAL_RCC_HSE_CONFIG(RCC_OscInitStruct->HSEState);
 80012b6:	f5b3 2fa0 	cmp.w	r3, #327680	; 0x50000
 80012ba:	d104      	bne.n	80012c6 <HAL_RCC_OscConfig+0xa2>
 80012bc:	682b      	ldr	r3, [r5, #0]
 80012be:	f443 2380 	orr.w	r3, r3, #262144	; 0x40000
 80012c2:	602b      	str	r3, [r5, #0]
 80012c4:	e7e5      	b.n	8001292 <HAL_RCC_OscConfig+0x6e>
 80012c6:	682a      	ldr	r2, [r5, #0]
 80012c8:	f422 3280 	bic.w	r2, r2, #65536	; 0x10000
 80012cc:	602a      	str	r2, [r5, #0]
 80012ce:	682a      	ldr	r2, [r5, #0]
 80012d0:	f422 2280 	bic.w	r2, r2, #262144	; 0x40000
 80012d4:	602a      	str	r2, [r5, #0]
      if((RCC_OscInitStruct->HSEState) != RCC_HSE_OFF)
 80012d6:	2b00      	cmp	r3, #0
 80012d8:	d1df      	bne.n	800129a <HAL_RCC_OscConfig+0x76>
        tickstart = HAL_GetTick();
 80012da:	f7ff f959 	bl	8000590 <HAL_GetTick>
 80012de:	4606      	mov	r6, r0
        while(__HAL_RCC_GET_FLAG(RCC_FLAG_HSERDY) != RESET)
 80012e0:	682b      	ldr	r3, [r5, #0]
 80012e2:	039f      	lsls	r7, r3, #14
 80012e4:	d5a9      	bpl.n	800123a <HAL_RCC_OscConfig+0x16>
          if((HAL_GetTick() - tickstart ) > HSE_TIMEOUT_VALUE)
 80012e6:	f7ff f953 	bl	8000590 <HAL_GetTick>
 80012ea:	1b80      	subs	r0, r0, r6
 80012ec:	2864      	cmp	r0, #100	; 0x64
 80012ee:	d9f7      	bls.n	80012e0 <HAL_RCC_OscConfig+0xbc>
 80012f0:	e7df      	b.n	80012b2 <HAL_RCC_OscConfig+0x8e>
    if((__HAL_RCC_GET_SYSCLK_SOURCE() == RCC_CFGR_SWS_HSI) ||\
 80012f2:	4b81      	ldr	r3, [pc, #516]	; (80014f8 <HAL_RCC_OscConfig+0x2d4>)
 80012f4:	689a      	ldr	r2, [r3, #8]
 80012f6:	f012 0f0c 	tst.w	r2, #12
 80012fa:	d007      	beq.n	800130c <HAL_RCC_OscConfig+0xe8>
      ((__HAL_RCC_GET_SYSCLK_SOURCE() == RCC_CFGR_SWS_PLL) && ((RCC->PLLCFGR & RCC_PLLCFGR_PLLSRC) == RCC_PLLCFGR_PLLSRC_HSI)))
 80012fc:	689a      	ldr	r2, [r3, #8]
 80012fe:	f002 020c 	and.w	r2, r2, #12
    if((__HAL_RCC_GET_SYSCLK_SOURCE() == RCC_CFGR_SWS_HSI) ||\
 8001302:	2a08      	cmp	r2, #8
 8001304:	d111      	bne.n	800132a <HAL_RCC_OscConfig+0x106>
      ((__HAL_RCC_GET_SYSCLK_SOURCE() == RCC_CFGR_SWS_PLL) && ((RCC->PLLCFGR & RCC_PLLCFGR_PLLSRC) == RCC_PLLCFGR_PLLSRC_HSI)))
 8001306:	685b      	ldr	r3, [r3, #4]
 8001308:	025e      	lsls	r6, r3, #9
 800130a:	d40e      	bmi.n	800132a <HAL_RCC_OscConfig+0x106>
      if((__HAL_RCC_GET_FLAG(RCC_FLAG_HSIRDY) != RESET) && (RCC_OscInitStruct->HSIState != RCC_HSI_ON))
 800130c:	4b7a      	ldr	r3, [pc, #488]	; (80014f8 <HAL_RCC_OscConfig+0x2d4>)
 800130e:	681a      	ldr	r2, [r3, #0]
 8001310:	0795      	lsls	r5, r2, #30
 8001312:	d502      	bpl.n	800131a <HAL_RCC_OscConfig+0xf6>
 8001314:	68e2      	ldr	r2, [r4, #12]
 8001316:	2a01      	cmp	r2, #1
 8001318:	d188      	bne.n	800122c <HAL_RCC_OscConfig+0x8>
        __HAL_RCC_HSI_CALIBRATIONVALUE_ADJUST(RCC_OscInitStruct->HSICalibrationValue);
 800131a:	681a      	ldr	r2, [r3, #0]
 800131c:	6921      	ldr	r1, [r4, #16]
 800131e:	f022 02f8 	bic.w	r2, r2, #248	; 0xf8
 8001322:	ea42 02c1 	orr.w	r2, r2, r1, lsl #3
 8001326:	601a      	str	r2, [r3, #0]
      if((__HAL_RCC_GET_FLAG(RCC_FLAG_HSIRDY) != RESET) && (RCC_OscInitStruct->HSIState != RCC_HSI_ON))
 8001328:	e78a      	b.n	8001240 <HAL_RCC_OscConfig+0x1c>
      if((RCC_OscInitStruct->HSIState)!= RCC_HSI_OFF)
 800132a:	68e2      	ldr	r2, [r4, #12]
 800132c:	4b73      	ldr	r3, [pc, #460]	; (80014fc <HAL_RCC_OscConfig+0x2d8>)
 800132e:	b1b2      	cbz	r2, 800135e <HAL_RCC_OscConfig+0x13a>
        __HAL_RCC_HSI_ENABLE();
 8001330:	2201      	movs	r2, #1
 8001332:	601a      	str	r2, [r3, #0]
        tickstart = HAL_GetTick();
 8001334:	f7ff f92c 	bl	8000590 <HAL_GetTick>
        while(__HAL_RCC_GET_FLAG(RCC_FLAG_HSIRDY) == RESET)
 8001338:	4d6f      	ldr	r5, [pc, #444]	; (80014f8 <HAL_RCC_OscConfig+0x2d4>)
        tickstart = HAL_GetTick();
 800133a:	4606      	mov	r6, r0
        while(__HAL_RCC_GET_FLAG(RCC_FLAG_HSIRDY) == RESET)
 800133c:	682b      	ldr	r3, [r5, #0]
 800133e:	0798      	lsls	r0, r3, #30
 8001340:	d507      	bpl.n	8001352 <HAL_RCC_OscConfig+0x12e>
        __HAL_RCC_HSI_CALIBRATIONVALUE_ADJUST(RCC_OscInitStruct->HSICalibrationValue);
 8001342:	682b      	ldr	r3, [r5, #0]
 8001344:	6922      	ldr	r2, [r4, #16]
 8001346:	f023 03f8 	bic.w	r3, r3, #248	; 0xf8
 800134a:	ea43 03c2 	orr.w	r3, r3, r2, lsl #3
 800134e:	602b      	str	r3, [r5, #0]
 8001350:	e776      	b.n	8001240 <HAL_RCC_OscConfig+0x1c>
          if((HAL_GetTick() - tickstart ) > HSI_TIMEOUT_VALUE)
 8001352:	f7ff f91d 	bl	8000590 <HAL_GetTick>
 8001356:	1b80      	subs	r0, r0, r6
 8001358:	2802      	cmp	r0, #2
 800135a:	d9ef      	bls.n	800133c <HAL_RCC_OscConfig+0x118>
 800135c:	e7a9      	b.n	80012b2 <HAL_RCC_OscConfig+0x8e>
        __HAL_RCC_HSI_DISABLE();
 800135e:	601a      	str	r2, [r3, #0]
        tickstart = HAL_GetTick();
 8001360:	f7ff f916 	bl	8000590 <HAL_GetTick>
        while(__HAL_RCC_GET_FLAG(RCC_FLAG_HSIRDY) != RESET)
 8001364:	4d64      	ldr	r5, [pc, #400]	; (80014f8 <HAL_RCC_OscConfig+0x2d4>)
        tickstart = HAL_GetTick();
 8001366:	4606      	mov	r6, r0
        while(__HAL_RCC_GET_FLAG(RCC_FLAG_HSIRDY) != RESET)
 8001368:	682b      	ldr	r3, [r5, #0]
 800136a:	0799      	lsls	r1, r3, #30
 800136c:	f57f af68 	bpl.w	8001240 <HAL_RCC_OscConfig+0x1c>
          if((HAL_GetTick() - tickstart ) > HSI_TIMEOUT_VALUE)
 8001370:	f7ff f90e 	bl	8000590 <HAL_GetTick>
 8001374:	1b80      	subs	r0, r0, r6
 8001376:	2802      	cmp	r0, #2
 8001378:	d9f6      	bls.n	8001368 <HAL_RCC_OscConfig+0x144>
 800137a:	e79a      	b.n	80012b2 <HAL_RCC_OscConfig+0x8e>
    if((RCC_OscInitStruct->LSIState)!= RCC_LSI_OFF)
 800137c:	6962      	ldr	r2, [r4, #20]
 800137e:	4b60      	ldr	r3, [pc, #384]	; (8001500 <HAL_RCC_OscConfig+0x2dc>)
 8001380:	b17a      	cbz	r2, 80013a2 <HAL_RCC_OscConfig+0x17e>
      __HAL_RCC_LSI_ENABLE();
 8001382:	2201      	movs	r2, #1
 8001384:	601a      	str	r2, [r3, #0]
      tickstart = HAL_GetTick();
 8001386:	f7ff f903 	bl	8000590 <HAL_GetTick>
      while(__HAL_RCC_GET_FLAG(RCC_FLAG_LSIRDY) == RESET)
 800138a:	4d5b      	ldr	r5, [pc, #364]	; (80014f8 <HAL_RCC_OscConfig+0x2d4>)
      tickstart = HAL_GetTick();
 800138c:	4606      	mov	r6, r0
      while(__HAL_RCC_GET_FLAG(RCC_FLAG_LSIRDY) == RESET)
 800138e:	6f6b      	ldr	r3, [r5, #116]	; 0x74
 8001390:	079f      	lsls	r7, r3, #30
 8001392:	f53f af59 	bmi.w	8001248 <HAL_RCC_OscConfig+0x24>
        if((HAL_GetTick() - tickstart ) > LSI_TIMEOUT_VALUE)
 8001396:	f7ff f8fb 	bl	8000590 <HAL_GetTick>
 800139a:	1b80      	subs	r0, r0, r6
 800139c:	2802      	cmp	r0, #2
 800139e:	d9f6      	bls.n	800138e <HAL_RCC_OscConfig+0x16a>
 80013a0:	e787      	b.n	80012b2 <HAL_RCC_OscConfig+0x8e>
      __HAL_RCC_LSI_DISABLE();
 80013a2:	601a      	str	r2, [r3, #0]
      tickstart = HAL_GetTick();
 80013a4:	f7ff f8f4 	bl	8000590 <HAL_GetTick>
      while(__HAL_RCC_GET_FLAG(RCC_FLAG_LSIRDY) != RESET)
 80013a8:	4d53      	ldr	r5, [pc, #332]	; (80014f8 <HAL_RCC_OscConfig+0x2d4>)
      tickstart = HAL_GetTick();
 80013aa:	4606      	mov	r6, r0
      while(__HAL_RCC_GET_FLAG(RCC_FLAG_LSIRDY) != RESET)
 80013ac:	6f6b      	ldr	r3, [r5, #116]	; 0x74
 80013ae:	0798      	lsls	r0, r3, #30
 80013b0:	f57f af4a 	bpl.w	8001248 <HAL_RCC_OscConfig+0x24>
        if((HAL_GetTick() - tickstart ) > LSI_TIMEOUT_VALUE)
 80013b4:	f7ff f8ec 	bl	8000590 <HAL_GetTick>
 80013b8:	1b80      	subs	r0, r0, r6
 80013ba:	2802      	cmp	r0, #2
 80013bc:	d9f6      	bls.n	80013ac <HAL_RCC_OscConfig+0x188>
 80013be:	e778      	b.n	80012b2 <HAL_RCC_OscConfig+0x8e>
    if(__HAL_RCC_PWR_IS_CLK_DISABLED())
 80013c0:	4b4d      	ldr	r3, [pc, #308]	; (80014f8 <HAL_RCC_OscConfig+0x2d4>)
 80013c2:	6c1a      	ldr	r2, [r3, #64]	; 0x40
 80013c4:	f012 5280 	ands.w	r2, r2, #268435456	; 0x10000000
 80013c8:	d128      	bne.n	800141c <HAL_RCC_OscConfig+0x1f8>
      __HAL_RCC_PWR_CLK_ENABLE();
 80013ca:	9201      	str	r2, [sp, #4]
 80013cc:	6c1a      	ldr	r2, [r3, #64]	; 0x40
 80013ce:	f042 5280 	orr.w	r2, r2, #268435456	; 0x10000000
 80013d2:	641a      	str	r2, [r3, #64]	; 0x40
 80013d4:	6c1b      	ldr	r3, [r3, #64]	; 0x40
 80013d6:	f003 5380 	and.w	r3, r3, #268435456	; 0x10000000
 80013da:	9301      	str	r3, [sp, #4]
 80013dc:	9b01      	ldr	r3, [sp, #4]
      pwrclkchanged = SET;
 80013de:	2601      	movs	r6, #1
    if(HAL_IS_BIT_CLR(PWR->CR, PWR_CR_DBP))
 80013e0:	4d48      	ldr	r5, [pc, #288]	; (8001504 <HAL_RCC_OscConfig+0x2e0>)
 80013e2:	682b      	ldr	r3, [r5, #0]
 80013e4:	05d9      	lsls	r1, r3, #23
 80013e6:	d51b      	bpl.n	8001420 <HAL_RCC_OscConfig+0x1fc>
    __HAL_RCC_LSE_CONFIG(RCC_OscInitStruct->LSEState);
 80013e8:	68a3      	ldr	r3, [r4, #8]
 80013ea:	4d43      	ldr	r5, [pc, #268]	; (80014f8 <HAL_RCC_OscConfig+0x2d4>)
 80013ec:	2b01      	cmp	r3, #1
 80013ee:	d127      	bne.n	8001440 <HAL_RCC_OscConfig+0x21c>
 80013f0:	6f2b      	ldr	r3, [r5, #112]	; 0x70
 80013f2:	f043 0301 	orr.w	r3, r3, #1
 80013f6:	672b      	str	r3, [r5, #112]	; 0x70
      tickstart = HAL_GetTick();
 80013f8:	f7ff f8ca 	bl	8000590 <HAL_GetTick>
      while(__HAL_RCC_GET_FLAG(RCC_FLAG_LSERDY) == RESET)
 80013fc:	4d3e      	ldr	r5, [pc, #248]	; (80014f8 <HAL_RCC_OscConfig+0x2d4>)
      tickstart = HAL_GetTick();
 80013fe:	4607      	mov	r7, r0
        if((HAL_GetTick() - tickstart ) > RCC_LSE_TIMEOUT_VALUE)
 8001400:	f241 3888 	movw	r8, #5000	; 0x1388
      while(__HAL_RCC_GET_FLAG(RCC_FLAG_LSERDY) == RESET)
 8001404:	6f2b      	ldr	r3, [r5, #112]	; 0x70
 8001406:	079b      	lsls	r3, r3, #30
 8001408:	d539      	bpl.n	800147e <HAL_RCC_OscConfig+0x25a>
    if(pwrclkchanged == SET)
 800140a:	2e00      	cmp	r6, #0
 800140c:	f43f af20 	beq.w	8001250 <HAL_RCC_OscConfig+0x2c>
      __HAL_RCC_PWR_CLK_DISABLE();
 8001410:	4a39      	ldr	r2, [pc, #228]	; (80014f8 <HAL_RCC_OscConfig+0x2d4>)
 8001412:	6c13      	ldr	r3, [r2, #64]	; 0x40
 8001414:	f023 5380 	bic.w	r3, r3, #268435456	; 0x10000000
 8001418:	6413      	str	r3, [r2, #64]	; 0x40
 800141a:	e719      	b.n	8001250 <HAL_RCC_OscConfig+0x2c>
    FlagStatus       pwrclkchanged = RESET;
 800141c:	2600      	movs	r6, #0
 800141e:	e7df      	b.n	80013e0 <HAL_RCC_OscConfig+0x1bc>
      SET_BIT(PWR->CR, PWR_CR_DBP);
 8001420:	682b      	ldr	r3, [r5, #0]
 8001422:	f443 7380 	orr.w	r3, r3, #256	; 0x100
 8001426:	602b      	str	r3, [r5, #0]
      tickstart = HAL_GetTick();
 8001428:	f7ff f8b2 	bl	8000590 <HAL_GetTick>
 800142c:	4607      	mov	r7, r0
      while(HAL_IS_BIT_CLR(PWR->CR, PWR_CR_DBP))
 800142e:	682b      	ldr	r3, [r5, #0]
 8001430:	05da      	lsls	r2, r3, #23
 8001432:	d4d9      	bmi.n	80013e8 <HAL_RCC_OscConfig+0x1c4>
        if((HAL_GetTick() - tickstart) > RCC_DBP_TIMEOUT_VALUE)
 8001434:	f7ff f8ac 	bl	8000590 <HAL_GetTick>
 8001438:	1bc0      	subs	r0, r0, r7
 800143a:	2802      	cmp	r0, #2
 800143c:	d9f7      	bls.n	800142e <HAL_RCC_OscConfig+0x20a>
 800143e:	e738      	b.n	80012b2 <HAL_RCC_OscConfig+0x8e>
    __HAL_RCC_LSE_CONFIG(RCC_OscInitStruct->LSEState);
 8001440:	2b05      	cmp	r3, #5
 8001442:	d104      	bne.n	800144e <HAL_RCC_OscConfig+0x22a>
 8001444:	6f2b      	ldr	r3, [r5, #112]	; 0x70
 8001446:	f043 0304 	orr.w	r3, r3, #4
 800144a:	672b      	str	r3, [r5, #112]	; 0x70
 800144c:	e7d0      	b.n	80013f0 <HAL_RCC_OscConfig+0x1cc>
 800144e:	6f2a      	ldr	r2, [r5, #112]	; 0x70
 8001450:	f022 0201 	bic.w	r2, r2, #1
 8001454:	672a      	str	r2, [r5, #112]	; 0x70
 8001456:	6f2a      	ldr	r2, [r5, #112]	; 0x70
 8001458:	f022 0204 	bic.w	r2, r2, #4
 800145c:	672a      	str	r2, [r5, #112]	; 0x70
    if((RCC_OscInitStruct->LSEState) != RCC_LSE_OFF)
 800145e:	2b00      	cmp	r3, #0
 8001460:	d1ca      	bne.n	80013f8 <HAL_RCC_OscConfig+0x1d4>
      tickstart = HAL_GetTick();
 8001462:	f7ff f895 	bl	8000590 <HAL_GetTick>
        if((HAL_GetTick() - tickstart ) > RCC_LSE_TIMEOUT_VALUE)
 8001466:	f241 3888 	movw	r8, #5000	; 0x1388
      tickstart = HAL_GetTick();
 800146a:	4607      	mov	r7, r0
      while(__HAL_RCC_GET_FLAG(RCC_FLAG_LSERDY) != RESET)
 800146c:	6f2b      	ldr	r3, [r5, #112]	; 0x70
 800146e:	0798      	lsls	r0, r3, #30
 8001470:	d5cb      	bpl.n	800140a <HAL_RCC_OscConfig+0x1e6>
        if((HAL_GetTick() - tickstart ) > RCC_LSE_TIMEOUT_VALUE)
 8001472:	f7ff f88d 	bl	8000590 <HAL_GetTick>
 8001476:	1bc0      	subs	r0, r0, r7
 8001478:	4540      	cmp	r0, r8
 800147a:	d9f7      	bls.n	800146c <HAL_RCC_OscConfig+0x248>
 800147c:	e719      	b.n	80012b2 <HAL_RCC_OscConfig+0x8e>
        if((HAL_GetTick() - tickstart ) > RCC_LSE_TIMEOUT_VALUE)
 800147e:	f7ff f887 	bl	8000590 <HAL_GetTick>
 8001482:	1bc0      	subs	r0, r0, r7
 8001484:	4540      	cmp	r0, r8
 8001486:	d9bd      	bls.n	8001404 <HAL_RCC_OscConfig+0x1e0>
 8001488:	e713      	b.n	80012b2 <HAL_RCC_OscConfig+0x8e>
    if(__HAL_RCC_GET_SYSCLK_SOURCE() != RCC_CFGR_SWS_PLL)
 800148a:	4d1b      	ldr	r5, [pc, #108]	; (80014f8 <HAL_RCC_OscConfig+0x2d4>)
 800148c:	68ab      	ldr	r3, [r5, #8]
 800148e:	f003 030c 	and.w	r3, r3, #12
 8001492:	2b08      	cmp	r3, #8
 8001494:	f43f aeca 	beq.w	800122c <HAL_RCC_OscConfig+0x8>
 8001498:	4e1b      	ldr	r6, [pc, #108]	; (8001508 <HAL_RCC_OscConfig+0x2e4>)
 800149a:	2300      	movs	r3, #0
      if((RCC_OscInitStruct->PLL.PLLState) == RCC_PLL_ON)
 800149c:	2a02      	cmp	r2, #2
        __HAL_RCC_PLL_DISABLE();
 800149e:	6033      	str	r3, [r6, #0]
      if((RCC_OscInitStruct->PLL.PLLState) == RCC_PLL_ON)
 80014a0:	d134      	bne.n	800150c <HAL_RCC_OscConfig+0x2e8>
        tickstart = HAL_GetTick();
 80014a2:	f7ff f875 	bl	8000590 <HAL_GetTick>
 80014a6:	4607      	mov	r7, r0
        while(__HAL_RCC_GET_FLAG(RCC_FLAG_PLLRDY) != RESET)
 80014a8:	682b      	ldr	r3, [r5, #0]
 80014aa:	0199      	lsls	r1, r3, #6
 80014ac:	d41e      	bmi.n	80014ec <HAL_RCC_OscConfig+0x2c8>
        WRITE_REG(RCC->PLLCFGR, (RCC_OscInitStruct->PLL.PLLSource                                            | \
 80014ae:	6a22      	ldr	r2, [r4, #32]
 80014b0:	69e3      	ldr	r3, [r4, #28]
 80014b2:	4313      	orrs	r3, r2
 80014b4:	6a62      	ldr	r2, [r4, #36]	; 0x24
 80014b6:	ea43 1382 	orr.w	r3, r3, r2, lsl #6
 80014ba:	6ae2      	ldr	r2, [r4, #44]	; 0x2c
 80014bc:	ea43 6302 	orr.w	r3, r3, r2, lsl #24
 80014c0:	6aa2      	ldr	r2, [r4, #40]	; 0x28
        while(__HAL_RCC_GET_FLAG(RCC_FLAG_PLLRDY) == RESET)
 80014c2:	4c0d      	ldr	r4, [pc, #52]	; (80014f8 <HAL_RCC_OscConfig+0x2d4>)
        WRITE_REG(RCC->PLLCFGR, (RCC_OscInitStruct->PLL.PLLSource                                            | \
 80014c4:	0852      	lsrs	r2, r2, #1
 80014c6:	3a01      	subs	r2, #1
 80014c8:	ea43 4302 	orr.w	r3, r3, r2, lsl #16
 80014cc:	606b      	str	r3, [r5, #4]
        __HAL_RCC_PLL_ENABLE();
 80014ce:	2301      	movs	r3, #1
 80014d0:	6033      	str	r3, [r6, #0]
        tickstart = HAL_GetTick();
 80014d2:	f7ff f85d 	bl	8000590 <HAL_GetTick>
 80014d6:	4605      	mov	r5, r0
        while(__HAL_RCC_GET_FLAG(RCC_FLAG_PLLRDY) == RESET)
 80014d8:	6823      	ldr	r3, [r4, #0]
 80014da:	019a      	lsls	r2, r3, #6
 80014dc:	f53f aebc 	bmi.w	8001258 <HAL_RCC_OscConfig+0x34>
          if((HAL_GetTick() - tickstart ) > PLL_TIMEOUT_VALUE)
 80014e0:	f7ff f856 	bl	8000590 <HAL_GetTick>
 80014e4:	1b40      	subs	r0, r0, r5
 80014e6:	2802      	cmp	r0, #2
 80014e8:	d9f6      	bls.n	80014d8 <HAL_RCC_OscConfig+0x2b4>
 80014ea:	e6e2      	b.n	80012b2 <HAL_RCC_OscConfig+0x8e>
          if((HAL_GetTick() - tickstart ) > PLL_TIMEOUT_VALUE)
 80014ec:	f7ff f850 	bl	8000590 <HAL_GetTick>
 80014f0:	1bc0      	subs	r0, r0, r7
 80014f2:	2802      	cmp	r0, #2
 80014f4:	d9d8      	bls.n	80014a8 <HAL_RCC_OscConfig+0x284>
 80014f6:	e6dc      	b.n	80012b2 <HAL_RCC_OscConfig+0x8e>
 80014f8:	40023800 	.word	0x40023800
 80014fc:	42470000 	.word	0x42470000
 8001500:	42470e80 	.word	0x42470e80
 8001504:	40007000 	.word	0x40007000
 8001508:	42470060 	.word	0x42470060
        tickstart = HAL_GetTick();
 800150c:	f7ff f840 	bl	8000590 <HAL_GetTick>
 8001510:	4604      	mov	r4, r0
        while(__HAL_RCC_GET_FLAG(RCC_FLAG_PLLRDY) != RESET)
 8001512:	682b      	ldr	r3, [r5, #0]
 8001514:	019b      	lsls	r3, r3, #6
 8001516:	f57f ae9f 	bpl.w	8001258 <HAL_RCC_OscConfig+0x34>
          if((HAL_GetTick() - tickstart ) > PLL_TIMEOUT_VALUE)
 800151a:	f7ff f839 	bl	8000590 <HAL_GetTick>
 800151e:	1b00      	subs	r0, r0, r4
 8001520:	2802      	cmp	r0, #2
 8001522:	d9f6      	bls.n	8001512 <HAL_RCC_OscConfig+0x2ee>
 8001524:	e6c5      	b.n	80012b2 <HAL_RCC_OscConfig+0x8e>
 8001526:	bf00      	nop

08001528 <HAL_RCC_GetSysClockFreq>:
{
  uint32_t pllm = 0U, pllvco = 0U, pllp = 0U;
  uint32_t sysclockfreq = 0U;

  /* Get SYSCLK source -------------------------------------------------------*/
  switch (RCC->CFGR & RCC_CFGR_SWS)
 8001528:	4913      	ldr	r1, [pc, #76]	; (8001578 <HAL_RCC_GetSysClockFreq+0x50>)
{
 800152a:	b508      	push	{r3, lr}
  switch (RCC->CFGR & RCC_CFGR_SWS)
 800152c:	688b      	ldr	r3, [r1, #8]
 800152e:	f003 030c 	and.w	r3, r3, #12
 8001532:	2b04      	cmp	r3, #4
 8001534:	d003      	beq.n	800153e <HAL_RCC_GetSysClockFreq+0x16>
 8001536:	2b08      	cmp	r3, #8
 8001538:	d003      	beq.n	8001542 <HAL_RCC_GetSysClockFreq+0x1a>
  {
    case RCC_CFGR_SWS_HSI:  /* HSI used as system clock source */
    {
      sysclockfreq = HSI_VALUE;
 800153a:	4810      	ldr	r0, [pc, #64]	; (800157c <HAL_RCC_GetSysClockFreq+0x54>)
      sysclockfreq = HSI_VALUE;
      break;
    }
  }
  return sysclockfreq;
}
 800153c:	bd08      	pop	{r3, pc}
      sysclockfreq = HSE_VALUE;
 800153e:	4810      	ldr	r0, [pc, #64]	; (8001580 <HAL_RCC_GetSysClockFreq+0x58>)
 8001540:	bd08      	pop	{r3, pc}
      pllm = RCC->PLLCFGR & RCC_PLLCFGR_PLLM;
 8001542:	684a      	ldr	r2, [r1, #4]
      if(__HAL_RCC_GET_PLL_OSCSOURCE() != RCC_PLLSOURCE_HSI)
 8001544:	684b      	ldr	r3, [r1, #4]
        pllvco = (uint32_t) ((((uint64_t) HSE_VALUE * ((uint64_t) ((RCC->PLLCFGR & RCC_PLLCFGR_PLLN) >> RCC_PLLCFGR_PLLN_Pos)))) / (uint64_t)pllm);
 8001546:	6849      	ldr	r1, [r1, #4]
      if(__HAL_RCC_GET_PLL_OSCSOURCE() != RCC_PLLSOURCE_HSI)
 8001548:	f413 0380 	ands.w	r3, r3, #4194304	; 0x400000
        pllvco = (uint32_t) ((((uint64_t) HSE_VALUE * ((uint64_t) ((RCC->PLLCFGR & RCC_PLLCFGR_PLLN) >> RCC_PLLCFGR_PLLN_Pos)))) / (uint64_t)pllm);
 800154c:	bf14      	ite	ne
 800154e:	480c      	ldrne	r0, [pc, #48]	; (8001580 <HAL_RCC_GetSysClockFreq+0x58>)
        pllvco = (uint32_t) ((((uint64_t) HSI_VALUE * ((uint64_t) ((RCC->PLLCFGR & RCC_PLLCFGR_PLLN) >> RCC_PLLCFGR_PLLN_Pos)))) / (uint64_t)pllm);
 8001550:	480a      	ldreq	r0, [pc, #40]	; (800157c <HAL_RCC_GetSysClockFreq+0x54>)
        pllvco = (uint32_t) ((((uint64_t) HSE_VALUE * ((uint64_t) ((RCC->PLLCFGR & RCC_PLLCFGR_PLLN) >> RCC_PLLCFGR_PLLN_Pos)))) / (uint64_t)pllm);
 8001552:	f3c1 1188 	ubfx	r1, r1, #6, #9
 8001556:	bf18      	it	ne
 8001558:	2300      	movne	r3, #0
      pllm = RCC->PLLCFGR & RCC_PLLCFGR_PLLM;
 800155a:	f002 023f 	and.w	r2, r2, #63	; 0x3f
        pllvco = (uint32_t) ((((uint64_t) HSI_VALUE * ((uint64_t) ((RCC->PLLCFGR & RCC_PLLCFGR_PLLN) >> RCC_PLLCFGR_PLLN_Pos)))) / (uint64_t)pllm);
 800155e:	fba1 0100 	umull	r0, r1, r1, r0
 8001562:	f7fe fe43 	bl	80001ec <__aeabi_uldivmod>
      pllp = ((((RCC->PLLCFGR & RCC_PLLCFGR_PLLP) >> RCC_PLLCFGR_PLLP_Pos) + 1U) *2U);
 8001566:	4b04      	ldr	r3, [pc, #16]	; (8001578 <HAL_RCC_GetSysClockFreq+0x50>)
 8001568:	685b      	ldr	r3, [r3, #4]
 800156a:	f3c3 4301 	ubfx	r3, r3, #16, #2
 800156e:	3301      	adds	r3, #1
 8001570:	005b      	lsls	r3, r3, #1
      sysclockfreq = pllvco/pllp;
 8001572:	fbb0 f0f3 	udiv	r0, r0, r3
 8001576:	bd08      	pop	{r3, pc}
 8001578:	40023800 	.word	0x40023800
 800157c:	00f42400 	.word	0x00f42400
 8001580:	007a1200 	.word	0x007a1200

08001584 <HAL_RCC_ClockConfig>:
{
 8001584:	e92d 41f0 	stmdb	sp!, {r4, r5, r6, r7, r8, lr}
 8001588:	460d      	mov	r5, r1
  if(RCC_ClkInitStruct == NULL)
 800158a:	4604      	mov	r4, r0
 800158c:	b910      	cbnz	r0, 8001594 <HAL_RCC_ClockConfig+0x10>
    return HAL_ERROR;
 800158e:	2001      	movs	r0, #1
 8001590:	e8bd 81f0 	ldmia.w	sp!, {r4, r5, r6, r7, r8, pc}
  if(FLatency > __HAL_FLASH_GET_LATENCY())
 8001594:	4b44      	ldr	r3, [pc, #272]	; (80016a8 <HAL_RCC_ClockConfig+0x124>)
 8001596:	681a      	ldr	r2, [r3, #0]
 8001598:	f002 020f 	and.w	r2, r2, #15
 800159c:	428a      	cmp	r2, r1
 800159e:	d328      	bcc.n	80015f2 <HAL_RCC_ClockConfig+0x6e>
  if(((RCC_ClkInitStruct->ClockType) & RCC_CLOCKTYPE_HCLK) == RCC_CLOCKTYPE_HCLK)
 80015a0:	6821      	ldr	r1, [r4, #0]
 80015a2:	078f      	lsls	r7, r1, #30
 80015a4:	d42d      	bmi.n	8001602 <HAL_RCC_ClockConfig+0x7e>
  if(((RCC_ClkInitStruct->ClockType) & RCC_CLOCKTYPE_SYSCLK) == RCC_CLOCKTYPE_SYSCLK)
 80015a6:	07c8      	lsls	r0, r1, #31
 80015a8:	d440      	bmi.n	800162c <HAL_RCC_ClockConfig+0xa8>
  if(FLatency < __HAL_FLASH_GET_LATENCY())
 80015aa:	4b3f      	ldr	r3, [pc, #252]	; (80016a8 <HAL_RCC_ClockConfig+0x124>)
 80015ac:	681a      	ldr	r2, [r3, #0]
 80015ae:	f002 020f 	and.w	r2, r2, #15
 80015b2:	4295      	cmp	r5, r2
 80015b4:	d366      	bcc.n	8001684 <HAL_RCC_ClockConfig+0x100>
  if(((RCC_ClkInitStruct->ClockType) & RCC_CLOCKTYPE_PCLK1) == RCC_CLOCKTYPE_PCLK1)
 80015b6:	6822      	ldr	r2, [r4, #0]
 80015b8:	0751      	lsls	r1, r2, #29
 80015ba:	d46c      	bmi.n	8001696 <HAL_RCC_ClockConfig+0x112>
  if(((RCC_ClkInitStruct->ClockType) & RCC_CLOCKTYPE_PCLK2) == RCC_CLOCKTYPE_PCLK2)
 80015bc:	0713      	lsls	r3, r2, #28
 80015be:	d507      	bpl.n	80015d0 <HAL_RCC_ClockConfig+0x4c>
    MODIFY_REG(RCC->CFGR, RCC_CFGR_PPRE2, ((RCC_ClkInitStruct->APB2CLKDivider) << 3U));
 80015c0:	4a3a      	ldr	r2, [pc, #232]	; (80016ac <HAL_RCC_ClockConfig+0x128>)
 80015c2:	6921      	ldr	r1, [r4, #16]
 80015c4:	6893      	ldr	r3, [r2, #8]
 80015c6:	f423 4360 	bic.w	r3, r3, #57344	; 0xe000
 80015ca:	ea43 03c1 	orr.w	r3, r3, r1, lsl #3
 80015ce:	6093      	str	r3, [r2, #8]
  SystemCoreClock = HAL_RCC_GetSysClockFreq() >> AHBPrescTable[(RCC->CFGR & RCC_CFGR_HPRE)>> RCC_CFGR_HPRE_Pos];
 80015d0:	f7ff ffaa 	bl	8001528 <HAL_RCC_GetSysClockFreq>
 80015d4:	4b35      	ldr	r3, [pc, #212]	; (80016ac <HAL_RCC_ClockConfig+0x128>)
 80015d6:	4a36      	ldr	r2, [pc, #216]	; (80016b0 <HAL_RCC_ClockConfig+0x12c>)
 80015d8:	689b      	ldr	r3, [r3, #8]
 80015da:	f3c3 1303 	ubfx	r3, r3, #4, #4
 80015de:	5cd3      	ldrb	r3, [r2, r3]
 80015e0:	40d8      	lsrs	r0, r3
 80015e2:	4b34      	ldr	r3, [pc, #208]	; (80016b4 <HAL_RCC_ClockConfig+0x130>)
 80015e4:	6018      	str	r0, [r3, #0]
  HAL_InitTick (TICK_INT_PRIORITY);
 80015e6:	2000      	movs	r0, #0
 80015e8:	f7fe ff88 	bl	80004fc <HAL_InitTick>
  return HAL_OK;
 80015ec:	2000      	movs	r0, #0
 80015ee:	e8bd 81f0 	ldmia.w	sp!, {r4, r5, r6, r7, r8, pc}
    __HAL_FLASH_SET_LATENCY(FLatency);
 80015f2:	b2ca      	uxtb	r2, r1
 80015f4:	701a      	strb	r2, [r3, #0]
    if(__HAL_FLASH_GET_LATENCY() != FLatency)
 80015f6:	681b      	ldr	r3, [r3, #0]
 80015f8:	f003 030f 	and.w	r3, r3, #15
 80015fc:	4299      	cmp	r1, r3
 80015fe:	d1c6      	bne.n	800158e <HAL_RCC_ClockConfig+0xa>
 8001600:	e7ce      	b.n	80015a0 <HAL_RCC_ClockConfig+0x1c>
 8001602:	4b2a      	ldr	r3, [pc, #168]	; (80016ac <HAL_RCC_ClockConfig+0x128>)
    if(((RCC_ClkInitStruct->ClockType) & RCC_CLOCKTYPE_PCLK1) == RCC_CLOCKTYPE_PCLK1)
 8001604:	f011 0f04 	tst.w	r1, #4
      MODIFY_REG(RCC->CFGR, RCC_CFGR_PPRE1, RCC_HCLK_DIV16);
 8001608:	bf1e      	ittt	ne
 800160a:	689a      	ldrne	r2, [r3, #8]
 800160c:	f442 52e0 	orrne.w	r2, r2, #7168	; 0x1c00
 8001610:	609a      	strne	r2, [r3, #8]
    if(((RCC_ClkInitStruct->ClockType) & RCC_CLOCKTYPE_PCLK2) == RCC_CLOCKTYPE_PCLK2)
 8001612:	070e      	lsls	r6, r1, #28
      MODIFY_REG(RCC->CFGR, RCC_CFGR_PPRE2, (RCC_HCLK_DIV16 << 3));
 8001614:	bf42      	ittt	mi
 8001616:	689a      	ldrmi	r2, [r3, #8]
 8001618:	f442 4260 	orrmi.w	r2, r2, #57344	; 0xe000
 800161c:	609a      	strmi	r2, [r3, #8]
    MODIFY_REG(RCC->CFGR, RCC_CFGR_HPRE, RCC_ClkInitStruct->AHBCLKDivider);
 800161e:	689a      	ldr	r2, [r3, #8]
 8001620:	68a0      	ldr	r0, [r4, #8]
 8001622:	f022 02f0 	bic.w	r2, r2, #240	; 0xf0
 8001626:	4302      	orrs	r2, r0
 8001628:	609a      	str	r2, [r3, #8]
 800162a:	e7bc      	b.n	80015a6 <HAL_RCC_ClockConfig+0x22>
    if(RCC_ClkInitStruct->SYSCLKSource == RCC_SYSCLKSOURCE_HSE)
 800162c:	6862      	ldr	r2, [r4, #4]
 800162e:	4b1f      	ldr	r3, [pc, #124]	; (80016ac <HAL_RCC_ClockConfig+0x128>)
 8001630:	2a01      	cmp	r2, #1
 8001632:	d11d      	bne.n	8001670 <HAL_RCC_ClockConfig+0xec>
      if(__HAL_RCC_GET_FLAG(RCC_FLAG_HSERDY) == RESET)
 8001634:	681b      	ldr	r3, [r3, #0]
 8001636:	f413 3f00 	tst.w	r3, #131072	; 0x20000
      if(__HAL_RCC_GET_FLAG(RCC_FLAG_HSIRDY) == RESET)
 800163a:	d0a8      	beq.n	800158e <HAL_RCC_ClockConfig+0xa>
    __HAL_RCC_SYSCLK_CONFIG(RCC_ClkInitStruct->SYSCLKSource);
 800163c:	4e1b      	ldr	r6, [pc, #108]	; (80016ac <HAL_RCC_ClockConfig+0x128>)
 800163e:	68b3      	ldr	r3, [r6, #8]
 8001640:	f023 0303 	bic.w	r3, r3, #3
 8001644:	4313      	orrs	r3, r2
 8001646:	60b3      	str	r3, [r6, #8]
    tickstart = HAL_GetTick();
 8001648:	f7fe ffa2 	bl	8000590 <HAL_GetTick>
      if ((HAL_GetTick() - tickstart) > CLOCKSWITCH_TIMEOUT_VALUE)
 800164c:	f241 3888 	movw	r8, #5000	; 0x1388
    tickstart = HAL_GetTick();
 8001650:	4607      	mov	r7, r0
    while (__HAL_RCC_GET_SYSCLK_SOURCE() != (RCC_ClkInitStruct->SYSCLKSource << RCC_CFGR_SWS_Pos))
 8001652:	68b3      	ldr	r3, [r6, #8]
 8001654:	6862      	ldr	r2, [r4, #4]
 8001656:	f003 030c 	and.w	r3, r3, #12
 800165a:	ebb3 0f82 	cmp.w	r3, r2, lsl #2
 800165e:	d0a4      	beq.n	80015aa <HAL_RCC_ClockConfig+0x26>
      if ((HAL_GetTick() - tickstart) > CLOCKSWITCH_TIMEOUT_VALUE)
 8001660:	f7fe ff96 	bl	8000590 <HAL_GetTick>
 8001664:	1bc0      	subs	r0, r0, r7
 8001666:	4540      	cmp	r0, r8
 8001668:	d9f3      	bls.n	8001652 <HAL_RCC_ClockConfig+0xce>
        return HAL_TIMEOUT;
 800166a:	2003      	movs	r0, #3
}
 800166c:	e8bd 81f0 	ldmia.w	sp!, {r4, r5, r6, r7, r8, pc}
    else if((RCC_ClkInitStruct->SYSCLKSource == RCC_SYSCLKSOURCE_PLLCLK)   ||
 8001670:	1e91      	subs	r1, r2, #2
 8001672:	2901      	cmp	r1, #1
      if(__HAL_RCC_GET_FLAG(RCC_FLAG_PLLRDY) == RESET)
 8001674:	681b      	ldr	r3, [r3, #0]
    else if((RCC_ClkInitStruct->SYSCLKSource == RCC_SYSCLKSOURCE_PLLCLK)   ||
 8001676:	d802      	bhi.n	800167e <HAL_RCC_ClockConfig+0xfa>
      if(__HAL_RCC_GET_FLAG(RCC_FLAG_PLLRDY) == RESET)
 8001678:	f013 7f00 	tst.w	r3, #33554432	; 0x2000000
 800167c:	e7dd      	b.n	800163a <HAL_RCC_ClockConfig+0xb6>
      if(__HAL_RCC_GET_FLAG(RCC_FLAG_HSIRDY) == RESET)
 800167e:	f013 0f02 	tst.w	r3, #2
 8001682:	e7da      	b.n	800163a <HAL_RCC_ClockConfig+0xb6>
    __HAL_FLASH_SET_LATENCY(FLatency);
 8001684:	b2ea      	uxtb	r2, r5
 8001686:	701a      	strb	r2, [r3, #0]
    if(__HAL_FLASH_GET_LATENCY() != FLatency)
 8001688:	681b      	ldr	r3, [r3, #0]
 800168a:	f003 030f 	and.w	r3, r3, #15
 800168e:	429d      	cmp	r5, r3
 8001690:	f47f af7d 	bne.w	800158e <HAL_RCC_ClockConfig+0xa>
 8001694:	e78f      	b.n	80015b6 <HAL_RCC_ClockConfig+0x32>
    MODIFY_REG(RCC->CFGR, RCC_CFGR_PPRE1, RCC_ClkInitStruct->APB1CLKDivider);
 8001696:	4905      	ldr	r1, [pc, #20]	; (80016ac <HAL_RCC_ClockConfig+0x128>)
 8001698:	68e0      	ldr	r0, [r4, #12]
 800169a:	688b      	ldr	r3, [r1, #8]
 800169c:	f423 53e0 	bic.w	r3, r3, #7168	; 0x1c00
 80016a0:	4303      	orrs	r3, r0
 80016a2:	608b      	str	r3, [r1, #8]
 80016a4:	e78a      	b.n	80015bc <HAL_RCC_ClockConfig+0x38>
 80016a6:	bf00      	nop
 80016a8:	40023c00 	.word	0x40023c00
 80016ac:	40023800 	.word	0x40023800
 80016b0:	080042a8 	.word	0x080042a8
 80016b4:	20000008 	.word	0x20000008

080016b8 <HAL_RCC_GetHCLKFreq>:
  * @retval HCLK frequency
  */
uint32_t HAL_RCC_GetHCLKFreq(void)
{
  return SystemCoreClock;
}
 80016b8:	4b01      	ldr	r3, [pc, #4]	; (80016c0 <HAL_RCC_GetHCLKFreq+0x8>)
 80016ba:	6818      	ldr	r0, [r3, #0]
 80016bc:	4770      	bx	lr
 80016be:	bf00      	nop
 80016c0:	20000008 	.word	0x20000008

080016c4 <HAL_RCC_GetPCLK1Freq>:
  * @retval PCLK1 frequency
  */
uint32_t HAL_RCC_GetPCLK1Freq(void)
{
  /* Get HCLK source and Compute PCLK1 frequency ---------------------------*/
  return (HAL_RCC_GetHCLKFreq() >> APBPrescTable[(RCC->CFGR & RCC_CFGR_PPRE1)>> RCC_CFGR_PPRE1_Pos]);
 80016c4:	4b04      	ldr	r3, [pc, #16]	; (80016d8 <HAL_RCC_GetPCLK1Freq+0x14>)
 80016c6:	4a05      	ldr	r2, [pc, #20]	; (80016dc <HAL_RCC_GetPCLK1Freq+0x18>)
 80016c8:	689b      	ldr	r3, [r3, #8]
 80016ca:	f3c3 2382 	ubfx	r3, r3, #10, #3
 80016ce:	5cd3      	ldrb	r3, [r2, r3]
 80016d0:	4a03      	ldr	r2, [pc, #12]	; (80016e0 <HAL_RCC_GetPCLK1Freq+0x1c>)
 80016d2:	6810      	ldr	r0, [r2, #0]
}
 80016d4:	40d8      	lsrs	r0, r3
 80016d6:	4770      	bx	lr
 80016d8:	40023800 	.word	0x40023800
 80016dc:	080042b8 	.word	0x080042b8
 80016e0:	20000008 	.word	0x20000008

080016e4 <HAL_RCC_GetPCLK2Freq>:
  * @retval PCLK2 frequency
  */
uint32_t HAL_RCC_GetPCLK2Freq(void)
{
  /* Get HCLK source and Compute PCLK2 frequency ---------------------------*/
  return (HAL_RCC_GetHCLKFreq()>> APBPrescTable[(RCC->CFGR & RCC_CFGR_PPRE2)>> RCC_CFGR_PPRE2_Pos]);
 80016e4:	4b04      	ldr	r3, [pc, #16]	; (80016f8 <HAL_RCC_GetPCLK2Freq+0x14>)
 80016e6:	4a05      	ldr	r2, [pc, #20]	; (80016fc <HAL_RCC_GetPCLK2Freq+0x18>)
 80016e8:	689b      	ldr	r3, [r3, #8]
 80016ea:	f3c3 3342 	ubfx	r3, r3, #13, #3
 80016ee:	5cd3      	ldrb	r3, [r2, r3]
 80016f0:	4a03      	ldr	r2, [pc, #12]	; (8001700 <HAL_RCC_GetPCLK2Freq+0x1c>)
 80016f2:	6810      	ldr	r0, [r2, #0]
}
 80016f4:	40d8      	lsrs	r0, r3
 80016f6:	4770      	bx	lr
 80016f8:	40023800 	.word	0x40023800
 80016fc:	080042b8 	.word	0x080042b8
 8001700:	20000008 	.word	0x20000008

08001704 <TIM_OC1_SetConfig>:
  uint32_t tmpccmrx;
  uint32_t tmpccer;
  uint32_t tmpcr2;

  /* Disable the Channel 1: Reset the CC1E Bit */
  TIMx->CCER &= ~TIM_CCER_CC1E;
 8001704:	6a03      	ldr	r3, [r0, #32]
 8001706:	f023 0301 	bic.w	r3, r3, #1
 800170a:	6203      	str	r3, [r0, #32]

  /* Get the TIMx CCER register value */
  tmpccer = TIMx->CCER;
 800170c:	6a03      	ldr	r3, [r0, #32]
{
 800170e:	b570      	push	{r4, r5, r6, lr}
  /* Get the TIMx CR2 register value */
  tmpcr2 =  TIMx->CR2;
 8001710:	6844      	ldr	r4, [r0, #4]

  /* Get the TIMx CCMR1 register value */
  tmpccmrx = TIMx->CCMR1;
 8001712:	6982      	ldr	r2, [r0, #24]

  /* Reset the Output Compare Mode Bits */
  tmpccmrx &= ~TIM_CCMR1_OC1M;
  tmpccmrx &= ~TIM_CCMR1_CC1S;
  /* Select the Output Compare Mode */
  tmpccmrx |= OC_Config->OCMode;
 8001714:	680d      	ldr	r5, [r1, #0]
  tmpccmrx &= ~TIM_CCMR1_CC1S;
 8001716:	f022 0273 	bic.w	r2, r2, #115	; 0x73
  tmpccmrx |= OC_Config->OCMode;
 800171a:	432a      	orrs	r2, r5

  /* Reset the Output Polarity level */
  tmpccer &= ~TIM_CCER_CC1P;
  /* Set the Output Compare Polarity */
  tmpccer |= OC_Config->OCPolarity;
 800171c:	688d      	ldr	r5, [r1, #8]
  tmpccer &= ~TIM_CCER_CC1P;
 800171e:	f023 0302 	bic.w	r3, r3, #2
  tmpccer |= OC_Config->OCPolarity;
 8001722:	432b      	orrs	r3, r5

  if (IS_TIM_CCXN_INSTANCE(TIMx, TIM_CHANNEL_1))
 8001724:	4d0e      	ldr	r5, [pc, #56]	; (8001760 <TIM_OC1_SetConfig+0x5c>)
 8001726:	42a8      	cmp	r0, r5
 8001728:	d002      	beq.n	8001730 <TIM_OC1_SetConfig+0x2c>
 800172a:	4e0e      	ldr	r6, [pc, #56]	; (8001764 <TIM_OC1_SetConfig+0x60>)
 800172c:	42b0      	cmp	r0, r6
 800172e:	d110      	bne.n	8001752 <TIM_OC1_SetConfig+0x4e>
    assert_param(IS_TIM_OCN_POLARITY(OC_Config->OCNPolarity));

    /* Reset the Output N Polarity level */
    tmpccer &= ~TIM_CCER_CC1NP;
    /* Set the Output N Polarity */
    tmpccer |= OC_Config->OCNPolarity;
 8001730:	68ce      	ldr	r6, [r1, #12]
    tmpccer &= ~TIM_CCER_CC1NP;
 8001732:	f023 0308 	bic.w	r3, r3, #8
    tmpccer |= OC_Config->OCNPolarity;
 8001736:	4333      	orrs	r3, r6
    /* Reset the Output N State */
    tmpccer &= ~TIM_CCER_CC1NE;
  }

  if (IS_TIM_BREAK_INSTANCE(TIMx))
 8001738:	42a8      	cmp	r0, r5
    tmpccer &= ~TIM_CCER_CC1NE;
 800173a:	f023 0304 	bic.w	r3, r3, #4
  if (IS_TIM_BREAK_INSTANCE(TIMx))
 800173e:	d002      	beq.n	8001746 <TIM_OC1_SetConfig+0x42>
 8001740:	4d08      	ldr	r5, [pc, #32]	; (8001764 <TIM_OC1_SetConfig+0x60>)
 8001742:	42a8      	cmp	r0, r5
 8001744:	d105      	bne.n	8001752 <TIM_OC1_SetConfig+0x4e>
    tmpcr2 &= ~TIM_CR2_OIS1;
    tmpcr2 &= ~TIM_CR2_OIS1N;
    /* Set the Output Idle state */
    tmpcr2 |= OC_Config->OCIdleState;
    /* Set the Output N Idle state */
    tmpcr2 |= OC_Config->OCNIdleState;
 8001746:	694d      	ldr	r5, [r1, #20]
 8001748:	698e      	ldr	r6, [r1, #24]
    tmpcr2 &= ~TIM_CR2_OIS1N;
 800174a:	f424 7440 	bic.w	r4, r4, #768	; 0x300
    tmpcr2 |= OC_Config->OCNIdleState;
 800174e:	4335      	orrs	r5, r6
 8001750:	432c      	orrs	r4, r5
  }

  /* Write to TIMx CR2 */
  TIMx->CR2 = tmpcr2;
 8001752:	6044      	str	r4, [r0, #4]

  /* Write to TIMx CCMR1 */
  TIMx->CCMR1 = tmpccmrx;
 8001754:	6182      	str	r2, [r0, #24]

  /* Set the Capture Compare Register value */
  TIMx->CCR1 = OC_Config->Pulse;
 8001756:	684a      	ldr	r2, [r1, #4]
 8001758:	6342      	str	r2, [r0, #52]	; 0x34

  /* Write to TIMx CCER */
  TIMx->CCER = tmpccer;
 800175a:	6203      	str	r3, [r0, #32]
 800175c:	bd70      	pop	{r4, r5, r6, pc}
 800175e:	bf00      	nop
 8001760:	40010000 	.word	0x40010000
 8001764:	40010400 	.word	0x40010400

08001768 <TIM_OC3_SetConfig>:
  uint32_t tmpccmrx;
  uint32_t tmpccer;
  uint32_t tmpcr2;

  /* Disable the Channel 3: Reset the CC2E Bit */
  TIMx->CCER &= ~TIM_CCER_CC3E;
 8001768:	6a03      	ldr	r3, [r0, #32]
 800176a:	f423 7380 	bic.w	r3, r3, #256	; 0x100
 800176e:	6203      	str	r3, [r0, #32]

  /* Get the TIMx CCER register value */
  tmpccer = TIMx->CCER;
 8001770:	6a03      	ldr	r3, [r0, #32]
{
 8001772:	b570      	push	{r4, r5, r6, lr}
  /* Get the TIMx CR2 register value */
  tmpcr2 =  TIMx->CR2;
 8001774:	6844      	ldr	r4, [r0, #4]

  /* Get the TIMx CCMR2 register value */
  tmpccmrx = TIMx->CCMR2;
 8001776:	69c2      	ldr	r2, [r0, #28]

  /* Reset the Output Compare mode and Capture/Compare selection Bits */
  tmpccmrx &= ~TIM_CCMR2_OC3M;
  tmpccmrx &= ~TIM_CCMR2_CC3S;
  /* Select the Output Compare Mode */
  tmpccmrx |= OC_Config->OCMode;
 8001778:	680d      	ldr	r5, [r1, #0]
  tmpccmrx &= ~TIM_CCMR2_CC3S;
 800177a:	f022 0273 	bic.w	r2, r2, #115	; 0x73
  tmpccmrx |= OC_Config->OCMode;
 800177e:	432a      	orrs	r2, r5

  /* Reset the Output Polarity level */
  tmpccer &= ~TIM_CCER_CC3P;
  /* Set the Output Compare Polarity */
  tmpccer |= (OC_Config->OCPolarity << 8U);
 8001780:	688d      	ldr	r5, [r1, #8]
  tmpccer &= ~TIM_CCER_CC3P;
 8001782:	f423 7300 	bic.w	r3, r3, #512	; 0x200
  tmpccer |= (OC_Config->OCPolarity << 8U);
 8001786:	ea43 2305 	orr.w	r3, r3, r5, lsl #8

  if (IS_TIM_CCXN_INSTANCE(TIMx, TIM_CHANNEL_3))
 800178a:	4d11      	ldr	r5, [pc, #68]	; (80017d0 <TIM_OC3_SetConfig+0x68>)
 800178c:	42a8      	cmp	r0, r5
 800178e:	d003      	beq.n	8001798 <TIM_OC3_SetConfig+0x30>
 8001790:	f505 6580 	add.w	r5, r5, #1024	; 0x400
 8001794:	42a8      	cmp	r0, r5
 8001796:	d114      	bne.n	80017c2 <TIM_OC3_SetConfig+0x5a>
    assert_param(IS_TIM_OCN_POLARITY(OC_Config->OCNPolarity));

    /* Reset the Output N Polarity level */
    tmpccer &= ~TIM_CCER_CC3NP;
    /* Set the Output N Polarity */
    tmpccer |= (OC_Config->OCNPolarity << 8U);
 8001798:	68cd      	ldr	r5, [r1, #12]
    tmpccer &= ~TIM_CCER_CC3NP;
 800179a:	f423 6300 	bic.w	r3, r3, #2048	; 0x800
    tmpccer |= (OC_Config->OCNPolarity << 8U);
 800179e:	ea43 2305 	orr.w	r3, r3, r5, lsl #8
    /* Reset the Output N State */
    tmpccer &= ~TIM_CCER_CC3NE;
  }

  if (IS_TIM_BREAK_INSTANCE(TIMx))
 80017a2:	4d0b      	ldr	r5, [pc, #44]	; (80017d0 <TIM_OC3_SetConfig+0x68>)
 80017a4:	42a8      	cmp	r0, r5
    tmpccer &= ~TIM_CCER_CC3NE;
 80017a6:	f423 6380 	bic.w	r3, r3, #1024	; 0x400
  if (IS_TIM_BREAK_INSTANCE(TIMx))
 80017aa:	d003      	beq.n	80017b4 <TIM_OC3_SetConfig+0x4c>
 80017ac:	f505 6580 	add.w	r5, r5, #1024	; 0x400
 80017b0:	42a8      	cmp	r0, r5
 80017b2:	d106      	bne.n	80017c2 <TIM_OC3_SetConfig+0x5a>

    /* Reset the Output Compare and Output Compare N IDLE State */
    tmpcr2 &= ~TIM_CR2_OIS3;
    tmpcr2 &= ~TIM_CR2_OIS3N;
    /* Set the Output Idle state */
    tmpcr2 |= (OC_Config->OCIdleState << 4U);
 80017b4:	694d      	ldr	r5, [r1, #20]
    /* Set the Output N Idle state */
    tmpcr2 |= (OC_Config->OCNIdleState << 4U);
 80017b6:	698e      	ldr	r6, [r1, #24]
    tmpcr2 &= ~TIM_CR2_OIS3N;
 80017b8:	f424 5440 	bic.w	r4, r4, #12288	; 0x3000
    tmpcr2 |= (OC_Config->OCNIdleState << 4U);
 80017bc:	4335      	orrs	r5, r6
 80017be:	ea44 1405 	orr.w	r4, r4, r5, lsl #4
  }

  /* Write to TIMx CR2 */
  TIMx->CR2 = tmpcr2;
 80017c2:	6044      	str	r4, [r0, #4]

  /* Write to TIMx CCMR2 */
  TIMx->CCMR2 = tmpccmrx;
 80017c4:	61c2      	str	r2, [r0, #28]

  /* Set the Capture Compare Register value */
  TIMx->CCR3 = OC_Config->Pulse;
 80017c6:	684a      	ldr	r2, [r1, #4]
 80017c8:	63c2      	str	r2, [r0, #60]	; 0x3c

  /* Write to TIMx CCER */
  TIMx->CCER = tmpccer;
 80017ca:	6203      	str	r3, [r0, #32]
 80017cc:	bd70      	pop	{r4, r5, r6, pc}
 80017ce:	bf00      	nop
 80017d0:	40010000 	.word	0x40010000

080017d4 <TIM_OC4_SetConfig>:
  uint32_t tmpccmrx;
  uint32_t tmpccer;
  uint32_t tmpcr2;

  /* Disable the Channel 4: Reset the CC4E Bit */
  TIMx->CCER &= ~TIM_CCER_CC4E;
 80017d4:	6a03      	ldr	r3, [r0, #32]
 80017d6:	f423 5380 	bic.w	r3, r3, #4096	; 0x1000
 80017da:	6203      	str	r3, [r0, #32]

  /* Get the TIMx CCER register value */
  tmpccer = TIMx->CCER;
 80017dc:	6a03      	ldr	r3, [r0, #32]
{
 80017de:	b530      	push	{r4, r5, lr}
  /* Get the TIMx CR2 register value */
  tmpcr2 =  TIMx->CR2;
 80017e0:	6844      	ldr	r4, [r0, #4]

  /* Get the TIMx CCMR2 register value */
  tmpccmrx = TIMx->CCMR2;
 80017e2:	69c2      	ldr	r2, [r0, #28]
  /* Reset the Output Compare mode and Capture/Compare selection Bits */
  tmpccmrx &= ~TIM_CCMR2_OC4M;
  tmpccmrx &= ~TIM_CCMR2_CC4S;

  /* Select the Output Compare Mode */
  tmpccmrx |= (OC_Config->OCMode << 8U);
 80017e4:	680d      	ldr	r5, [r1, #0]
  tmpccmrx &= ~TIM_CCMR2_CC4S;
 80017e6:	f422 42e6 	bic.w	r2, r2, #29440	; 0x7300
  tmpccmrx |= (OC_Config->OCMode << 8U);
 80017ea:	ea42 2205 	orr.w	r2, r2, r5, lsl #8

  /* Reset the Output Polarity level */
  tmpccer &= ~TIM_CCER_CC4P;
  /* Set the Output Compare Polarity */
  tmpccer |= (OC_Config->OCPolarity << 12U);
 80017ee:	688d      	ldr	r5, [r1, #8]
  tmpccer &= ~TIM_CCER_CC4P;
 80017f0:	f423 5300 	bic.w	r3, r3, #8192	; 0x2000
  tmpccer |= (OC_Config->OCPolarity << 12U);
 80017f4:	ea43 3305 	orr.w	r3, r3, r5, lsl #12

  if (IS_TIM_BREAK_INSTANCE(TIMx))
 80017f8:	4d08      	ldr	r5, [pc, #32]	; (800181c <TIM_OC4_SetConfig+0x48>)
 80017fa:	42a8      	cmp	r0, r5
 80017fc:	d003      	beq.n	8001806 <TIM_OC4_SetConfig+0x32>
 80017fe:	f505 6580 	add.w	r5, r5, #1024	; 0x400
 8001802:	42a8      	cmp	r0, r5
 8001804:	d104      	bne.n	8001810 <TIM_OC4_SetConfig+0x3c>

    /* Reset the Output Compare IDLE State */
    tmpcr2 &= ~TIM_CR2_OIS4;

    /* Set the Output Idle state */
    tmpcr2 |= (OC_Config->OCIdleState << 6U);
 8001806:	694d      	ldr	r5, [r1, #20]
    tmpcr2 &= ~TIM_CR2_OIS4;
 8001808:	f424 4480 	bic.w	r4, r4, #16384	; 0x4000
    tmpcr2 |= (OC_Config->OCIdleState << 6U);
 800180c:	ea44 1485 	orr.w	r4, r4, r5, lsl #6
  }

  /* Write to TIMx CR2 */
  TIMx->CR2 = tmpcr2;
 8001810:	6044      	str	r4, [r0, #4]

  /* Write to TIMx CCMR2 */
  TIMx->CCMR2 = tmpccmrx;
 8001812:	61c2      	str	r2, [r0, #28]

  /* Set the Capture Compare Register value */
  TIMx->CCR4 = OC_Config->Pulse;
 8001814:	684a      	ldr	r2, [r1, #4]
 8001816:	6402      	str	r2, [r0, #64]	; 0x40

  /* Write to TIMx CCER */
  TIMx->CCER = tmpccer;
 8001818:	6203      	str	r3, [r0, #32]
 800181a:	bd30      	pop	{r4, r5, pc}
 800181c:	40010000 	.word	0x40010000

08001820 <HAL_TIM_OC_MspInit>:
 8001820:	4770      	bx	lr

08001822 <HAL_TIM_Encoder_Start>:
{
 8001822:	6803      	ldr	r3, [r0, #0]
  switch (Channel)
 8001824:	b189      	cbz	r1, 800184a <HAL_TIM_Encoder_Start+0x28>
 8001826:	2904      	cmp	r1, #4
 8001828:	d007      	beq.n	800183a <HAL_TIM_Encoder_Start+0x18>
  assert_param(IS_TIM_CHANNELS(Channel));

  tmp = TIM_CCER_CC1E << (Channel & 0x1FU); /* 0x1FU = 31 bits max shift */

  /* Reset the CCxE Bit */
  TIMx->CCER &= ~tmp;
 800182a:	6a1a      	ldr	r2, [r3, #32]
 800182c:	f022 0201 	bic.w	r2, r2, #1
 8001830:	621a      	str	r2, [r3, #32]

  /* Set or reset the CCxE Bit */
  TIMx->CCER |= (uint32_t)(ChannelState << (Channel & 0x1FU)); /* 0x1FU = 31 bits max shift */
 8001832:	6a1a      	ldr	r2, [r3, #32]
 8001834:	f042 0201 	orr.w	r2, r2, #1
 8001838:	621a      	str	r2, [r3, #32]
  TIMx->CCER &= ~tmp;
 800183a:	6a1a      	ldr	r2, [r3, #32]
 800183c:	f022 0210 	bic.w	r2, r2, #16
 8001840:	621a      	str	r2, [r3, #32]
  TIMx->CCER |= (uint32_t)(ChannelState << (Channel & 0x1FU)); /* 0x1FU = 31 bits max shift */
 8001842:	6a1a      	ldr	r2, [r3, #32]
 8001844:	f042 0210 	orr.w	r2, r2, #16
 8001848:	e006      	b.n	8001858 <HAL_TIM_Encoder_Start+0x36>
  TIMx->CCER &= ~tmp;
 800184a:	6a1a      	ldr	r2, [r3, #32]
 800184c:	f022 0201 	bic.w	r2, r2, #1
 8001850:	621a      	str	r2, [r3, #32]
  TIMx->CCER |= (uint32_t)(ChannelState << (Channel & 0x1FU)); /* 0x1FU = 31 bits max shift */
 8001852:	6a1a      	ldr	r2, [r3, #32]
 8001854:	f042 0201 	orr.w	r2, r2, #1
 8001858:	621a      	str	r2, [r3, #32]
  __HAL_TIM_ENABLE(htim);
 800185a:	681a      	ldr	r2, [r3, #0]
 800185c:	f042 0201 	orr.w	r2, r2, #1
 8001860:	601a      	str	r2, [r3, #0]
}
 8001862:	2000      	movs	r0, #0
 8001864:	4770      	bx	lr

08001866 <HAL_TIM_Encoder_Stop>:
{
 8001866:	6803      	ldr	r3, [r0, #0]
  switch (Channel)
 8001868:	b159      	cbz	r1, 8001882 <HAL_TIM_Encoder_Stop+0x1c>
 800186a:	2904      	cmp	r1, #4
 800186c:	d005      	beq.n	800187a <HAL_TIM_Encoder_Stop+0x14>
  TIMx->CCER &= ~tmp;
 800186e:	6a1a      	ldr	r2, [r3, #32]
 8001870:	f022 0201 	bic.w	r2, r2, #1
 8001874:	621a      	str	r2, [r3, #32]
  TIMx->CCER |= (uint32_t)(ChannelState << (Channel & 0x1FU)); /* 0x1FU = 31 bits max shift */
 8001876:	6a1a      	ldr	r2, [r3, #32]
 8001878:	621a      	str	r2, [r3, #32]
  TIMx->CCER &= ~tmp;
 800187a:	6a1a      	ldr	r2, [r3, #32]
 800187c:	f022 0210 	bic.w	r2, r2, #16
 8001880:	e002      	b.n	8001888 <HAL_TIM_Encoder_Stop+0x22>
 8001882:	6a1a      	ldr	r2, [r3, #32]
 8001884:	f022 0201 	bic.w	r2, r2, #1
 8001888:	621a      	str	r2, [r3, #32]
  TIMx->CCER |= (uint32_t)(ChannelState << (Channel & 0x1FU)); /* 0x1FU = 31 bits max shift */
 800188a:	6a1a      	ldr	r2, [r3, #32]
 800188c:	621a      	str	r2, [r3, #32]
  __HAL_TIM_DISABLE(htim);
 800188e:	6a19      	ldr	r1, [r3, #32]
 8001890:	f241 1211 	movw	r2, #4369	; 0x1111
 8001894:	4211      	tst	r1, r2
 8001896:	d108      	bne.n	80018aa <HAL_TIM_Encoder_Stop+0x44>
 8001898:	6a19      	ldr	r1, [r3, #32]
 800189a:	f240 4244 	movw	r2, #1092	; 0x444
 800189e:	4211      	tst	r1, r2
 80018a0:	bf02      	ittt	eq
 80018a2:	681a      	ldreq	r2, [r3, #0]
 80018a4:	f022 0201 	biceq.w	r2, r2, #1
 80018a8:	601a      	streq	r2, [r3, #0]
}
 80018aa:	2000      	movs	r0, #0
 80018ac:	4770      	bx	lr
	...

080018b0 <TIM_Base_SetConfig>:
  if (IS_TIM_COUNTER_MODE_SELECT_INSTANCE(TIMx))
 80018b0:	4a30      	ldr	r2, [pc, #192]	; (8001974 <TIM_Base_SetConfig+0xc4>)
  tmpcr1 = TIMx->CR1;
 80018b2:	6803      	ldr	r3, [r0, #0]
  if (IS_TIM_COUNTER_MODE_SELECT_INSTANCE(TIMx))
 80018b4:	4290      	cmp	r0, r2
 80018b6:	d012      	beq.n	80018de <TIM_Base_SetConfig+0x2e>
 80018b8:	f1b0 4f80 	cmp.w	r0, #1073741824	; 0x40000000
 80018bc:	d00f      	beq.n	80018de <TIM_Base_SetConfig+0x2e>
 80018be:	f5a2 427c 	sub.w	r2, r2, #64512	; 0xfc00
 80018c2:	4290      	cmp	r0, r2
 80018c4:	d00b      	beq.n	80018de <TIM_Base_SetConfig+0x2e>
 80018c6:	f502 6280 	add.w	r2, r2, #1024	; 0x400
 80018ca:	4290      	cmp	r0, r2
 80018cc:	d007      	beq.n	80018de <TIM_Base_SetConfig+0x2e>
 80018ce:	f502 6280 	add.w	r2, r2, #1024	; 0x400
 80018d2:	4290      	cmp	r0, r2
 80018d4:	d003      	beq.n	80018de <TIM_Base_SetConfig+0x2e>
 80018d6:	f502 4278 	add.w	r2, r2, #63488	; 0xf800
 80018da:	4290      	cmp	r0, r2
 80018dc:	d119      	bne.n	8001912 <TIM_Base_SetConfig+0x62>
    tmpcr1 |= Structure->CounterMode;
 80018de:	684a      	ldr	r2, [r1, #4]
    tmpcr1 &= ~(TIM_CR1_DIR | TIM_CR1_CMS);
 80018e0:	f023 0370 	bic.w	r3, r3, #112	; 0x70
    tmpcr1 |= Structure->CounterMode;
 80018e4:	4313      	orrs	r3, r2
  if (IS_TIM_CLOCK_DIVISION_INSTANCE(TIMx))
 80018e6:	4a23      	ldr	r2, [pc, #140]	; (8001974 <TIM_Base_SetConfig+0xc4>)
 80018e8:	4290      	cmp	r0, r2
 80018ea:	d029      	beq.n	8001940 <TIM_Base_SetConfig+0x90>
 80018ec:	f1b0 4f80 	cmp.w	r0, #1073741824	; 0x40000000
 80018f0:	d026      	beq.n	8001940 <TIM_Base_SetConfig+0x90>
 80018f2:	f5a2 427c 	sub.w	r2, r2, #64512	; 0xfc00
 80018f6:	4290      	cmp	r0, r2
 80018f8:	d022      	beq.n	8001940 <TIM_Base_SetConfig+0x90>
 80018fa:	f502 6280 	add.w	r2, r2, #1024	; 0x400
 80018fe:	4290      	cmp	r0, r2
 8001900:	d01e      	beq.n	8001940 <TIM_Base_SetConfig+0x90>
 8001902:	f502 6280 	add.w	r2, r2, #1024	; 0x400
 8001906:	4290      	cmp	r0, r2
 8001908:	d01a      	beq.n	8001940 <TIM_Base_SetConfig+0x90>
 800190a:	f502 4278 	add.w	r2, r2, #63488	; 0xf800
 800190e:	4290      	cmp	r0, r2
 8001910:	d016      	beq.n	8001940 <TIM_Base_SetConfig+0x90>
 8001912:	4a19      	ldr	r2, [pc, #100]	; (8001978 <TIM_Base_SetConfig+0xc8>)
 8001914:	4290      	cmp	r0, r2
 8001916:	d013      	beq.n	8001940 <TIM_Base_SetConfig+0x90>
 8001918:	f502 6280 	add.w	r2, r2, #1024	; 0x400
 800191c:	4290      	cmp	r0, r2
 800191e:	d00f      	beq.n	8001940 <TIM_Base_SetConfig+0x90>
 8001920:	f502 6280 	add.w	r2, r2, #1024	; 0x400
 8001924:	4290      	cmp	r0, r2
 8001926:	d00b      	beq.n	8001940 <TIM_Base_SetConfig+0x90>
 8001928:	f5a2 3298 	sub.w	r2, r2, #77824	; 0x13000
 800192c:	4290      	cmp	r0, r2
 800192e:	d007      	beq.n	8001940 <TIM_Base_SetConfig+0x90>
 8001930:	f502 6280 	add.w	r2, r2, #1024	; 0x400
 8001934:	4290      	cmp	r0, r2
 8001936:	d003      	beq.n	8001940 <TIM_Base_SetConfig+0x90>
 8001938:	f502 6280 	add.w	r2, r2, #1024	; 0x400
 800193c:	4290      	cmp	r0, r2
 800193e:	d103      	bne.n	8001948 <TIM_Base_SetConfig+0x98>
    tmpcr1 |= (uint32_t)Structure->ClockDivision;
 8001940:	68ca      	ldr	r2, [r1, #12]
    tmpcr1 &= ~TIM_CR1_CKD;
 8001942:	f423 7340 	bic.w	r3, r3, #768	; 0x300
    tmpcr1 |= (uint32_t)Structure->ClockDivision;
 8001946:	4313      	orrs	r3, r2
  MODIFY_REG(tmpcr1, TIM_CR1_ARPE, Structure->AutoReloadPreload);
 8001948:	694a      	ldr	r2, [r1, #20]
 800194a:	f023 0380 	bic.w	r3, r3, #128	; 0x80
 800194e:	4313      	orrs	r3, r2
  TIMx->CR1 = tmpcr1;
 8001950:	6003      	str	r3, [r0, #0]
  TIMx->ARR = (uint32_t)Structure->Period ;
 8001952:	688b      	ldr	r3, [r1, #8]
 8001954:	62c3      	str	r3, [r0, #44]	; 0x2c
  TIMx->PSC = Structure->Prescaler;
 8001956:	680b      	ldr	r3, [r1, #0]
 8001958:	6283      	str	r3, [r0, #40]	; 0x28
  if (IS_TIM_REPETITION_COUNTER_INSTANCE(TIMx))
 800195a:	4b06      	ldr	r3, [pc, #24]	; (8001974 <TIM_Base_SetConfig+0xc4>)
 800195c:	4298      	cmp	r0, r3
 800195e:	d003      	beq.n	8001968 <TIM_Base_SetConfig+0xb8>
 8001960:	f503 6380 	add.w	r3, r3, #1024	; 0x400
 8001964:	4298      	cmp	r0, r3
 8001966:	d101      	bne.n	800196c <TIM_Base_SetConfig+0xbc>
    TIMx->RCR = Structure->RepetitionCounter;
 8001968:	690b      	ldr	r3, [r1, #16]
 800196a:	6303      	str	r3, [r0, #48]	; 0x30
  TIMx->EGR = TIM_EGR_UG;
 800196c:	2301      	movs	r3, #1
 800196e:	6143      	str	r3, [r0, #20]
 8001970:	4770      	bx	lr
 8001972:	bf00      	nop
 8001974:	40010000 	.word	0x40010000
 8001978:	40014000 	.word	0x40014000

0800197c <HAL_TIM_Base_Init>:
{
 800197c:	b510      	push	{r4, lr}
  if (htim == NULL)
 800197e:	4604      	mov	r4, r0
 8001980:	b1a0      	cbz	r0, 80019ac <HAL_TIM_Base_Init+0x30>
  if (htim->State == HAL_TIM_STATE_RESET)
 8001982:	f890 303d 	ldrb.w	r3, [r0, #61]	; 0x3d
 8001986:	f003 02ff 	and.w	r2, r3, #255	; 0xff
 800198a:	b91b      	cbnz	r3, 8001994 <HAL_TIM_Base_Init+0x18>
    htim->Lock = HAL_UNLOCKED;
 800198c:	f880 203c 	strb.w	r2, [r0, #60]	; 0x3c
    HAL_TIM_Base_MspInit(htim);
 8001990:	f002 f9a0 	bl	8003cd4 <HAL_TIM_Base_MspInit>
  htim->State = HAL_TIM_STATE_BUSY;
 8001994:	2302      	movs	r3, #2
 8001996:	f884 303d 	strb.w	r3, [r4, #61]	; 0x3d
  TIM_Base_SetConfig(htim->Instance, &htim->Init);
 800199a:	6820      	ldr	r0, [r4, #0]
 800199c:	1d21      	adds	r1, r4, #4
 800199e:	f7ff ff87 	bl	80018b0 <TIM_Base_SetConfig>
  htim->State = HAL_TIM_STATE_READY;
 80019a2:	2301      	movs	r3, #1
 80019a4:	f884 303d 	strb.w	r3, [r4, #61]	; 0x3d
  return HAL_OK;
 80019a8:	2000      	movs	r0, #0
 80019aa:	bd10      	pop	{r4, pc}
    return HAL_ERROR;
 80019ac:	2001      	movs	r0, #1
}
 80019ae:	bd10      	pop	{r4, pc}

080019b0 <HAL_TIM_OC_Init>:
{
 80019b0:	b510      	push	{r4, lr}
  if (htim == NULL)
 80019b2:	4604      	mov	r4, r0
 80019b4:	b1a0      	cbz	r0, 80019e0 <HAL_TIM_OC_Init+0x30>
  if (htim->State == HAL_TIM_STATE_RESET)
 80019b6:	f890 303d 	ldrb.w	r3, [r0, #61]	; 0x3d
 80019ba:	f003 02ff 	and.w	r2, r3, #255	; 0xff
 80019be:	b91b      	cbnz	r3, 80019c8 <HAL_TIM_OC_Init+0x18>
    htim->Lock = HAL_UNLOCKED;
 80019c0:	f880 203c 	strb.w	r2, [r0, #60]	; 0x3c
    HAL_TIM_OC_MspInit(htim);
 80019c4:	f7ff ff2c 	bl	8001820 <HAL_TIM_OC_MspInit>
  htim->State = HAL_TIM_STATE_BUSY;
 80019c8:	2302      	movs	r3, #2
 80019ca:	f884 303d 	strb.w	r3, [r4, #61]	; 0x3d
  TIM_Base_SetConfig(htim->Instance,  &htim->Init);
 80019ce:	6820      	ldr	r0, [r4, #0]
 80019d0:	1d21      	adds	r1, r4, #4
 80019d2:	f7ff ff6d 	bl	80018b0 <TIM_Base_SetConfig>
  htim->State = HAL_TIM_STATE_READY;
 80019d6:	2301      	movs	r3, #1
 80019d8:	f884 303d 	strb.w	r3, [r4, #61]	; 0x3d
  return HAL_OK;
 80019dc:	2000      	movs	r0, #0
 80019de:	bd10      	pop	{r4, pc}
    return HAL_ERROR;
 80019e0:	2001      	movs	r0, #1
}
 80019e2:	bd10      	pop	{r4, pc}

080019e4 <HAL_TIM_Encoder_Init>:
{
 80019e4:	b5f8      	push	{r3, r4, r5, r6, r7, lr}
 80019e6:	460c      	mov	r4, r1
  if (htim == NULL)
 80019e8:	4605      	mov	r5, r0
 80019ea:	2800      	cmp	r0, #0
 80019ec:	d043      	beq.n	8001a76 <HAL_TIM_Encoder_Init+0x92>
  if (htim->State == HAL_TIM_STATE_RESET)
 80019ee:	f890 303d 	ldrb.w	r3, [r0, #61]	; 0x3d
 80019f2:	f003 02ff 	and.w	r2, r3, #255	; 0xff
 80019f6:	b91b      	cbnz	r3, 8001a00 <HAL_TIM_Encoder_Init+0x1c>
    htim->Lock = HAL_UNLOCKED;
 80019f8:	f880 203c 	strb.w	r2, [r0, #60]	; 0x3c
    HAL_TIM_Encoder_MspInit(htim);
 80019fc:	f002 f982 	bl	8003d04 <HAL_TIM_Encoder_MspInit>
  htim->Instance->SMCR &= ~(TIM_SMCR_SMS | TIM_SMCR_ECE);
 8001a00:	4629      	mov	r1, r5
  htim->State = HAL_TIM_STATE_BUSY;
 8001a02:	2302      	movs	r3, #2
  htim->Instance->SMCR &= ~(TIM_SMCR_SMS | TIM_SMCR_ECE);
 8001a04:	f851 0b04 	ldr.w	r0, [r1], #4
  htim->State = HAL_TIM_STATE_BUSY;
 8001a08:	f885 303d 	strb.w	r3, [r5, #61]	; 0x3d
  htim->Instance->SMCR &= ~(TIM_SMCR_SMS | TIM_SMCR_ECE);
 8001a0c:	6883      	ldr	r3, [r0, #8]
 8001a0e:	f423 4380 	bic.w	r3, r3, #16384	; 0x4000
 8001a12:	f023 0307 	bic.w	r3, r3, #7
 8001a16:	6083      	str	r3, [r0, #8]
  TIM_Base_SetConfig(htim->Instance, &htim->Init);
 8001a18:	f7ff ff4a 	bl	80018b0 <TIM_Base_SetConfig>
  tmpsmcr = htim->Instance->SMCR;
 8001a1c:	6828      	ldr	r0, [r5, #0]
  tmpsmcr |= sConfig->EncoderMode;
 8001a1e:	6823      	ldr	r3, [r4, #0]
  tmpsmcr = htim->Instance->SMCR;
 8001a20:	6886      	ldr	r6, [r0, #8]
  tmpccmr1 = htim->Instance->CCMR1;
 8001a22:	6982      	ldr	r2, [r0, #24]
  tmpccmr1 |= (sConfig->IC1Selection | (sConfig->IC2Selection << 8U));
 8001a24:	68a1      	ldr	r1, [r4, #8]
  tmpccer = htim->Instance->CCER;
 8001a26:	6a07      	ldr	r7, [r0, #32]
  tmpsmcr |= sConfig->EncoderMode;
 8001a28:	431e      	orrs	r6, r3
  tmpccmr1 |= (sConfig->IC1Selection | (sConfig->IC2Selection << 8U));
 8001a2a:	69a3      	ldr	r3, [r4, #24]
  tmpccmr1 &= ~(TIM_CCMR1_CC1S | TIM_CCMR1_CC2S);
 8001a2c:	f422 7240 	bic.w	r2, r2, #768	; 0x300
 8001a30:	f022 0203 	bic.w	r2, r2, #3
  tmpccmr1 |= (sConfig->IC1Selection | (sConfig->IC2Selection << 8U));
 8001a34:	ea41 2303 	orr.w	r3, r1, r3, lsl #8
 8001a38:	4313      	orrs	r3, r2
  tmpccmr1 &= ~(TIM_CCMR1_IC1F | TIM_CCMR1_IC2F);
 8001a3a:	f423 427c 	bic.w	r2, r3, #64512	; 0xfc00
  tmpccmr1 |= (sConfig->IC1Filter << 4U) | (sConfig->IC2Filter << 12U);
 8001a3e:	6923      	ldr	r3, [r4, #16]
  tmpccmr1 |= sConfig->IC1Prescaler | (sConfig->IC2Prescaler << 8U);
 8001a40:	69e1      	ldr	r1, [r4, #28]
  tmpccmr1 |= (sConfig->IC1Filter << 4U) | (sConfig->IC2Filter << 12U);
 8001a42:	011b      	lsls	r3, r3, #4
 8001a44:	ea43 2301 	orr.w	r3, r3, r1, lsl #8
 8001a48:	68e1      	ldr	r1, [r4, #12]
 8001a4a:	430b      	orrs	r3, r1
 8001a4c:	6a21      	ldr	r1, [r4, #32]
  tmpccmr1 &= ~(TIM_CCMR1_IC1F | TIM_CCMR1_IC2F);
 8001a4e:	f022 02fc 	bic.w	r2, r2, #252	; 0xfc
  tmpccmr1 |= (sConfig->IC1Filter << 4U) | (sConfig->IC2Filter << 12U);
 8001a52:	ea43 3301 	orr.w	r3, r3, r1, lsl #12
 8001a56:	4313      	orrs	r3, r2
  tmpccer |= sConfig->IC1Polarity | (sConfig->IC2Polarity << 4U);
 8001a58:	6961      	ldr	r1, [r4, #20]
  tmpccer &= ~(TIM_CCER_CC1NP | TIM_CCER_CC2NP);
 8001a5a:	f027 02aa 	bic.w	r2, r7, #170	; 0xaa
  tmpccer |= sConfig->IC1Polarity | (sConfig->IC2Polarity << 4U);
 8001a5e:	6867      	ldr	r7, [r4, #4]
  htim->Instance->SMCR = tmpsmcr;
 8001a60:	6086      	str	r6, [r0, #8]
  tmpccer |= sConfig->IC1Polarity | (sConfig->IC2Polarity << 4U);
 8001a62:	ea47 1701 	orr.w	r7, r7, r1, lsl #4
  htim->Instance->CCMR1 = tmpccmr1;
 8001a66:	6183      	str	r3, [r0, #24]
  tmpccer |= sConfig->IC1Polarity | (sConfig->IC2Polarity << 4U);
 8001a68:	4317      	orrs	r7, r2
  htim->State = HAL_TIM_STATE_READY;
 8001a6a:	2301      	movs	r3, #1
  htim->Instance->CCER = tmpccer;
 8001a6c:	6207      	str	r7, [r0, #32]
  htim->State = HAL_TIM_STATE_READY;
 8001a6e:	f885 303d 	strb.w	r3, [r5, #61]	; 0x3d
  return HAL_OK;
 8001a72:	2000      	movs	r0, #0
 8001a74:	bdf8      	pop	{r3, r4, r5, r6, r7, pc}
    return HAL_ERROR;
 8001a76:	2001      	movs	r0, #1
}
 8001a78:	bdf8      	pop	{r3, r4, r5, r6, r7, pc}
	...

08001a7c <TIM_OC2_SetConfig>:
  TIMx->CCER &= ~TIM_CCER_CC2E;
 8001a7c:	6a03      	ldr	r3, [r0, #32]
 8001a7e:	f023 0310 	bic.w	r3, r3, #16
 8001a82:	6203      	str	r3, [r0, #32]
  tmpccer = TIMx->CCER;
 8001a84:	6a03      	ldr	r3, [r0, #32]
{
 8001a86:	b570      	push	{r4, r5, r6, lr}
  tmpcr2 =  TIMx->CR2;
 8001a88:	6844      	ldr	r4, [r0, #4]
  tmpccmrx = TIMx->CCMR1;
 8001a8a:	6982      	ldr	r2, [r0, #24]
  tmpccmrx |= (OC_Config->OCMode << 8U);
 8001a8c:	680d      	ldr	r5, [r1, #0]
  tmpccmrx &= ~TIM_CCMR1_CC2S;
 8001a8e:	f422 42e6 	bic.w	r2, r2, #29440	; 0x7300
  tmpccmrx |= (OC_Config->OCMode << 8U);
 8001a92:	ea42 2205 	orr.w	r2, r2, r5, lsl #8
  tmpccer |= (OC_Config->OCPolarity << 4U);
 8001a96:	688d      	ldr	r5, [r1, #8]
  tmpccer &= ~TIM_CCER_CC2P;
 8001a98:	f023 0320 	bic.w	r3, r3, #32
  tmpccer |= (OC_Config->OCPolarity << 4U);
 8001a9c:	ea43 1305 	orr.w	r3, r3, r5, lsl #4
  if (IS_TIM_CCXN_INSTANCE(TIMx, TIM_CHANNEL_2))
 8001aa0:	4d10      	ldr	r5, [pc, #64]	; (8001ae4 <TIM_OC2_SetConfig+0x68>)
 8001aa2:	42a8      	cmp	r0, r5
 8001aa4:	d003      	beq.n	8001aae <TIM_OC2_SetConfig+0x32>
 8001aa6:	f505 6580 	add.w	r5, r5, #1024	; 0x400
 8001aaa:	42a8      	cmp	r0, r5
 8001aac:	d114      	bne.n	8001ad8 <TIM_OC2_SetConfig+0x5c>
    tmpccer |= (OC_Config->OCNPolarity << 4U);
 8001aae:	68cd      	ldr	r5, [r1, #12]
    tmpccer &= ~TIM_CCER_CC2NP;
 8001ab0:	f023 0380 	bic.w	r3, r3, #128	; 0x80
    tmpccer |= (OC_Config->OCNPolarity << 4U);
 8001ab4:	ea43 1305 	orr.w	r3, r3, r5, lsl #4
  if (IS_TIM_BREAK_INSTANCE(TIMx))
 8001ab8:	4d0a      	ldr	r5, [pc, #40]	; (8001ae4 <TIM_OC2_SetConfig+0x68>)
 8001aba:	42a8      	cmp	r0, r5
    tmpccer &= ~TIM_CCER_CC2NE;
 8001abc:	f023 0340 	bic.w	r3, r3, #64	; 0x40
  if (IS_TIM_BREAK_INSTANCE(TIMx))
 8001ac0:	d003      	beq.n	8001aca <TIM_OC2_SetConfig+0x4e>
 8001ac2:	f505 6580 	add.w	r5, r5, #1024	; 0x400
 8001ac6:	42a8      	cmp	r0, r5
 8001ac8:	d106      	bne.n	8001ad8 <TIM_OC2_SetConfig+0x5c>
    tmpcr2 |= (OC_Config->OCIdleState << 2U);
 8001aca:	694d      	ldr	r5, [r1, #20]
    tmpcr2 |= (OC_Config->OCNIdleState << 2U);
 8001acc:	698e      	ldr	r6, [r1, #24]
    tmpcr2 &= ~TIM_CR2_OIS2N;
 8001ace:	f424 6440 	bic.w	r4, r4, #3072	; 0xc00
    tmpcr2 |= (OC_Config->OCNIdleState << 2U);
 8001ad2:	4335      	orrs	r5, r6
 8001ad4:	ea44 0485 	orr.w	r4, r4, r5, lsl #2
  TIMx->CR2 = tmpcr2;
 8001ad8:	6044      	str	r4, [r0, #4]
  TIMx->CCMR1 = tmpccmrx;
 8001ada:	6182      	str	r2, [r0, #24]
  TIMx->CCR2 = OC_Config->Pulse;
 8001adc:	684a      	ldr	r2, [r1, #4]
 8001ade:	6382      	str	r2, [r0, #56]	; 0x38
  TIMx->CCER = tmpccer;
 8001ae0:	6203      	str	r3, [r0, #32]
 8001ae2:	bd70      	pop	{r4, r5, r6, pc}
 8001ae4:	40010000 	.word	0x40010000

08001ae8 <HAL_TIM_OC_ConfigChannel>:
{
 8001ae8:	b538      	push	{r3, r4, r5, lr}
  __HAL_LOCK(htim);
 8001aea:	f890 303c 	ldrb.w	r3, [r0, #60]	; 0x3c
 8001aee:	2b01      	cmp	r3, #1
{
 8001af0:	4604      	mov	r4, r0
 8001af2:	f04f 0002 	mov.w	r0, #2
  __HAL_LOCK(htim);
 8001af6:	d018      	beq.n	8001b2a <HAL_TIM_OC_ConfigChannel+0x42>
 8001af8:	2301      	movs	r3, #1
 8001afa:	f884 303c 	strb.w	r3, [r4, #60]	; 0x3c
  htim->State = HAL_TIM_STATE_BUSY;
 8001afe:	f884 003d 	strb.w	r0, [r4, #61]	; 0x3d
 8001b02:	461d      	mov	r5, r3
  switch (Channel)
 8001b04:	2a0c      	cmp	r2, #12
 8001b06:	d80b      	bhi.n	8001b20 <HAL_TIM_OC_ConfigChannel+0x38>
 8001b08:	e8df f002 	tbb	[pc, r2]
 8001b0c:	0a0a0a07 	.word	0x0a0a0a07
 8001b10:	0a0a0a10 	.word	0x0a0a0a10
 8001b14:	0a0a0a14 	.word	0x0a0a0a14
 8001b18:	18          	.byte	0x18
 8001b19:	00          	.byte	0x00
      TIM_OC1_SetConfig(htim->Instance, sConfig);
 8001b1a:	6820      	ldr	r0, [r4, #0]
 8001b1c:	f7ff fdf2 	bl	8001704 <TIM_OC1_SetConfig>
  __HAL_UNLOCK(htim);
 8001b20:	2000      	movs	r0, #0
  htim->State = HAL_TIM_STATE_READY;
 8001b22:	f884 503d 	strb.w	r5, [r4, #61]	; 0x3d
  __HAL_UNLOCK(htim);
 8001b26:	f884 003c 	strb.w	r0, [r4, #60]	; 0x3c
}
 8001b2a:	bd38      	pop	{r3, r4, r5, pc}
      TIM_OC2_SetConfig(htim->Instance, sConfig);
 8001b2c:	6820      	ldr	r0, [r4, #0]
 8001b2e:	f7ff ffa5 	bl	8001a7c <TIM_OC2_SetConfig>
      break;
 8001b32:	e7f5      	b.n	8001b20 <HAL_TIM_OC_ConfigChannel+0x38>
      TIM_OC3_SetConfig(htim->Instance, sConfig);
 8001b34:	6820      	ldr	r0, [r4, #0]
 8001b36:	f7ff fe17 	bl	8001768 <TIM_OC3_SetConfig>
      break;
 8001b3a:	e7f1      	b.n	8001b20 <HAL_TIM_OC_ConfigChannel+0x38>
      TIM_OC4_SetConfig(htim->Instance, sConfig);
 8001b3c:	6820      	ldr	r0, [r4, #0]
 8001b3e:	f7ff fe49 	bl	80017d4 <TIM_OC4_SetConfig>
      break;
 8001b42:	e7ed      	b.n	8001b20 <HAL_TIM_OC_ConfigChannel+0x38>

08001b44 <TIM_ETR_SetConfig>:
{
 8001b44:	b510      	push	{r4, lr}
  tmpsmcr = TIMx->SMCR;
 8001b46:	6884      	ldr	r4, [r0, #8]
  tmpsmcr |= (uint32_t)(TIM_ExtTRGPrescaler | (TIM_ExtTRGPolarity | (ExtTRGFilter << 8U)));
 8001b48:	430a      	orrs	r2, r1
  tmpsmcr &= ~(TIM_SMCR_ETF | TIM_SMCR_ETPS | TIM_SMCR_ECE | TIM_SMCR_ETP);
 8001b4a:	f424 447f 	bic.w	r4, r4, #65280	; 0xff00
  tmpsmcr |= (uint32_t)(TIM_ExtTRGPrescaler | (TIM_ExtTRGPolarity | (ExtTRGFilter << 8U)));
 8001b4e:	ea42 2303 	orr.w	r3, r2, r3, lsl #8
 8001b52:	4323      	orrs	r3, r4
  TIMx->SMCR = tmpsmcr;
 8001b54:	6083      	str	r3, [r0, #8]
 8001b56:	bd10      	pop	{r4, pc}

08001b58 <HAL_TIM_ConfigClockSource>:
  __HAL_LOCK(htim);
 8001b58:	f890 303c 	ldrb.w	r3, [r0, #60]	; 0x3c
 8001b5c:	2b01      	cmp	r3, #1
{
 8001b5e:	b570      	push	{r4, r5, r6, lr}
 8001b60:	4604      	mov	r4, r0
 8001b62:	f04f 0002 	mov.w	r0, #2
  __HAL_LOCK(htim);
 8001b66:	d019      	beq.n	8001b9c <HAL_TIM_ConfigClockSource+0x44>
  htim->State = HAL_TIM_STATE_BUSY;
 8001b68:	f884 003d 	strb.w	r0, [r4, #61]	; 0x3d
  tmpsmcr = htim->Instance->SMCR;
 8001b6c:	6820      	ldr	r0, [r4, #0]
  __HAL_LOCK(htim);
 8001b6e:	2301      	movs	r3, #1
 8001b70:	f884 303c 	strb.w	r3, [r4, #60]	; 0x3c
  tmpsmcr = htim->Instance->SMCR;
 8001b74:	6883      	ldr	r3, [r0, #8]
  tmpsmcr &= ~(TIM_SMCR_ETF | TIM_SMCR_ETPS | TIM_SMCR_ECE | TIM_SMCR_ETP);
 8001b76:	f423 437f 	bic.w	r3, r3, #65280	; 0xff00
 8001b7a:	f023 0377 	bic.w	r3, r3, #119	; 0x77
  htim->Instance->SMCR = tmpsmcr;
 8001b7e:	6083      	str	r3, [r0, #8]
  switch (sClockSourceConfig->ClockSource)
 8001b80:	680b      	ldr	r3, [r1, #0]
 8001b82:	2b40      	cmp	r3, #64	; 0x40
 8001b84:	d065      	beq.n	8001c52 <HAL_TIM_ConfigClockSource+0xfa>
 8001b86:	d815      	bhi.n	8001bb4 <HAL_TIM_ConfigClockSource+0x5c>
 8001b88:	2b10      	cmp	r3, #16
 8001b8a:	d00c      	beq.n	8001ba6 <HAL_TIM_ConfigClockSource+0x4e>
 8001b8c:	d807      	bhi.n	8001b9e <HAL_TIM_ConfigClockSource+0x46>
 8001b8e:	b153      	cbz	r3, 8001ba6 <HAL_TIM_ConfigClockSource+0x4e>
  htim->State = HAL_TIM_STATE_READY;
 8001b90:	2301      	movs	r3, #1
  __HAL_UNLOCK(htim);
 8001b92:	2000      	movs	r0, #0
  htim->State = HAL_TIM_STATE_READY;
 8001b94:	f884 303d 	strb.w	r3, [r4, #61]	; 0x3d
  __HAL_UNLOCK(htim);
 8001b98:	f884 003c 	strb.w	r0, [r4, #60]	; 0x3c
}
 8001b9c:	bd70      	pop	{r4, r5, r6, pc}
  switch (sClockSourceConfig->ClockSource)
 8001b9e:	2b20      	cmp	r3, #32
 8001ba0:	d001      	beq.n	8001ba6 <HAL_TIM_ConfigClockSource+0x4e>
 8001ba2:	2b30      	cmp	r3, #48	; 0x30
 8001ba4:	d1f4      	bne.n	8001b90 <HAL_TIM_ConfigClockSource+0x38>
  tmpsmcr = TIMx->SMCR;
 8001ba6:	6882      	ldr	r2, [r0, #8]
  tmpsmcr |= (InputTriggerSource | TIM_SLAVEMODE_EXTERNAL1);
 8001ba8:	f043 0307 	orr.w	r3, r3, #7
  tmpsmcr &= ~TIM_SMCR_TS;
 8001bac:	f022 0270 	bic.w	r2, r2, #112	; 0x70
  tmpsmcr |= (InputTriggerSource | TIM_SLAVEMODE_EXTERNAL1);
 8001bb0:	4313      	orrs	r3, r2
 8001bb2:	e01a      	b.n	8001bea <HAL_TIM_ConfigClockSource+0x92>
  switch (sClockSourceConfig->ClockSource)
 8001bb4:	2b60      	cmp	r3, #96	; 0x60
 8001bb6:	d034      	beq.n	8001c22 <HAL_TIM_ConfigClockSource+0xca>
 8001bb8:	d819      	bhi.n	8001bee <HAL_TIM_ConfigClockSource+0x96>
 8001bba:	2b50      	cmp	r3, #80	; 0x50
 8001bbc:	d1e8      	bne.n	8001b90 <HAL_TIM_ConfigClockSource+0x38>
      TIM_TI1_ConfigInputStage(htim->Instance,
 8001bbe:	684a      	ldr	r2, [r1, #4]
 8001bc0:	68ce      	ldr	r6, [r1, #12]
  tmpccer = TIMx->CCER;
 8001bc2:	6a01      	ldr	r1, [r0, #32]
  TIMx->CCER &= ~TIM_CCER_CC1E;
 8001bc4:	6a05      	ldr	r5, [r0, #32]
 8001bc6:	f025 0501 	bic.w	r5, r5, #1
 8001bca:	6205      	str	r5, [r0, #32]
  tmpccmr1 = TIMx->CCMR1;
 8001bcc:	6983      	ldr	r3, [r0, #24]
  tmpccer &= ~(TIM_CCER_CC1P | TIM_CCER_CC1NP);
 8001bce:	f021 010a 	bic.w	r1, r1, #10
  tmpccmr1 &= ~TIM_CCMR1_IC1F;
 8001bd2:	f023 03f0 	bic.w	r3, r3, #240	; 0xf0
  tmpccmr1 |= (TIM_ICFilter << 4U);
 8001bd6:	ea43 1306 	orr.w	r3, r3, r6, lsl #4
  tmpccer |= TIM_ICPolarity;
 8001bda:	430a      	orrs	r2, r1
  TIMx->CCMR1 = tmpccmr1;
 8001bdc:	6183      	str	r3, [r0, #24]
  TIMx->CCER = tmpccer;
 8001bde:	6202      	str	r2, [r0, #32]
  tmpsmcr = TIMx->SMCR;
 8001be0:	6883      	ldr	r3, [r0, #8]
  tmpsmcr &= ~TIM_SMCR_TS;
 8001be2:	f023 0370 	bic.w	r3, r3, #112	; 0x70
  tmpsmcr |= (InputTriggerSource | TIM_SLAVEMODE_EXTERNAL1);
 8001be6:	f043 0357 	orr.w	r3, r3, #87	; 0x57
  TIMx->SMCR = tmpsmcr;
 8001bea:	6083      	str	r3, [r0, #8]
 8001bec:	e7d0      	b.n	8001b90 <HAL_TIM_ConfigClockSource+0x38>
  switch (sClockSourceConfig->ClockSource)
 8001bee:	2b70      	cmp	r3, #112	; 0x70
 8001bf0:	d00c      	beq.n	8001c0c <HAL_TIM_ConfigClockSource+0xb4>
 8001bf2:	f5b3 5f00 	cmp.w	r3, #8192	; 0x2000
 8001bf6:	d1cb      	bne.n	8001b90 <HAL_TIM_ConfigClockSource+0x38>
      TIM_ETR_SetConfig(htim->Instance,
 8001bf8:	68cb      	ldr	r3, [r1, #12]
 8001bfa:	684a      	ldr	r2, [r1, #4]
 8001bfc:	6889      	ldr	r1, [r1, #8]
 8001bfe:	f7ff ffa1 	bl	8001b44 <TIM_ETR_SetConfig>
      htim->Instance->SMCR |= TIM_SMCR_ECE;
 8001c02:	6822      	ldr	r2, [r4, #0]
 8001c04:	6893      	ldr	r3, [r2, #8]
 8001c06:	f443 4380 	orr.w	r3, r3, #16384	; 0x4000
 8001c0a:	e008      	b.n	8001c1e <HAL_TIM_ConfigClockSource+0xc6>
      TIM_ETR_SetConfig(htim->Instance,
 8001c0c:	68cb      	ldr	r3, [r1, #12]
 8001c0e:	684a      	ldr	r2, [r1, #4]
 8001c10:	6889      	ldr	r1, [r1, #8]
 8001c12:	f7ff ff97 	bl	8001b44 <TIM_ETR_SetConfig>
      tmpsmcr = htim->Instance->SMCR;
 8001c16:	6822      	ldr	r2, [r4, #0]
 8001c18:	6893      	ldr	r3, [r2, #8]
      tmpsmcr |= (TIM_SLAVEMODE_EXTERNAL1 | TIM_CLOCKSOURCE_ETRMODE1);
 8001c1a:	f043 0377 	orr.w	r3, r3, #119	; 0x77
      htim->Instance->SMCR |= TIM_SMCR_ECE;
 8001c1e:	6093      	str	r3, [r2, #8]
      break;
 8001c20:	e7b6      	b.n	8001b90 <HAL_TIM_ConfigClockSource+0x38>
      TIM_TI2_ConfigInputStage(htim->Instance,
 8001c22:	684d      	ldr	r5, [r1, #4]
 8001c24:	68ce      	ldr	r6, [r1, #12]
  TIMx->CCER &= ~TIM_CCER_CC2E;
 8001c26:	6a01      	ldr	r1, [r0, #32]
 8001c28:	f021 0110 	bic.w	r1, r1, #16
 8001c2c:	6201      	str	r1, [r0, #32]
  tmpccmr1 = TIMx->CCMR1;
 8001c2e:	6982      	ldr	r2, [r0, #24]
  tmpccer = TIMx->CCER;
 8001c30:	6a03      	ldr	r3, [r0, #32]
  tmpccmr1 &= ~TIM_CCMR1_IC2F;
 8001c32:	f422 4270 	bic.w	r2, r2, #61440	; 0xf000
  tmpccer &= ~(TIM_CCER_CC2P | TIM_CCER_CC2NP);
 8001c36:	f023 03a0 	bic.w	r3, r3, #160	; 0xa0
  tmpccer |= (TIM_ICPolarity << 4U);
 8001c3a:	ea43 1305 	orr.w	r3, r3, r5, lsl #4
  tmpccmr1 |= (TIM_ICFilter << 12U);
 8001c3e:	ea42 3206 	orr.w	r2, r2, r6, lsl #12
  TIMx->CCMR1 = tmpccmr1 ;
 8001c42:	6182      	str	r2, [r0, #24]
  TIMx->CCER = tmpccer;
 8001c44:	6203      	str	r3, [r0, #32]
  tmpsmcr = TIMx->SMCR;
 8001c46:	6883      	ldr	r3, [r0, #8]
  tmpsmcr &= ~TIM_SMCR_TS;
 8001c48:	f023 0370 	bic.w	r3, r3, #112	; 0x70
  tmpsmcr |= (InputTriggerSource | TIM_SLAVEMODE_EXTERNAL1);
 8001c4c:	f043 0367 	orr.w	r3, r3, #103	; 0x67
 8001c50:	e7cb      	b.n	8001bea <HAL_TIM_ConfigClockSource+0x92>
      TIM_TI1_ConfigInputStage(htim->Instance,
 8001c52:	684a      	ldr	r2, [r1, #4]
 8001c54:	68ce      	ldr	r6, [r1, #12]
  tmpccer = TIMx->CCER;
 8001c56:	6a01      	ldr	r1, [r0, #32]
  TIMx->CCER &= ~TIM_CCER_CC1E;
 8001c58:	6a05      	ldr	r5, [r0, #32]
 8001c5a:	f025 0501 	bic.w	r5, r5, #1
 8001c5e:	6205      	str	r5, [r0, #32]
  tmpccmr1 = TIMx->CCMR1;
 8001c60:	6983      	ldr	r3, [r0, #24]
  tmpccer &= ~(TIM_CCER_CC1P | TIM_CCER_CC1NP);
 8001c62:	f021 010a 	bic.w	r1, r1, #10
  tmpccmr1 &= ~TIM_CCMR1_IC1F;
 8001c66:	f023 03f0 	bic.w	r3, r3, #240	; 0xf0
  tmpccmr1 |= (TIM_ICFilter << 4U);
 8001c6a:	ea43 1306 	orr.w	r3, r3, r6, lsl #4
  tmpccer |= TIM_ICPolarity;
 8001c6e:	430a      	orrs	r2, r1
  TIMx->CCMR1 = tmpccmr1;
 8001c70:	6183      	str	r3, [r0, #24]
  TIMx->CCER = tmpccer;
 8001c72:	6202      	str	r2, [r0, #32]
  tmpsmcr = TIMx->SMCR;
 8001c74:	6883      	ldr	r3, [r0, #8]
  tmpsmcr &= ~TIM_SMCR_TS;
 8001c76:	f023 0370 	bic.w	r3, r3, #112	; 0x70
  tmpsmcr |= (InputTriggerSource | TIM_SLAVEMODE_EXTERNAL1);
 8001c7a:	f043 0347 	orr.w	r3, r3, #71	; 0x47
 8001c7e:	e7b4      	b.n	8001bea <HAL_TIM_ConfigClockSource+0x92>

08001c80 <TIM_CCxChannelCmd>:
  TIMx->CCER &= ~tmp;
 8001c80:	6a03      	ldr	r3, [r0, #32]
  tmp = TIM_CCER_CC1E << (Channel & 0x1FU); /* 0x1FU = 31 bits max shift */
 8001c82:	f001 011f 	and.w	r1, r1, #31
{
 8001c86:	b510      	push	{r4, lr}
  tmp = TIM_CCER_CC1E << (Channel & 0x1FU); /* 0x1FU = 31 bits max shift */
 8001c88:	2401      	movs	r4, #1
 8001c8a:	408c      	lsls	r4, r1
  TIMx->CCER &= ~tmp;
 8001c8c:	ea23 0304 	bic.w	r3, r3, r4
 8001c90:	6203      	str	r3, [r0, #32]
  TIMx->CCER |= (uint32_t)(ChannelState << (Channel & 0x1FU)); /* 0x1FU = 31 bits max shift */
 8001c92:	6a03      	ldr	r3, [r0, #32]
 8001c94:	408a      	lsls	r2, r1
 8001c96:	431a      	orrs	r2, r3
 8001c98:	6202      	str	r2, [r0, #32]
 8001c9a:	bd10      	pop	{r4, pc}

08001c9c <HAL_TIM_OC_Stop>:
{
 8001c9c:	b510      	push	{r4, lr}
 8001c9e:	4604      	mov	r4, r0
  TIM_CCxChannelCmd(htim->Instance, Channel, TIM_CCx_DISABLE);
 8001ca0:	2200      	movs	r2, #0
 8001ca2:	6800      	ldr	r0, [r0, #0]
 8001ca4:	f7ff ffec 	bl	8001c80 <TIM_CCxChannelCmd>
  if (IS_TIM_BREAK_INSTANCE(htim->Instance) != RESET)
 8001ca8:	6823      	ldr	r3, [r4, #0]
 8001caa:	4a12      	ldr	r2, [pc, #72]	; (8001cf4 <HAL_TIM_OC_Stop+0x58>)
 8001cac:	4293      	cmp	r3, r2
 8001cae:	d003      	beq.n	8001cb8 <HAL_TIM_OC_Stop+0x1c>
 8001cb0:	f502 6280 	add.w	r2, r2, #1024	; 0x400
 8001cb4:	4293      	cmp	r3, r2
 8001cb6:	d10d      	bne.n	8001cd4 <HAL_TIM_OC_Stop+0x38>
    __HAL_TIM_MOE_DISABLE(htim);
 8001cb8:	6a19      	ldr	r1, [r3, #32]
 8001cba:	f241 1211 	movw	r2, #4369	; 0x1111
 8001cbe:	4211      	tst	r1, r2
 8001cc0:	d108      	bne.n	8001cd4 <HAL_TIM_OC_Stop+0x38>
 8001cc2:	6a19      	ldr	r1, [r3, #32]
 8001cc4:	f240 4244 	movw	r2, #1092	; 0x444
 8001cc8:	4211      	tst	r1, r2
 8001cca:	bf02      	ittt	eq
 8001ccc:	6c5a      	ldreq	r2, [r3, #68]	; 0x44
 8001cce:	f422 4200 	biceq.w	r2, r2, #32768	; 0x8000
 8001cd2:	645a      	streq	r2, [r3, #68]	; 0x44
  __HAL_TIM_DISABLE(htim);
 8001cd4:	6a19      	ldr	r1, [r3, #32]
 8001cd6:	f241 1211 	movw	r2, #4369	; 0x1111
 8001cda:	4211      	tst	r1, r2
 8001cdc:	d108      	bne.n	8001cf0 <HAL_TIM_OC_Stop+0x54>
 8001cde:	6a19      	ldr	r1, [r3, #32]
 8001ce0:	f240 4244 	movw	r2, #1092	; 0x444
 8001ce4:	4211      	tst	r1, r2
 8001ce6:	d103      	bne.n	8001cf0 <HAL_TIM_OC_Stop+0x54>
 8001ce8:	681a      	ldr	r2, [r3, #0]
 8001cea:	f022 0201 	bic.w	r2, r2, #1
 8001cee:	601a      	str	r2, [r3, #0]
}
 8001cf0:	2000      	movs	r0, #0
 8001cf2:	bd10      	pop	{r4, pc}
 8001cf4:	40010000 	.word	0x40010000

08001cf8 <HAL_TIM_PWM_Start>:
{
 8001cf8:	b510      	push	{r4, lr}
 8001cfa:	4604      	mov	r4, r0
  TIM_CCxChannelCmd(htim->Instance, Channel, TIM_CCx_ENABLE);
 8001cfc:	2201      	movs	r2, #1
 8001cfe:	6800      	ldr	r0, [r0, #0]
 8001d00:	f7ff ffbe 	bl	8001c80 <TIM_CCxChannelCmd>
  if (IS_TIM_BREAK_INSTANCE(htim->Instance) != RESET)
 8001d04:	6823      	ldr	r3, [r4, #0]
 8001d06:	4a0b      	ldr	r2, [pc, #44]	; (8001d34 <HAL_TIM_PWM_Start+0x3c>)
 8001d08:	4293      	cmp	r3, r2
 8001d0a:	d00e      	beq.n	8001d2a <HAL_TIM_PWM_Start+0x32>
 8001d0c:	f502 6280 	add.w	r2, r2, #1024	; 0x400
 8001d10:	4293      	cmp	r3, r2
 8001d12:	d00a      	beq.n	8001d2a <HAL_TIM_PWM_Start+0x32>
  tmpsmcr = htim->Instance->SMCR & TIM_SMCR_SMS;
 8001d14:	689a      	ldr	r2, [r3, #8]
 8001d16:	f002 0207 	and.w	r2, r2, #7
  if (!IS_TIM_SLAVEMODE_TRIGGER_ENABLED(tmpsmcr))
 8001d1a:	2a06      	cmp	r2, #6
 8001d1c:	d003      	beq.n	8001d26 <HAL_TIM_PWM_Start+0x2e>
    __HAL_TIM_ENABLE(htim);
 8001d1e:	681a      	ldr	r2, [r3, #0]
 8001d20:	f042 0201 	orr.w	r2, r2, #1
 8001d24:	601a      	str	r2, [r3, #0]
}
 8001d26:	2000      	movs	r0, #0
 8001d28:	bd10      	pop	{r4, pc}
    __HAL_TIM_MOE_ENABLE(htim);
 8001d2a:	6c5a      	ldr	r2, [r3, #68]	; 0x44
 8001d2c:	f442 4200 	orr.w	r2, r2, #32768	; 0x8000
 8001d30:	645a      	str	r2, [r3, #68]	; 0x44
 8001d32:	e7ef      	b.n	8001d14 <HAL_TIM_PWM_Start+0x1c>
 8001d34:	40010000 	.word	0x40010000

08001d38 <HAL_TIM_OC_Start>:
 8001d38:	f7ff bfde 	b.w	8001cf8 <HAL_TIM_PWM_Start>

08001d3c <HAL_TIMEx_MasterConfigSynchronization>:
  assert_param(IS_TIM_SYNCHRO_INSTANCE(htim->Instance));
  assert_param(IS_TIM_TRGO_SOURCE(sMasterConfig->MasterOutputTrigger));
  assert_param(IS_TIM_MSM_STATE(sMasterConfig->MasterSlaveMode));

  /* Check input state */
  __HAL_LOCK(htim);
 8001d3c:	f890 303c 	ldrb.w	r3, [r0, #60]	; 0x3c
 8001d40:	2b01      	cmp	r3, #1
{
 8001d42:	b530      	push	{r4, r5, lr}
 8001d44:	f04f 0302 	mov.w	r3, #2
  __HAL_LOCK(htim);
 8001d48:	d014      	beq.n	8001d74 <HAL_TIMEx_MasterConfigSynchronization+0x38>

  /* Change the handler state */
  htim->State = HAL_TIM_STATE_BUSY;

  /* Get the TIMx CR2 register value */
  tmpcr2 = htim->Instance->CR2;
 8001d4a:	6804      	ldr	r4, [r0, #0]
  htim->State = HAL_TIM_STATE_BUSY;
 8001d4c:	f880 303d 	strb.w	r3, [r0, #61]	; 0x3d
  tmpcr2 = htim->Instance->CR2;
 8001d50:	6862      	ldr	r2, [r4, #4]

  /* Get the TIMx SMCR register value */
  tmpsmcr = htim->Instance->SMCR;
 8001d52:	68a3      	ldr	r3, [r4, #8]

  /* Reset the MMS Bits */
  tmpcr2 &= ~TIM_CR2_MMS;
  /* Select the TRGO source */
  tmpcr2 |=  sMasterConfig->MasterOutputTrigger;
 8001d54:	680d      	ldr	r5, [r1, #0]

  /* Reset the MSM Bit */
  tmpsmcr &= ~TIM_SMCR_MSM;
  /* Set master mode */
  tmpsmcr |= sMasterConfig->MasterSlaveMode;
 8001d56:	6849      	ldr	r1, [r1, #4]
  tmpcr2 &= ~TIM_CR2_MMS;
 8001d58:	f022 0270 	bic.w	r2, r2, #112	; 0x70
  tmpsmcr &= ~TIM_SMCR_MSM;
 8001d5c:	f023 0380 	bic.w	r3, r3, #128	; 0x80
  tmpsmcr |= sMasterConfig->MasterSlaveMode;
 8001d60:	430b      	orrs	r3, r1
  tmpcr2 |=  sMasterConfig->MasterOutputTrigger;
 8001d62:	432a      	orrs	r2, r5

  /* Update TIMx CR2 */
  htim->Instance->CR2 = tmpcr2;
 8001d64:	6062      	str	r2, [r4, #4]

  /* Update TIMx SMCR */
  htim->Instance->SMCR = tmpsmcr;
 8001d66:	60a3      	str	r3, [r4, #8]

  /* Change the htim state */
  htim->State = HAL_TIM_STATE_READY;
 8001d68:	2301      	movs	r3, #1
 8001d6a:	f880 303d 	strb.w	r3, [r0, #61]	; 0x3d

  __HAL_UNLOCK(htim);
 8001d6e:	2300      	movs	r3, #0
 8001d70:	f880 303c 	strb.w	r3, [r0, #60]	; 0x3c
  __HAL_LOCK(htim);
 8001d74:	4618      	mov	r0, r3

  return HAL_OK;
}
 8001d76:	bd30      	pop	{r4, r5, pc}

08001d78 <HAL_TIMEx_ConfigBreakDeadTime>:
  assert_param(IS_TIM_BREAK_STATE(sBreakDeadTimeConfig->BreakState));
  assert_param(IS_TIM_BREAK_POLARITY(sBreakDeadTimeConfig->BreakPolarity));
  assert_param(IS_TIM_AUTOMATIC_OUTPUT_STATE(sBreakDeadTimeConfig->AutomaticOutput));

  /* Check input state */
  __HAL_LOCK(htim);
 8001d78:	f890 303c 	ldrb.w	r3, [r0, #60]	; 0x3c
 8001d7c:	2b01      	cmp	r3, #1
 8001d7e:	d01f      	beq.n	8001dc0 <HAL_TIMEx_ConfigBreakDeadTime+0x48>
  /* Set the Lock level, the Break enable Bit and the Polarity, the OSSR State,
     the OSSI State, the dead time value and the Automatic Output Enable Bit */

  /* Set the BDTR bits */
  MODIFY_REG(tmpbdtr, TIM_BDTR_DTG, sBreakDeadTimeConfig->DeadTime);
  MODIFY_REG(tmpbdtr, TIM_BDTR_LOCK, sBreakDeadTimeConfig->LockLevel);
 8001d80:	68cb      	ldr	r3, [r1, #12]
 8001d82:	688a      	ldr	r2, [r1, #8]
 8001d84:	f423 7340 	bic.w	r3, r3, #768	; 0x300
 8001d88:	4313      	orrs	r3, r2
  MODIFY_REG(tmpbdtr, TIM_BDTR_OSSI, sBreakDeadTimeConfig->OffStateIDLEMode);
 8001d8a:	684a      	ldr	r2, [r1, #4]
 8001d8c:	f423 6380 	bic.w	r3, r3, #1024	; 0x400
 8001d90:	4313      	orrs	r3, r2
  MODIFY_REG(tmpbdtr, TIM_BDTR_OSSR, sBreakDeadTimeConfig->OffStateRunMode);
 8001d92:	680a      	ldr	r2, [r1, #0]
 8001d94:	f423 6300 	bic.w	r3, r3, #2048	; 0x800
 8001d98:	4313      	orrs	r3, r2
  MODIFY_REG(tmpbdtr, TIM_BDTR_BKE, sBreakDeadTimeConfig->BreakState);
 8001d9a:	690a      	ldr	r2, [r1, #16]
 8001d9c:	f423 5380 	bic.w	r3, r3, #4096	; 0x1000
 8001da0:	4313      	orrs	r3, r2
  MODIFY_REG(tmpbdtr, TIM_BDTR_BKP, sBreakDeadTimeConfig->BreakPolarity);
 8001da2:	694a      	ldr	r2, [r1, #20]
 8001da4:	f423 5300 	bic.w	r3, r3, #8192	; 0x2000
 8001da8:	4313      	orrs	r3, r2
  MODIFY_REG(tmpbdtr, TIM_BDTR_AOE, sBreakDeadTimeConfig->AutomaticOutput);
 8001daa:	69ca      	ldr	r2, [r1, #28]
 8001dac:	f423 4380 	bic.w	r3, r3, #16384	; 0x4000
 8001db0:	4313      	orrs	r3, r2


  /* Set TIMx_BDTR */
  htim->Instance->BDTR = tmpbdtr;
 8001db2:	6802      	ldr	r2, [r0, #0]
 8001db4:	6453      	str	r3, [r2, #68]	; 0x44

  __HAL_UNLOCK(htim);
 8001db6:	2300      	movs	r3, #0
 8001db8:	f880 303c 	strb.w	r3, [r0, #60]	; 0x3c

  return HAL_OK;
 8001dbc:	4618      	mov	r0, r3
 8001dbe:	4770      	bx	lr
  __HAL_LOCK(htim);
 8001dc0:	2002      	movs	r0, #2
}
 8001dc2:	4770      	bx	lr

08001dc4 <UART_EndRxTransfer>:
  * @retval None
  */
static void UART_EndRxTransfer(UART_HandleTypeDef *huart)
{
  /* Disable RXNE, PE and ERR (Frame error, noise error, overrun error) interrupts */
  CLEAR_BIT(huart->Instance->CR1, (USART_CR1_RXNEIE | USART_CR1_PEIE));
 8001dc4:	6803      	ldr	r3, [r0, #0]
 8001dc6:	68da      	ldr	r2, [r3, #12]
 8001dc8:	f422 7290 	bic.w	r2, r2, #288	; 0x120
 8001dcc:	60da      	str	r2, [r3, #12]
  CLEAR_BIT(huart->Instance->CR3, USART_CR3_EIE);
 8001dce:	695a      	ldr	r2, [r3, #20]
 8001dd0:	f022 0201 	bic.w	r2, r2, #1
 8001dd4:	615a      	str	r2, [r3, #20]

  /* At end of Rx process, restore huart->RxState to Ready */
  huart->RxState = HAL_UART_STATE_READY;
 8001dd6:	2320      	movs	r3, #32
 8001dd8:	f880 303a 	strb.w	r3, [r0, #58]	; 0x3a
 8001ddc:	4770      	bx	lr
	...

08001de0 <UART_SetConfig>:
  * @param  huart  Pointer to a UART_HandleTypeDef structure that contains
  *                the configuration information for the specified UART module.
  * @retval None
  */
static void UART_SetConfig(UART_HandleTypeDef *huart)
{
 8001de0:	e92d 47f0 	stmdb	sp!, {r4, r5, r6, r7, r8, r9, sl, lr}
  assert_param(IS_UART_MODE(huart->Init.Mode));

  /*-------------------------- USART CR2 Configuration -----------------------*/
  /* Configure the UART Stop Bits: Set STOP[13:12] bits
     according to huart->Init.StopBits value */
  MODIFY_REG(huart->Instance->CR2, USART_CR2_STOP, huart->Init.StopBits);
 8001de4:	6806      	ldr	r6, [r0, #0]
 8001de6:	68c2      	ldr	r2, [r0, #12]
 8001de8:	6933      	ldr	r3, [r6, #16]
     Set the M bits according to huart->Init.WordLength value
     Set PCE and PS bits according to huart->Init.Parity value
     Set TE and RE bits according to huart->Init.Mode value
     Set OVER8 bit according to huart->Init.OverSampling value */

  tmpreg = (uint32_t)huart->Init.WordLength | huart->Init.Parity | huart->Init.Mode | huart->Init.OverSampling;
 8001dea:	69c1      	ldr	r1, [r0, #28]
  MODIFY_REG(huart->Instance->CR2, USART_CR2_STOP, huart->Init.StopBits);
 8001dec:	f423 5340 	bic.w	r3, r3, #12288	; 0x3000
 8001df0:	4313      	orrs	r3, r2
 8001df2:	6133      	str	r3, [r6, #16]
{
 8001df4:	4604      	mov	r4, r0
  tmpreg = (uint32_t)huart->Init.WordLength | huart->Init.Parity | huart->Init.Mode | huart->Init.OverSampling;
 8001df6:	6883      	ldr	r3, [r0, #8]
 8001df8:	6900      	ldr	r0, [r0, #16]
  MODIFY_REG(huart->Instance->CR1,
 8001dfa:	68f2      	ldr	r2, [r6, #12]
  tmpreg = (uint32_t)huart->Init.WordLength | huart->Init.Parity | huart->Init.Mode | huart->Init.OverSampling;
 8001dfc:	4303      	orrs	r3, r0
 8001dfe:	6960      	ldr	r0, [r4, #20]
  MODIFY_REG(huart->Instance->CR1,
 8001e00:	f422 4216 	bic.w	r2, r2, #38400	; 0x9600
  tmpreg = (uint32_t)huart->Init.WordLength | huart->Init.Parity | huart->Init.Mode | huart->Init.OverSampling;
 8001e04:	4303      	orrs	r3, r0
  MODIFY_REG(huart->Instance->CR1,
 8001e06:	f022 020c 	bic.w	r2, r2, #12
  tmpreg = (uint32_t)huart->Init.WordLength | huart->Init.Parity | huart->Init.Mode | huart->Init.OverSampling;
 8001e0a:	430b      	orrs	r3, r1
  MODIFY_REG(huart->Instance->CR1,
 8001e0c:	4313      	orrs	r3, r2
 8001e0e:	60f3      	str	r3, [r6, #12]
             (uint32_t)(USART_CR1_M | USART_CR1_PCE | USART_CR1_PS | USART_CR1_TE | USART_CR1_RE | USART_CR1_OVER8),
             tmpreg);

  /*-------------------------- USART CR3 Configuration -----------------------*/
  /* Configure the UART HFC: Set CTSE and RTSE bits according to huart->Init.HwFlowCtl value */
  MODIFY_REG(huart->Instance->CR3, (USART_CR3_RTSE | USART_CR3_CTSE), huart->Init.HwFlowCtl);
 8001e10:	6973      	ldr	r3, [r6, #20]
 8001e12:	69a2      	ldr	r2, [r4, #24]
 8001e14:	f423 7340 	bic.w	r3, r3, #768	; 0x300
 8001e18:	4313      	orrs	r3, r2

  /* Check the Over Sampling */
  if (huart->Init.OverSampling == UART_OVERSAMPLING_8)
 8001e1a:	f5b1 4f00 	cmp.w	r1, #32768	; 0x8000
  MODIFY_REG(huart->Instance->CR3, (USART_CR3_RTSE | USART_CR3_CTSE), huart->Init.HwFlowCtl);
 8001e1e:	6173      	str	r3, [r6, #20]
 8001e20:	4b7a      	ldr	r3, [pc, #488]	; (800200c <UART_SetConfig+0x22c>)
  if (huart->Init.OverSampling == UART_OVERSAMPLING_8)
 8001e22:	d17c      	bne.n	8001f1e <UART_SetConfig+0x13e>
  {
    /*-------------------------- USART BRR Configuration ---------------------*/
#if defined(USART6)
    if ((huart->Instance == USART1) || (huart->Instance == USART6))
 8001e24:	429e      	cmp	r6, r3
 8001e26:	d003      	beq.n	8001e30 <UART_SetConfig+0x50>
 8001e28:	f503 6380 	add.w	r3, r3, #1024	; 0x400
 8001e2c:	429e      	cmp	r6, r3
 8001e2e:	d144      	bne.n	8001eba <UART_SetConfig+0xda>
    {
      huart->Instance->BRR = UART_BRR_SAMPLING8(HAL_RCC_GetPCLK2Freq(), huart->Init.BaudRate);
 8001e30:	f7ff fc58 	bl	80016e4 <HAL_RCC_GetPCLK2Freq>
 8001e34:	2519      	movs	r5, #25
 8001e36:	fb05 f300 	mul.w	r3, r5, r0
 8001e3a:	6860      	ldr	r0, [r4, #4]
 8001e3c:	f04f 0964 	mov.w	r9, #100	; 0x64
 8001e40:	0040      	lsls	r0, r0, #1
 8001e42:	fbb3 f3f0 	udiv	r3, r3, r0
 8001e46:	fbb3 f3f9 	udiv	r3, r3, r9
 8001e4a:	ea4f 1803 	mov.w	r8, r3, lsl #4
 8001e4e:	f7ff fc49 	bl	80016e4 <HAL_RCC_GetPCLK2Freq>
 8001e52:	6863      	ldr	r3, [r4, #4]
 8001e54:	4368      	muls	r0, r5
 8001e56:	005b      	lsls	r3, r3, #1
 8001e58:	fbb0 f7f3 	udiv	r7, r0, r3
 8001e5c:	f7ff fc42 	bl	80016e4 <HAL_RCC_GetPCLK2Freq>
 8001e60:	6863      	ldr	r3, [r4, #4]
 8001e62:	4368      	muls	r0, r5
 8001e64:	005b      	lsls	r3, r3, #1
 8001e66:	fbb0 f3f3 	udiv	r3, r0, r3
 8001e6a:	fbb3 f3f9 	udiv	r3, r3, r9
 8001e6e:	fb09 7313 	mls	r3, r9, r3, r7
 8001e72:	00db      	lsls	r3, r3, #3
 8001e74:	3332      	adds	r3, #50	; 0x32
 8001e76:	fbb3 f3f9 	udiv	r3, r3, r9
 8001e7a:	005b      	lsls	r3, r3, #1
 8001e7c:	f403 77f8 	and.w	r7, r3, #496	; 0x1f0
 8001e80:	f7ff fc30 	bl	80016e4 <HAL_RCC_GetPCLK2Freq>
 8001e84:	6862      	ldr	r2, [r4, #4]
 8001e86:	4368      	muls	r0, r5
 8001e88:	0052      	lsls	r2, r2, #1
 8001e8a:	fbb0 faf2 	udiv	sl, r0, r2
 8001e8e:	f7ff fc29 	bl	80016e4 <HAL_RCC_GetPCLK2Freq>
      huart->Instance->BRR = UART_BRR_SAMPLING8(HAL_RCC_GetPCLK2Freq(), huart->Init.BaudRate);
    }
#endif /* USART6 */
    else
    {
      huart->Instance->BRR = UART_BRR_SAMPLING8(HAL_RCC_GetPCLK1Freq(), huart->Init.BaudRate);
 8001e92:	6863      	ldr	r3, [r4, #4]
 8001e94:	4368      	muls	r0, r5
 8001e96:	005b      	lsls	r3, r3, #1
 8001e98:	fbb0 f3f3 	udiv	r3, r0, r3
 8001e9c:	fbb3 f3f9 	udiv	r3, r3, r9
 8001ea0:	fb09 a313 	mls	r3, r9, r3, sl
 8001ea4:	00db      	lsls	r3, r3, #3
 8001ea6:	3332      	adds	r3, #50	; 0x32
 8001ea8:	fbb3 f3f9 	udiv	r3, r3, r9
 8001eac:	f003 0307 	and.w	r3, r3, #7
 8001eb0:	4443      	add	r3, r8
      huart->Instance->BRR = UART_BRR_SAMPLING16(HAL_RCC_GetPCLK2Freq(), huart->Init.BaudRate);
    }
#endif /* USART6 */
    else
    {
      huart->Instance->BRR = UART_BRR_SAMPLING16(HAL_RCC_GetPCLK1Freq(), huart->Init.BaudRate);
 8001eb2:	443b      	add	r3, r7
 8001eb4:	60b3      	str	r3, [r6, #8]
 8001eb6:	e8bd 87f0 	ldmia.w	sp!, {r4, r5, r6, r7, r8, r9, sl, pc}
      huart->Instance->BRR = UART_BRR_SAMPLING8(HAL_RCC_GetPCLK1Freq(), huart->Init.BaudRate);
 8001eba:	f7ff fc03 	bl	80016c4 <HAL_RCC_GetPCLK1Freq>
 8001ebe:	2519      	movs	r5, #25
 8001ec0:	fb05 f300 	mul.w	r3, r5, r0
 8001ec4:	6860      	ldr	r0, [r4, #4]
 8001ec6:	f04f 0964 	mov.w	r9, #100	; 0x64
 8001eca:	0040      	lsls	r0, r0, #1
 8001ecc:	fbb3 f3f0 	udiv	r3, r3, r0
 8001ed0:	fbb3 f3f9 	udiv	r3, r3, r9
 8001ed4:	ea4f 1803 	mov.w	r8, r3, lsl #4
 8001ed8:	f7ff fbf4 	bl	80016c4 <HAL_RCC_GetPCLK1Freq>
 8001edc:	6863      	ldr	r3, [r4, #4]
 8001ede:	4368      	muls	r0, r5
 8001ee0:	005b      	lsls	r3, r3, #1
 8001ee2:	fbb0 f7f3 	udiv	r7, r0, r3
 8001ee6:	f7ff fbed 	bl	80016c4 <HAL_RCC_GetPCLK1Freq>
 8001eea:	6863      	ldr	r3, [r4, #4]
 8001eec:	4368      	muls	r0, r5
 8001eee:	005b      	lsls	r3, r3, #1
 8001ef0:	fbb0 f3f3 	udiv	r3, r0, r3
 8001ef4:	fbb3 f3f9 	udiv	r3, r3, r9
 8001ef8:	fb09 7313 	mls	r3, r9, r3, r7
 8001efc:	00db      	lsls	r3, r3, #3
 8001efe:	3332      	adds	r3, #50	; 0x32
 8001f00:	fbb3 f3f9 	udiv	r3, r3, r9
 8001f04:	005b      	lsls	r3, r3, #1
 8001f06:	f403 77f8 	and.w	r7, r3, #496	; 0x1f0
 8001f0a:	f7ff fbdb 	bl	80016c4 <HAL_RCC_GetPCLK1Freq>
 8001f0e:	6862      	ldr	r2, [r4, #4]
 8001f10:	4368      	muls	r0, r5
 8001f12:	0052      	lsls	r2, r2, #1
 8001f14:	fbb0 faf2 	udiv	sl, r0, r2
 8001f18:	f7ff fbd4 	bl	80016c4 <HAL_RCC_GetPCLK1Freq>
 8001f1c:	e7b9      	b.n	8001e92 <UART_SetConfig+0xb2>
    if ((huart->Instance == USART1) || (huart->Instance == USART6))
 8001f1e:	429e      	cmp	r6, r3
 8001f20:	d002      	beq.n	8001f28 <UART_SetConfig+0x148>
 8001f22:	4b3b      	ldr	r3, [pc, #236]	; (8002010 <UART_SetConfig+0x230>)
 8001f24:	429e      	cmp	r6, r3
 8001f26:	d140      	bne.n	8001faa <UART_SetConfig+0x1ca>
      huart->Instance->BRR = UART_BRR_SAMPLING16(HAL_RCC_GetPCLK2Freq(), huart->Init.BaudRate);
 8001f28:	f7ff fbdc 	bl	80016e4 <HAL_RCC_GetPCLK2Freq>
 8001f2c:	6867      	ldr	r7, [r4, #4]
 8001f2e:	2519      	movs	r5, #25
 8001f30:	f04f 0964 	mov.w	r9, #100	; 0x64
 8001f34:	fb05 f300 	mul.w	r3, r5, r0
 8001f38:	00bf      	lsls	r7, r7, #2
 8001f3a:	fbb3 f3f7 	udiv	r3, r3, r7
 8001f3e:	fbb3 f3f9 	udiv	r3, r3, r9
 8001f42:	011f      	lsls	r7, r3, #4
 8001f44:	f7ff fbce 	bl	80016e4 <HAL_RCC_GetPCLK2Freq>
 8001f48:	6863      	ldr	r3, [r4, #4]
 8001f4a:	4368      	muls	r0, r5
 8001f4c:	009b      	lsls	r3, r3, #2
 8001f4e:	fbb0 f8f3 	udiv	r8, r0, r3
 8001f52:	f7ff fbc7 	bl	80016e4 <HAL_RCC_GetPCLK2Freq>
 8001f56:	6863      	ldr	r3, [r4, #4]
 8001f58:	4368      	muls	r0, r5
 8001f5a:	009b      	lsls	r3, r3, #2
 8001f5c:	fbb0 f3f3 	udiv	r3, r0, r3
 8001f60:	fbb3 f3f9 	udiv	r3, r3, r9
 8001f64:	fb09 8313 	mls	r3, r9, r3, r8
 8001f68:	011b      	lsls	r3, r3, #4
 8001f6a:	3332      	adds	r3, #50	; 0x32
 8001f6c:	fbb3 f3f9 	udiv	r3, r3, r9
 8001f70:	f003 08f0 	and.w	r8, r3, #240	; 0xf0
 8001f74:	f7ff fbb6 	bl	80016e4 <HAL_RCC_GetPCLK2Freq>
 8001f78:	6862      	ldr	r2, [r4, #4]
 8001f7a:	4368      	muls	r0, r5
 8001f7c:	0092      	lsls	r2, r2, #2
 8001f7e:	fbb0 faf2 	udiv	sl, r0, r2
 8001f82:	f7ff fbaf 	bl	80016e4 <HAL_RCC_GetPCLK2Freq>
      huart->Instance->BRR = UART_BRR_SAMPLING16(HAL_RCC_GetPCLK1Freq(), huart->Init.BaudRate);
 8001f86:	6863      	ldr	r3, [r4, #4]
 8001f88:	4368      	muls	r0, r5
 8001f8a:	009b      	lsls	r3, r3, #2
 8001f8c:	fbb0 f3f3 	udiv	r3, r0, r3
 8001f90:	fbb3 f3f9 	udiv	r3, r3, r9
 8001f94:	fb09 a313 	mls	r3, r9, r3, sl
 8001f98:	011b      	lsls	r3, r3, #4
 8001f9a:	3332      	adds	r3, #50	; 0x32
 8001f9c:	fbb3 f3f9 	udiv	r3, r3, r9
 8001fa0:	f003 030f 	and.w	r3, r3, #15
 8001fa4:	ea43 0308 	orr.w	r3, r3, r8
 8001fa8:	e783      	b.n	8001eb2 <UART_SetConfig+0xd2>
 8001faa:	f7ff fb8b 	bl	80016c4 <HAL_RCC_GetPCLK1Freq>
 8001fae:	6867      	ldr	r7, [r4, #4]
 8001fb0:	2519      	movs	r5, #25
 8001fb2:	f04f 0964 	mov.w	r9, #100	; 0x64
 8001fb6:	fb05 f300 	mul.w	r3, r5, r0
 8001fba:	00bf      	lsls	r7, r7, #2
 8001fbc:	fbb3 f3f7 	udiv	r3, r3, r7
 8001fc0:	fbb3 f3f9 	udiv	r3, r3, r9
 8001fc4:	011f      	lsls	r7, r3, #4
 8001fc6:	f7ff fb7d 	bl	80016c4 <HAL_RCC_GetPCLK1Freq>
 8001fca:	6863      	ldr	r3, [r4, #4]
 8001fcc:	4368      	muls	r0, r5
 8001fce:	009b      	lsls	r3, r3, #2
 8001fd0:	fbb0 f8f3 	udiv	r8, r0, r3
 8001fd4:	f7ff fb76 	bl	80016c4 <HAL_RCC_GetPCLK1Freq>
 8001fd8:	6863      	ldr	r3, [r4, #4]
 8001fda:	4368      	muls	r0, r5
 8001fdc:	009b      	lsls	r3, r3, #2
 8001fde:	fbb0 f3f3 	udiv	r3, r0, r3
 8001fe2:	fbb3 f3f9 	udiv	r3, r3, r9
 8001fe6:	fb09 8313 	mls	r3, r9, r3, r8
 8001fea:	011b      	lsls	r3, r3, #4
 8001fec:	3332      	adds	r3, #50	; 0x32
 8001fee:	fbb3 f3f9 	udiv	r3, r3, r9
 8001ff2:	f003 08f0 	and.w	r8, r3, #240	; 0xf0
 8001ff6:	f7ff fb65 	bl	80016c4 <HAL_RCC_GetPCLK1Freq>
 8001ffa:	6862      	ldr	r2, [r4, #4]
 8001ffc:	4368      	muls	r0, r5
 8001ffe:	0092      	lsls	r2, r2, #2
 8002000:	fbb0 faf2 	udiv	sl, r0, r2
 8002004:	f7ff fb5e 	bl	80016c4 <HAL_RCC_GetPCLK1Freq>
 8002008:	e7bd      	b.n	8001f86 <UART_SetConfig+0x1a6>
 800200a:	bf00      	nop
 800200c:	40011000 	.word	0x40011000
 8002010:	40011400 	.word	0x40011400

08002014 <UART_WaitOnFlagUntilTimeout.constprop.3>:
static HAL_StatusTypeDef UART_WaitOnFlagUntilTimeout(UART_HandleTypeDef *huart, uint32_t Flag, FlagStatus Status, uint32_t Tickstart, uint32_t Timeout)
 8002014:	b5f8      	push	{r3, r4, r5, r6, r7, lr}
 8002016:	4604      	mov	r4, r0
 8002018:	460e      	mov	r6, r1
 800201a:	4617      	mov	r7, r2
 800201c:	461d      	mov	r5, r3
  while ((__HAL_UART_GET_FLAG(huart, Flag) ? SET : RESET) == Status)
 800201e:	6821      	ldr	r1, [r4, #0]
 8002020:	680b      	ldr	r3, [r1, #0]
 8002022:	ea36 0303 	bics.w	r3, r6, r3
 8002026:	d101      	bne.n	800202c <UART_WaitOnFlagUntilTimeout.constprop.3+0x18>
  return HAL_OK;
 8002028:	2000      	movs	r0, #0
}
 800202a:	bdf8      	pop	{r3, r4, r5, r6, r7, pc}
    if (Timeout != HAL_MAX_DELAY)
 800202c:	1c6b      	adds	r3, r5, #1
 800202e:	d0f7      	beq.n	8002020 <UART_WaitOnFlagUntilTimeout.constprop.3+0xc>
      if ((Timeout == 0U) || ((HAL_GetTick() - Tickstart) > Timeout))
 8002030:	b995      	cbnz	r5, 8002058 <UART_WaitOnFlagUntilTimeout.constprop.3+0x44>
        CLEAR_BIT(huart->Instance->CR1, (USART_CR1_RXNEIE | USART_CR1_PEIE | USART_CR1_TXEIE));
 8002032:	6823      	ldr	r3, [r4, #0]
 8002034:	68da      	ldr	r2, [r3, #12]
 8002036:	f422 72d0 	bic.w	r2, r2, #416	; 0x1a0
 800203a:	60da      	str	r2, [r3, #12]
        CLEAR_BIT(huart->Instance->CR3, USART_CR3_EIE);
 800203c:	695a      	ldr	r2, [r3, #20]
 800203e:	f022 0201 	bic.w	r2, r2, #1
 8002042:	615a      	str	r2, [r3, #20]
        huart->gState  = HAL_UART_STATE_READY;
 8002044:	2320      	movs	r3, #32
 8002046:	f884 3039 	strb.w	r3, [r4, #57]	; 0x39
        huart->RxState = HAL_UART_STATE_READY;
 800204a:	f884 303a 	strb.w	r3, [r4, #58]	; 0x3a
        __HAL_UNLOCK(huart);
 800204e:	2300      	movs	r3, #0
 8002050:	f884 3038 	strb.w	r3, [r4, #56]	; 0x38
 8002054:	2003      	movs	r0, #3
 8002056:	bdf8      	pop	{r3, r4, r5, r6, r7, pc}
      if ((Timeout == 0U) || ((HAL_GetTick() - Tickstart) > Timeout))
 8002058:	f7fe fa9a 	bl	8000590 <HAL_GetTick>
 800205c:	1bc0      	subs	r0, r0, r7
 800205e:	4285      	cmp	r5, r0
 8002060:	d2dd      	bcs.n	800201e <UART_WaitOnFlagUntilTimeout.constprop.3+0xa>
 8002062:	e7e6      	b.n	8002032 <UART_WaitOnFlagUntilTimeout.constprop.3+0x1e>

08002064 <HAL_UART_Init>:
{
 8002064:	b510      	push	{r4, lr}
  if (huart == NULL)
 8002066:	4604      	mov	r4, r0
 8002068:	b340      	cbz	r0, 80020bc <HAL_UART_Init+0x58>
  if (huart->gState == HAL_UART_STATE_RESET)
 800206a:	f890 3039 	ldrb.w	r3, [r0, #57]	; 0x39
 800206e:	f003 02ff 	and.w	r2, r3, #255	; 0xff
 8002072:	b91b      	cbnz	r3, 800207c <HAL_UART_Init+0x18>
    huart->Lock = HAL_UNLOCKED;
 8002074:	f880 2038 	strb.w	r2, [r0, #56]	; 0x38
    HAL_UART_MspInit(huart);
 8002078:	f001 feb6 	bl	8003de8 <HAL_UART_MspInit>
  __HAL_UART_DISABLE(huart);
 800207c:	6822      	ldr	r2, [r4, #0]
  huart->gState = HAL_UART_STATE_BUSY;
 800207e:	2324      	movs	r3, #36	; 0x24
 8002080:	f884 3039 	strb.w	r3, [r4, #57]	; 0x39
  __HAL_UART_DISABLE(huart);
 8002084:	68d3      	ldr	r3, [r2, #12]
 8002086:	f423 5300 	bic.w	r3, r3, #8192	; 0x2000
 800208a:	60d3      	str	r3, [r2, #12]
  UART_SetConfig(huart);
 800208c:	4620      	mov	r0, r4
 800208e:	f7ff fea7 	bl	8001de0 <UART_SetConfig>
  CLEAR_BIT(huart->Instance->CR2, (USART_CR2_LINEN | USART_CR2_CLKEN));
 8002092:	6823      	ldr	r3, [r4, #0]
 8002094:	691a      	ldr	r2, [r3, #16]
 8002096:	f422 4290 	bic.w	r2, r2, #18432	; 0x4800
 800209a:	611a      	str	r2, [r3, #16]
  CLEAR_BIT(huart->Instance->CR3, (USART_CR3_SCEN | USART_CR3_HDSEL | USART_CR3_IREN));
 800209c:	695a      	ldr	r2, [r3, #20]
 800209e:	f022 022a 	bic.w	r2, r2, #42	; 0x2a
 80020a2:	615a      	str	r2, [r3, #20]
  __HAL_UART_ENABLE(huart);
 80020a4:	68da      	ldr	r2, [r3, #12]
 80020a6:	f442 5200 	orr.w	r2, r2, #8192	; 0x2000
 80020aa:	60da      	str	r2, [r3, #12]
  huart->ErrorCode = HAL_UART_ERROR_NONE;
 80020ac:	2000      	movs	r0, #0
  huart->gState = HAL_UART_STATE_READY;
 80020ae:	2320      	movs	r3, #32
  huart->ErrorCode = HAL_UART_ERROR_NONE;
 80020b0:	63e0      	str	r0, [r4, #60]	; 0x3c
  huart->gState = HAL_UART_STATE_READY;
 80020b2:	f884 3039 	strb.w	r3, [r4, #57]	; 0x39
  huart->RxState = HAL_UART_STATE_READY;
 80020b6:	f884 303a 	strb.w	r3, [r4, #58]	; 0x3a
  return HAL_OK;
 80020ba:	bd10      	pop	{r4, pc}
    return HAL_ERROR;
 80020bc:	2001      	movs	r0, #1
}
 80020be:	bd10      	pop	{r4, pc}

080020c0 <HAL_UART_Transmit>:
{
 80020c0:	e92d 41f0 	stmdb	sp!, {r4, r5, r6, r7, r8, lr}
 80020c4:	461f      	mov	r7, r3
  if (huart->gState == HAL_UART_STATE_READY)
 80020c6:	f890 3039 	ldrb.w	r3, [r0, #57]	; 0x39
 80020ca:	2b20      	cmp	r3, #32
{
 80020cc:	4604      	mov	r4, r0
 80020ce:	460d      	mov	r5, r1
 80020d0:	4690      	mov	r8, r2
  if (huart->gState == HAL_UART_STATE_READY)
 80020d2:	d14f      	bne.n	8002174 <HAL_UART_Transmit+0xb4>
    if ((pData == NULL) || (Size == 0U))
 80020d4:	2900      	cmp	r1, #0
 80020d6:	d04a      	beq.n	800216e <HAL_UART_Transmit+0xae>
 80020d8:	2a00      	cmp	r2, #0
 80020da:	d048      	beq.n	800216e <HAL_UART_Transmit+0xae>
    __HAL_LOCK(huart);
 80020dc:	f890 3038 	ldrb.w	r3, [r0, #56]	; 0x38
 80020e0:	2b01      	cmp	r3, #1
 80020e2:	d047      	beq.n	8002174 <HAL_UART_Transmit+0xb4>
 80020e4:	2301      	movs	r3, #1
 80020e6:	f880 3038 	strb.w	r3, [r0, #56]	; 0x38
    huart->ErrorCode = HAL_UART_ERROR_NONE;
 80020ea:	2300      	movs	r3, #0
 80020ec:	63c3      	str	r3, [r0, #60]	; 0x3c
    huart->gState = HAL_UART_STATE_BUSY_TX;
 80020ee:	2321      	movs	r3, #33	; 0x21
 80020f0:	f880 3039 	strb.w	r3, [r0, #57]	; 0x39
    tickstart = HAL_GetTick();
 80020f4:	f7fe fa4c 	bl	8000590 <HAL_GetTick>
    huart->TxXferSize = Size;
 80020f8:	f8a4 8024 	strh.w	r8, [r4, #36]	; 0x24
    tickstart = HAL_GetTick();
 80020fc:	4606      	mov	r6, r0
    huart->TxXferCount = Size;
 80020fe:	f8a4 8026 	strh.w	r8, [r4, #38]	; 0x26
    while (huart->TxXferCount > 0U)
 8002102:	8ce3      	ldrh	r3, [r4, #38]	; 0x26
 8002104:	b29b      	uxth	r3, r3
 8002106:	b96b      	cbnz	r3, 8002124 <HAL_UART_Transmit+0x64>
    if (UART_WaitOnFlagUntilTimeout(huart, UART_FLAG_TC, RESET, tickstart, Timeout) != HAL_OK)
 8002108:	463b      	mov	r3, r7
 800210a:	4632      	mov	r2, r6
 800210c:	2140      	movs	r1, #64	; 0x40
 800210e:	4620      	mov	r0, r4
 8002110:	f7ff ff80 	bl	8002014 <UART_WaitOnFlagUntilTimeout.constprop.3>
 8002114:	b9b0      	cbnz	r0, 8002144 <HAL_UART_Transmit+0x84>
    huart->gState = HAL_UART_STATE_READY;
 8002116:	2320      	movs	r3, #32
 8002118:	f884 3039 	strb.w	r3, [r4, #57]	; 0x39
    __HAL_UNLOCK(huart);
 800211c:	f884 0038 	strb.w	r0, [r4, #56]	; 0x38
    return HAL_OK;
 8002120:	e8bd 81f0 	ldmia.w	sp!, {r4, r5, r6, r7, r8, pc}
      huart->TxXferCount--;
 8002124:	8ce3      	ldrh	r3, [r4, #38]	; 0x26
 8002126:	3b01      	subs	r3, #1
 8002128:	b29b      	uxth	r3, r3
 800212a:	84e3      	strh	r3, [r4, #38]	; 0x26
      if (huart->Init.WordLength == UART_WORDLENGTH_9B)
 800212c:	68a3      	ldr	r3, [r4, #8]
 800212e:	f5b3 5f80 	cmp.w	r3, #4096	; 0x1000
        if (UART_WaitOnFlagUntilTimeout(huart, UART_FLAG_TXE, RESET, tickstart, Timeout) != HAL_OK)
 8002132:	4632      	mov	r2, r6
 8002134:	463b      	mov	r3, r7
 8002136:	f04f 0180 	mov.w	r1, #128	; 0x80
 800213a:	4620      	mov	r0, r4
      if (huart->Init.WordLength == UART_WORDLENGTH_9B)
 800213c:	d10e      	bne.n	800215c <HAL_UART_Transmit+0x9c>
        if (UART_WaitOnFlagUntilTimeout(huart, UART_FLAG_TXE, RESET, tickstart, Timeout) != HAL_OK)
 800213e:	f7ff ff69 	bl	8002014 <UART_WaitOnFlagUntilTimeout.constprop.3>
 8002142:	b110      	cbz	r0, 800214a <HAL_UART_Transmit+0x8a>
          return HAL_TIMEOUT;
 8002144:	2003      	movs	r0, #3
 8002146:	e8bd 81f0 	ldmia.w	sp!, {r4, r5, r6, r7, r8, pc}
        huart->Instance->DR = (*tmp & (uint16_t)0x01FF);
 800214a:	882b      	ldrh	r3, [r5, #0]
 800214c:	6822      	ldr	r2, [r4, #0]
 800214e:	f3c3 0308 	ubfx	r3, r3, #0, #9
 8002152:	6053      	str	r3, [r2, #4]
        if (huart->Init.Parity == UART_PARITY_NONE)
 8002154:	6923      	ldr	r3, [r4, #16]
 8002156:	b943      	cbnz	r3, 800216a <HAL_UART_Transmit+0xaa>
          pData += 2U;
 8002158:	3502      	adds	r5, #2
 800215a:	e7d2      	b.n	8002102 <HAL_UART_Transmit+0x42>
        if (UART_WaitOnFlagUntilTimeout(huart, UART_FLAG_TXE, RESET, tickstart, Timeout) != HAL_OK)
 800215c:	f7ff ff5a 	bl	8002014 <UART_WaitOnFlagUntilTimeout.constprop.3>
 8002160:	2800      	cmp	r0, #0
 8002162:	d1ef      	bne.n	8002144 <HAL_UART_Transmit+0x84>
        huart->Instance->DR = (*pData++ & (uint8_t)0xFF);
 8002164:	6823      	ldr	r3, [r4, #0]
 8002166:	782a      	ldrb	r2, [r5, #0]
 8002168:	605a      	str	r2, [r3, #4]
 800216a:	3501      	adds	r5, #1
 800216c:	e7c9      	b.n	8002102 <HAL_UART_Transmit+0x42>
      return  HAL_ERROR;
 800216e:	2001      	movs	r0, #1
 8002170:	e8bd 81f0 	ldmia.w	sp!, {r4, r5, r6, r7, r8, pc}
    return HAL_BUSY;
 8002174:	2002      	movs	r0, #2
}
 8002176:	e8bd 81f0 	ldmia.w	sp!, {r4, r5, r6, r7, r8, pc}
	...

0800217c <HAL_UART_Receive_DMA>:
{
 800217c:	4613      	mov	r3, r2
  if (huart->RxState == HAL_UART_STATE_READY)
 800217e:	f890 203a 	ldrb.w	r2, [r0, #58]	; 0x3a
 8002182:	2a20      	cmp	r2, #32
{
 8002184:	b573      	push	{r0, r1, r4, r5, r6, lr}
 8002186:	4605      	mov	r5, r0
  if (huart->RxState == HAL_UART_STATE_READY)
 8002188:	d138      	bne.n	80021fc <HAL_UART_Receive_DMA+0x80>
    if ((pData == NULL) || (Size == 0U))
 800218a:	2900      	cmp	r1, #0
 800218c:	d034      	beq.n	80021f8 <HAL_UART_Receive_DMA+0x7c>
 800218e:	2b00      	cmp	r3, #0
 8002190:	d032      	beq.n	80021f8 <HAL_UART_Receive_DMA+0x7c>
    __HAL_LOCK(huart);
 8002192:	f890 2038 	ldrb.w	r2, [r0, #56]	; 0x38
 8002196:	2a01      	cmp	r2, #1
 8002198:	d030      	beq.n	80021fc <HAL_UART_Receive_DMA+0x80>
 800219a:	2201      	movs	r2, #1
    huart->ErrorCode = HAL_UART_ERROR_NONE;
 800219c:	2400      	movs	r4, #0
    __HAL_LOCK(huart);
 800219e:	f880 2038 	strb.w	r2, [r0, #56]	; 0x38
    huart->RxState = HAL_UART_STATE_BUSY_RX;
 80021a2:	2222      	movs	r2, #34	; 0x22
    huart->ErrorCode = HAL_UART_ERROR_NONE;
 80021a4:	63c4      	str	r4, [r0, #60]	; 0x3c
    huart->pRxBuffPtr = pData;
 80021a6:	6281      	str	r1, [r0, #40]	; 0x28
    huart->RxXferSize = Size;
 80021a8:	8583      	strh	r3, [r0, #44]	; 0x2c
    huart->RxState = HAL_UART_STATE_BUSY_RX;
 80021aa:	f880 203a 	strb.w	r2, [r0, #58]	; 0x3a
    huart->hdmarx->XferCpltCallback = UART_DMAReceiveCplt;
 80021ae:	6b40      	ldr	r0, [r0, #52]	; 0x34
 80021b0:	4a13      	ldr	r2, [pc, #76]	; (8002200 <HAL_UART_Receive_DMA+0x84>)
 80021b2:	63c2      	str	r2, [r0, #60]	; 0x3c
    HAL_DMA_Start_IT(huart->hdmarx, (uint32_t)&huart->Instance->DR, *(uint32_t *)tmp, Size);
 80021b4:	682e      	ldr	r6, [r5, #0]
    huart->hdmarx->XferHalfCpltCallback = UART_DMARxHalfCplt;
 80021b6:	4a13      	ldr	r2, [pc, #76]	; (8002204 <HAL_UART_Receive_DMA+0x88>)
 80021b8:	6402      	str	r2, [r0, #64]	; 0x40
    huart->hdmarx->XferErrorCallback = UART_DMAError;
 80021ba:	4a13      	ldr	r2, [pc, #76]	; (8002208 <HAL_UART_Receive_DMA+0x8c>)
 80021bc:	64c2      	str	r2, [r0, #76]	; 0x4c
    huart->hdmarx->XferAbortCallback = NULL;
 80021be:	6504      	str	r4, [r0, #80]	; 0x50
    HAL_DMA_Start_IT(huart->hdmarx, (uint32_t)&huart->Instance->DR, *(uint32_t *)tmp, Size);
 80021c0:	460a      	mov	r2, r1
 80021c2:	1d31      	adds	r1, r6, #4
 80021c4:	f7fe fb7c 	bl	80008c0 <HAL_DMA_Start_IT>
    __HAL_UART_CLEAR_OREFLAG(huart);
 80021c8:	682b      	ldr	r3, [r5, #0]
 80021ca:	9401      	str	r4, [sp, #4]
 80021cc:	681a      	ldr	r2, [r3, #0]
 80021ce:	9201      	str	r2, [sp, #4]
 80021d0:	685a      	ldr	r2, [r3, #4]
 80021d2:	9201      	str	r2, [sp, #4]
 80021d4:	9a01      	ldr	r2, [sp, #4]
    SET_BIT(huart->Instance->CR1, USART_CR1_PEIE);
 80021d6:	68da      	ldr	r2, [r3, #12]
    __HAL_UNLOCK(huart);
 80021d8:	f885 4038 	strb.w	r4, [r5, #56]	; 0x38
    SET_BIT(huart->Instance->CR1, USART_CR1_PEIE);
 80021dc:	f442 7280 	orr.w	r2, r2, #256	; 0x100
 80021e0:	60da      	str	r2, [r3, #12]
    SET_BIT(huart->Instance->CR3, USART_CR3_EIE);
 80021e2:	695a      	ldr	r2, [r3, #20]
 80021e4:	f042 0201 	orr.w	r2, r2, #1
 80021e8:	615a      	str	r2, [r3, #20]
    SET_BIT(huart->Instance->CR3, USART_CR3_DMAR);
 80021ea:	695a      	ldr	r2, [r3, #20]
 80021ec:	f042 0240 	orr.w	r2, r2, #64	; 0x40
 80021f0:	615a      	str	r2, [r3, #20]
    return HAL_OK;
 80021f2:	4620      	mov	r0, r4
}
 80021f4:	b002      	add	sp, #8
 80021f6:	bd70      	pop	{r4, r5, r6, pc}
      return HAL_ERROR;
 80021f8:	2001      	movs	r0, #1
 80021fa:	e7fb      	b.n	80021f4 <HAL_UART_Receive_DMA+0x78>
    return HAL_BUSY;
 80021fc:	2002      	movs	r0, #2
 80021fe:	e7f9      	b.n	80021f4 <HAL_UART_Receive_DMA+0x78>
 8002200:	0800226b 	.word	0x0800226b
 8002204:	080022a5 	.word	0x080022a5
 8002208:	080022b1 	.word	0x080022b1

0800220c <HAL_UART_DMAStop>:
  dmarequest = HAL_IS_BIT_SET(huart->Instance->CR3, USART_CR3_DMAT);
 800220c:	6803      	ldr	r3, [r0, #0]
 800220e:	695a      	ldr	r2, [r3, #20]
  if ((huart->gState == HAL_UART_STATE_BUSY_TX) && dmarequest)
 8002210:	f890 1039 	ldrb.w	r1, [r0, #57]	; 0x39
 8002214:	2921      	cmp	r1, #33	; 0x21
{
 8002216:	b510      	push	{r4, lr}
 8002218:	4604      	mov	r4, r0
  if ((huart->gState == HAL_UART_STATE_BUSY_TX) && dmarequest)
 800221a:	d111      	bne.n	8002240 <HAL_UART_DMAStop+0x34>
 800221c:	0611      	lsls	r1, r2, #24
 800221e:	d50f      	bpl.n	8002240 <HAL_UART_DMAStop+0x34>
    CLEAR_BIT(huart->Instance->CR3, USART_CR3_DMAT);
 8002220:	695a      	ldr	r2, [r3, #20]
    if (huart->hdmatx != NULL)
 8002222:	6b00      	ldr	r0, [r0, #48]	; 0x30
    CLEAR_BIT(huart->Instance->CR3, USART_CR3_DMAT);
 8002224:	f022 0280 	bic.w	r2, r2, #128	; 0x80
 8002228:	615a      	str	r2, [r3, #20]
    if (huart->hdmatx != NULL)
 800222a:	b108      	cbz	r0, 8002230 <HAL_UART_DMAStop+0x24>
      HAL_DMA_Abort(huart->hdmatx);
 800222c:	f7fe fb86 	bl	800093c <HAL_DMA_Abort>
  CLEAR_BIT(huart->Instance->CR1, (USART_CR1_TXEIE | USART_CR1_TCIE));
 8002230:	6822      	ldr	r2, [r4, #0]
 8002232:	68d3      	ldr	r3, [r2, #12]
 8002234:	f023 03c0 	bic.w	r3, r3, #192	; 0xc0
 8002238:	60d3      	str	r3, [r2, #12]
  huart->gState = HAL_UART_STATE_READY;
 800223a:	2320      	movs	r3, #32
 800223c:	f884 3039 	strb.w	r3, [r4, #57]	; 0x39
  dmarequest = HAL_IS_BIT_SET(huart->Instance->CR3, USART_CR3_DMAR);
 8002240:	6823      	ldr	r3, [r4, #0]
 8002242:	695a      	ldr	r2, [r3, #20]
  if ((huart->RxState == HAL_UART_STATE_BUSY_RX) && dmarequest)
 8002244:	f894 103a 	ldrb.w	r1, [r4, #58]	; 0x3a
 8002248:	2922      	cmp	r1, #34	; 0x22
 800224a:	d10c      	bne.n	8002266 <HAL_UART_DMAStop+0x5a>
 800224c:	0652      	lsls	r2, r2, #25
 800224e:	d50a      	bpl.n	8002266 <HAL_UART_DMAStop+0x5a>
    CLEAR_BIT(huart->Instance->CR3, USART_CR3_DMAR);
 8002250:	695a      	ldr	r2, [r3, #20]
    if (huart->hdmarx != NULL)
 8002252:	6b60      	ldr	r0, [r4, #52]	; 0x34
    CLEAR_BIT(huart->Instance->CR3, USART_CR3_DMAR);
 8002254:	f022 0240 	bic.w	r2, r2, #64	; 0x40
 8002258:	615a      	str	r2, [r3, #20]
    if (huart->hdmarx != NULL)
 800225a:	b108      	cbz	r0, 8002260 <HAL_UART_DMAStop+0x54>
      HAL_DMA_Abort(huart->hdmarx);
 800225c:	f7fe fb6e 	bl	800093c <HAL_DMA_Abort>
    UART_EndRxTransfer(huart);
 8002260:	4620      	mov	r0, r4
 8002262:	f7ff fdaf 	bl	8001dc4 <UART_EndRxTransfer>
}
 8002266:	2000      	movs	r0, #0
 8002268:	bd10      	pop	{r4, pc}

0800226a <UART_DMAReceiveCplt>:
{
 800226a:	b508      	push	{r3, lr}
  if ((hdma->Instance->CR & DMA_SxCR_CIRC) == 0U)
 800226c:	6803      	ldr	r3, [r0, #0]
  UART_HandleTypeDef *huart = (UART_HandleTypeDef *)((DMA_HandleTypeDef *)hdma)->Parent;
 800226e:	6b82      	ldr	r2, [r0, #56]	; 0x38
  if ((hdma->Instance->CR & DMA_SxCR_CIRC) == 0U)
 8002270:	681b      	ldr	r3, [r3, #0]
 8002272:	f413 7380 	ands.w	r3, r3, #256	; 0x100
 8002276:	d110      	bne.n	800229a <UART_DMAReceiveCplt+0x30>
    huart->RxXferCount = 0U;
 8002278:	85d3      	strh	r3, [r2, #46]	; 0x2e
    CLEAR_BIT(huart->Instance->CR1, USART_CR1_PEIE);
 800227a:	6813      	ldr	r3, [r2, #0]
 800227c:	68d9      	ldr	r1, [r3, #12]
 800227e:	f421 7180 	bic.w	r1, r1, #256	; 0x100
 8002282:	60d9      	str	r1, [r3, #12]
    CLEAR_BIT(huart->Instance->CR3, USART_CR3_EIE);
 8002284:	6959      	ldr	r1, [r3, #20]
 8002286:	f021 0101 	bic.w	r1, r1, #1
 800228a:	6159      	str	r1, [r3, #20]
    CLEAR_BIT(huart->Instance->CR3, USART_CR3_DMAR);
 800228c:	6959      	ldr	r1, [r3, #20]
 800228e:	f021 0140 	bic.w	r1, r1, #64	; 0x40
 8002292:	6159      	str	r1, [r3, #20]
    huart->RxState = HAL_UART_STATE_READY;
 8002294:	2320      	movs	r3, #32
 8002296:	f882 303a 	strb.w	r3, [r2, #58]	; 0x3a
  HAL_UART_RxCpltCallback(huart);
 800229a:	4610      	mov	r0, r2
 800229c:	f000 fb26 	bl	80028ec <HAL_UART_RxCpltCallback>
 80022a0:	bd08      	pop	{r3, pc}

080022a2 <HAL_UART_RxHalfCpltCallback>:
 80022a2:	4770      	bx	lr

080022a4 <UART_DMARxHalfCplt>:
{
 80022a4:	b508      	push	{r3, lr}
  HAL_UART_RxHalfCpltCallback(huart);
 80022a6:	6b80      	ldr	r0, [r0, #56]	; 0x38
 80022a8:	f7ff fffb 	bl	80022a2 <HAL_UART_RxHalfCpltCallback>
 80022ac:	bd08      	pop	{r3, pc}

080022ae <HAL_UART_ErrorCallback>:
 80022ae:	4770      	bx	lr

080022b0 <UART_DMAError>:
  UART_HandleTypeDef *huart = (UART_HandleTypeDef *)((DMA_HandleTypeDef *)hdma)->Parent;
 80022b0:	6b81      	ldr	r1, [r0, #56]	; 0x38
{
 80022b2:	b508      	push	{r3, lr}
  dmarequest = HAL_IS_BIT_SET(huart->Instance->CR3, USART_CR3_DMAT);
 80022b4:	680b      	ldr	r3, [r1, #0]
 80022b6:	695a      	ldr	r2, [r3, #20]
  if ((huart->gState == HAL_UART_STATE_BUSY_TX) && dmarequest)
 80022b8:	f891 0039 	ldrb.w	r0, [r1, #57]	; 0x39
 80022bc:	2821      	cmp	r0, #33	; 0x21
 80022be:	d10a      	bne.n	80022d6 <UART_DMAError+0x26>
 80022c0:	0612      	lsls	r2, r2, #24
 80022c2:	d508      	bpl.n	80022d6 <UART_DMAError+0x26>
    huart->TxXferCount = 0x00U;
 80022c4:	2200      	movs	r2, #0
 80022c6:	84ca      	strh	r2, [r1, #38]	; 0x26
  CLEAR_BIT(huart->Instance->CR1, (USART_CR1_TXEIE | USART_CR1_TCIE));
 80022c8:	68da      	ldr	r2, [r3, #12]
 80022ca:	f022 02c0 	bic.w	r2, r2, #192	; 0xc0
 80022ce:	60da      	str	r2, [r3, #12]
  huart->gState = HAL_UART_STATE_READY;
 80022d0:	2220      	movs	r2, #32
 80022d2:	f881 2039 	strb.w	r2, [r1, #57]	; 0x39
  dmarequest = HAL_IS_BIT_SET(huart->Instance->CR3, USART_CR3_DMAR);
 80022d6:	695b      	ldr	r3, [r3, #20]
  if ((huart->RxState == HAL_UART_STATE_BUSY_RX) && dmarequest)
 80022d8:	f891 203a 	ldrb.w	r2, [r1, #58]	; 0x3a
 80022dc:	2a22      	cmp	r2, #34	; 0x22
 80022de:	d106      	bne.n	80022ee <UART_DMAError+0x3e>
 80022e0:	065b      	lsls	r3, r3, #25
 80022e2:	d504      	bpl.n	80022ee <UART_DMAError+0x3e>
    huart->RxXferCount = 0x00U;
 80022e4:	2300      	movs	r3, #0
 80022e6:	85cb      	strh	r3, [r1, #46]	; 0x2e
    UART_EndRxTransfer(huart);
 80022e8:	4608      	mov	r0, r1
 80022ea:	f7ff fd6b 	bl	8001dc4 <UART_EndRxTransfer>
  huart->ErrorCode |= HAL_UART_ERROR_DMA;
 80022ee:	6bcb      	ldr	r3, [r1, #60]	; 0x3c
 80022f0:	f043 0310 	orr.w	r3, r3, #16
 80022f4:	63cb      	str	r3, [r1, #60]	; 0x3c
  HAL_UART_ErrorCallback(huart);
 80022f6:	4608      	mov	r0, r1
 80022f8:	f7ff ffd9 	bl	80022ae <HAL_UART_ErrorCallback>
 80022fc:	bd08      	pop	{r3, pc}
	...

08002300 <USB_CoreReset>:
  * @brief  Reset the USB Core (needed after USB clock settings change)
  * @param  USBx  Selected device
  * @retval HAL status
  */
static HAL_StatusTypeDef USB_CoreReset(USB_OTG_GlobalTypeDef *USBx)
{
 8002300:	4b0a      	ldr	r3, [pc, #40]	; (800232c <USB_CoreReset+0x2c>)
  uint32_t count = 0U;

  /* Wait for AHB master IDLE state. */
  do
  {
    if (++count > 200000U)
 8002302:	3b01      	subs	r3, #1
 8002304:	d101      	bne.n	800230a <USB_CoreReset+0xa>
    {
      return HAL_TIMEOUT;
 8002306:	2003      	movs	r0, #3
 8002308:	4770      	bx	lr
    }
  }
  while ((USBx->GRSTCTL & USB_OTG_GRSTCTL_AHBIDL) == 0U);
 800230a:	6902      	ldr	r2, [r0, #16]
 800230c:	2a00      	cmp	r2, #0
 800230e:	daf8      	bge.n	8002302 <USB_CoreReset+0x2>

  /* Core Soft Reset */
  count = 0U;
  USBx->GRSTCTL |= USB_OTG_GRSTCTL_CSRST;
 8002310:	6903      	ldr	r3, [r0, #16]
 8002312:	4a06      	ldr	r2, [pc, #24]	; (800232c <USB_CoreReset+0x2c>)
 8002314:	f043 0301 	orr.w	r3, r3, #1
 8002318:	6103      	str	r3, [r0, #16]

  do
  {
    if (++count > 200000U)
 800231a:	3a01      	subs	r2, #1
 800231c:	d0f3      	beq.n	8002306 <USB_CoreReset+0x6>
    {
      return HAL_TIMEOUT;
    }
  }
  while ((USBx->GRSTCTL & USB_OTG_GRSTCTL_CSRST) == USB_OTG_GRSTCTL_CSRST);
 800231e:	6903      	ldr	r3, [r0, #16]
 8002320:	f013 0301 	ands.w	r3, r3, #1
 8002324:	d1f9      	bne.n	800231a <USB_CoreReset+0x1a>

  return HAL_OK;
 8002326:	4618      	mov	r0, r3
}
 8002328:	4770      	bx	lr
 800232a:	bf00      	nop
 800232c:	00030d41 	.word	0x00030d41

08002330 <USB_CoreInit>:
{
 8002330:	b084      	sub	sp, #16
 8002332:	b538      	push	{r3, r4, r5, lr}
 8002334:	ad05      	add	r5, sp, #20
 8002336:	e885 000e 	stmia.w	r5, {r1, r2, r3}
  if (cfg.phy_itface == USB_OTG_ULPI_PHY)
 800233a:	9b0a      	ldr	r3, [sp, #40]	; 0x28
 800233c:	2b01      	cmp	r3, #1
{
 800233e:	4604      	mov	r4, r0
  if (cfg.phy_itface == USB_OTG_ULPI_PHY)
 8002340:	d125      	bne.n	800238e <USB_CoreInit+0x5e>
    USBx->GCCFG &= ~(USB_OTG_GCCFG_PWRDWN);
 8002342:	6b83      	ldr	r3, [r0, #56]	; 0x38
 8002344:	f423 3380 	bic.w	r3, r3, #65536	; 0x10000
 8002348:	6383      	str	r3, [r0, #56]	; 0x38
    USBx->GUSBCFG &= ~(USB_OTG_GUSBCFG_TSDPS | USB_OTG_GUSBCFG_ULPIFSLS | USB_OTG_GUSBCFG_PHYSEL);
 800234a:	68c3      	ldr	r3, [r0, #12]
 800234c:	f423 0384 	bic.w	r3, r3, #4325376	; 0x420000
 8002350:	f023 0340 	bic.w	r3, r3, #64	; 0x40
 8002354:	60c3      	str	r3, [r0, #12]
    USBx->GUSBCFG &= ~(USB_OTG_GUSBCFG_ULPIEVBUSD | USB_OTG_GUSBCFG_ULPIEVBUSI);
 8002356:	68c3      	ldr	r3, [r0, #12]
 8002358:	f423 1340 	bic.w	r3, r3, #3145728	; 0x300000
 800235c:	60c3      	str	r3, [r0, #12]
    if (cfg.use_external_vbus == 1U)
 800235e:	9b11      	ldr	r3, [sp, #68]	; 0x44
 8002360:	2b01      	cmp	r3, #1
      USBx->GUSBCFG |= USB_OTG_GUSBCFG_ULPIEVBUSD;
 8002362:	bf02      	ittt	eq
 8002364:	68c3      	ldreq	r3, [r0, #12]
 8002366:	f443 1380 	orreq.w	r3, r3, #1048576	; 0x100000
 800236a:	60c3      	streq	r3, [r0, #12]
    ret = USB_CoreReset(USBx);
 800236c:	f7ff ffc8 	bl	8002300 <USB_CoreReset>
  if (cfg.dma_enable == 1U)
 8002370:	9b08      	ldr	r3, [sp, #32]
 8002372:	2b01      	cmp	r3, #1
 8002374:	d107      	bne.n	8002386 <USB_CoreInit+0x56>
    USBx->GAHBCFG |= USB_OTG_GAHBCFG_HBSTLEN_2;
 8002376:	68a3      	ldr	r3, [r4, #8]
 8002378:	f043 0306 	orr.w	r3, r3, #6
 800237c:	60a3      	str	r3, [r4, #8]
    USBx->GAHBCFG |= USB_OTG_GAHBCFG_DMAEN;
 800237e:	68a3      	ldr	r3, [r4, #8]
 8002380:	f043 0320 	orr.w	r3, r3, #32
 8002384:	60a3      	str	r3, [r4, #8]
}
 8002386:	e8bd 4038 	ldmia.w	sp!, {r3, r4, r5, lr}
 800238a:	b004      	add	sp, #16
 800238c:	4770      	bx	lr
    USBx->GUSBCFG |= USB_OTG_GUSBCFG_PHYSEL;
 800238e:	68c3      	ldr	r3, [r0, #12]
 8002390:	f043 0340 	orr.w	r3, r3, #64	; 0x40
 8002394:	60c3      	str	r3, [r0, #12]
    ret = USB_CoreReset(USBx);
 8002396:	f7ff ffb3 	bl	8002300 <USB_CoreReset>
    if (cfg.battery_charging_enable == 0U)
 800239a:	9b0e      	ldr	r3, [sp, #56]	; 0x38
 800239c:	b923      	cbnz	r3, 80023a8 <USB_CoreInit+0x78>
      USBx->GCCFG |= USB_OTG_GCCFG_PWRDWN;
 800239e:	6ba3      	ldr	r3, [r4, #56]	; 0x38
 80023a0:	f443 3380 	orr.w	r3, r3, #65536	; 0x10000
      USBx->GCCFG &= ~(USB_OTG_GCCFG_PWRDWN);
 80023a4:	63a3      	str	r3, [r4, #56]	; 0x38
 80023a6:	e7e3      	b.n	8002370 <USB_CoreInit+0x40>
 80023a8:	6ba3      	ldr	r3, [r4, #56]	; 0x38
 80023aa:	f423 3380 	bic.w	r3, r3, #65536	; 0x10000
 80023ae:	e7f9      	b.n	80023a4 <USB_CoreInit+0x74>

080023b0 <USB_DisableGlobalInt>:
  USBx->GAHBCFG &= ~USB_OTG_GAHBCFG_GINT;
 80023b0:	6883      	ldr	r3, [r0, #8]
 80023b2:	f023 0301 	bic.w	r3, r3, #1
 80023b6:	6083      	str	r3, [r0, #8]
}
 80023b8:	2000      	movs	r0, #0
 80023ba:	4770      	bx	lr

080023bc <USB_SetCurrentMode>:
{
 80023bc:	b508      	push	{r3, lr}
  USBx->GUSBCFG &= ~(USB_OTG_GUSBCFG_FHMOD | USB_OTG_GUSBCFG_FDMOD);
 80023be:	68c3      	ldr	r3, [r0, #12]
  if (mode == USB_HOST_MODE)
 80023c0:	2901      	cmp	r1, #1
  USBx->GUSBCFG &= ~(USB_OTG_GUSBCFG_FHMOD | USB_OTG_GUSBCFG_FDMOD);
 80023c2:	f023 43c0 	bic.w	r3, r3, #1610612736	; 0x60000000
 80023c6:	60c3      	str	r3, [r0, #12]
  if (mode == USB_HOST_MODE)
 80023c8:	d108      	bne.n	80023dc <USB_SetCurrentMode+0x20>
    USBx->GUSBCFG |= USB_OTG_GUSBCFG_FHMOD;
 80023ca:	68c3      	ldr	r3, [r0, #12]
 80023cc:	f043 5300 	orr.w	r3, r3, #536870912	; 0x20000000
    USBx->GUSBCFG |= USB_OTG_GUSBCFG_FDMOD;
 80023d0:	60c3      	str	r3, [r0, #12]
  HAL_Delay(50U);
 80023d2:	2032      	movs	r0, #50	; 0x32
 80023d4:	f7fe f8e2 	bl	800059c <HAL_Delay>
  return HAL_OK;
 80023d8:	2000      	movs	r0, #0
 80023da:	bd08      	pop	{r3, pc}
  else if (mode == USB_DEVICE_MODE)
 80023dc:	b919      	cbnz	r1, 80023e6 <USB_SetCurrentMode+0x2a>
    USBx->GUSBCFG |= USB_OTG_GUSBCFG_FDMOD;
 80023de:	68c3      	ldr	r3, [r0, #12]
 80023e0:	f043 4380 	orr.w	r3, r3, #1073741824	; 0x40000000
 80023e4:	e7f4      	b.n	80023d0 <USB_SetCurrentMode+0x14>
    return HAL_ERROR;
 80023e6:	2001      	movs	r0, #1
}
 80023e8:	bd08      	pop	{r3, pc}
	...

080023ec <USB_FlushTxFifo>:
  USBx->GRSTCTL = (USB_OTG_GRSTCTL_TXFFLSH | (num << 6));
 80023ec:	0189      	lsls	r1, r1, #6
 80023ee:	f041 0120 	orr.w	r1, r1, #32
 80023f2:	4a06      	ldr	r2, [pc, #24]	; (800240c <USB_FlushTxFifo+0x20>)
 80023f4:	6101      	str	r1, [r0, #16]
    if (++count > 200000U)
 80023f6:	3a01      	subs	r2, #1
 80023f8:	d005      	beq.n	8002406 <USB_FlushTxFifo+0x1a>
  while ((USBx->GRSTCTL & USB_OTG_GRSTCTL_TXFFLSH) == USB_OTG_GRSTCTL_TXFFLSH);
 80023fa:	6903      	ldr	r3, [r0, #16]
 80023fc:	f013 0320 	ands.w	r3, r3, #32
 8002400:	d1f9      	bne.n	80023f6 <USB_FlushTxFifo+0xa>
  return HAL_OK;
 8002402:	4618      	mov	r0, r3
 8002404:	4770      	bx	lr
      return HAL_TIMEOUT;
 8002406:	2003      	movs	r0, #3
}
 8002408:	4770      	bx	lr
 800240a:	bf00      	nop
 800240c:	00030d41 	.word	0x00030d41

08002410 <USB_FlushRxFifo>:
  USBx->GRSTCTL = USB_OTG_GRSTCTL_RXFFLSH;
 8002410:	2310      	movs	r3, #16
 8002412:	4a06      	ldr	r2, [pc, #24]	; (800242c <USB_FlushRxFifo+0x1c>)
 8002414:	6103      	str	r3, [r0, #16]
    if (++count > 200000U)
 8002416:	3a01      	subs	r2, #1
 8002418:	d005      	beq.n	8002426 <USB_FlushRxFifo+0x16>
  while ((USBx->GRSTCTL & USB_OTG_GRSTCTL_RXFFLSH) == USB_OTG_GRSTCTL_RXFFLSH);
 800241a:	6903      	ldr	r3, [r0, #16]
 800241c:	f013 0310 	ands.w	r3, r3, #16
 8002420:	d1f9      	bne.n	8002416 <USB_FlushRxFifo+0x6>
  return HAL_OK;
 8002422:	4618      	mov	r0, r3
 8002424:	4770      	bx	lr
      return HAL_TIMEOUT;
 8002426:	2003      	movs	r0, #3
}
 8002428:	4770      	bx	lr
 800242a:	bf00      	nop
 800242c:	00030d41 	.word	0x00030d41

08002430 <USB_SetDevSpeed>:
  USBx_DEVICE->DCFG |= speed;
 8002430:	f8d0 3800 	ldr.w	r3, [r0, #2048]	; 0x800
 8002434:	4319      	orrs	r1, r3
 8002436:	f8c0 1800 	str.w	r1, [r0, #2048]	; 0x800
}
 800243a:	2000      	movs	r0, #0
 800243c:	4770      	bx	lr
	...

08002440 <USB_DevInit>:
{
 8002440:	b084      	sub	sp, #16
 8002442:	e92d 47f0 	stmdb	sp!, {r4, r5, r6, r7, r8, r9, sl, lr}
 8002446:	4604      	mov	r4, r0
 8002448:	a809      	add	r0, sp, #36	; 0x24
 800244a:	e880 000e 	stmia.w	r0, {r1, r2, r3}
  for (i = 0U; i < 15U; i++)
 800244e:	2300      	movs	r3, #0
 8002450:	9f0c      	ldr	r7, [sp, #48]	; 0x30
 8002452:	9e13      	ldr	r6, [sp, #76]	; 0x4c
 8002454:	4688      	mov	r8, r1
    USBx->DIEPTXF[i] = 0U;
 8002456:	4619      	mov	r1, r3
 8002458:	f103 0240 	add.w	r2, r3, #64	; 0x40
 800245c:	eb04 0282 	add.w	r2, r4, r2, lsl #2
  for (i = 0U; i < 15U; i++)
 8002460:	3301      	adds	r3, #1
 8002462:	2b0f      	cmp	r3, #15
    USBx->DIEPTXF[i] = 0U;
 8002464:	6051      	str	r1, [r2, #4]
  for (i = 0U; i < 15U; i++)
 8002466:	d1f7      	bne.n	8002458 <USB_DevInit+0x18>
  if (cfg.vbus_sensing_enable == 0U)
 8002468:	2e00      	cmp	r6, #0
 800246a:	d173      	bne.n	8002554 <USB_DevInit+0x114>
    USBx->GCCFG |= USB_OTG_GCCFG_NOVBUSSENS;
 800246c:	6ba3      	ldr	r3, [r4, #56]	; 0x38
 800246e:	f443 1300 	orr.w	r3, r3, #2097152	; 0x200000
 8002472:	63a3      	str	r3, [r4, #56]	; 0x38
    USBx->GCCFG &= ~USB_OTG_GCCFG_VBUSBSEN;
 8002474:	6ba3      	ldr	r3, [r4, #56]	; 0x38
 8002476:	f423 2300 	bic.w	r3, r3, #524288	; 0x80000
 800247a:	63a3      	str	r3, [r4, #56]	; 0x38
    USBx->GCCFG &= ~USB_OTG_GCCFG_VBUSASEN;
 800247c:	6ba3      	ldr	r3, [r4, #56]	; 0x38
 800247e:	f423 2380 	bic.w	r3, r3, #262144	; 0x40000
    USBx->GCCFG |= USB_OTG_GCCFG_VBUSBSEN;
 8002482:	63a3      	str	r3, [r4, #56]	; 0x38
  USBx_PCGCCTL = 0U;
 8002484:	2300      	movs	r3, #0
 8002486:	f8c4 3e00 	str.w	r3, [r4, #3584]	; 0xe00
  USBx_DEVICE->DCFG |= DCFG_FRAME_INTERVAL_80;
 800248a:	f8d4 3800 	ldr.w	r3, [r4, #2048]	; 0x800
 800248e:	f8c4 3800 	str.w	r3, [r4, #2048]	; 0x800
  if (cfg.phy_itface == USB_OTG_ULPI_PHY)
 8002492:	9b0e      	ldr	r3, [sp, #56]	; 0x38
 8002494:	2b01      	cmp	r3, #1
  USBx_DEVICE->DCFG |= DCFG_FRAME_INTERVAL_80;
 8002496:	f504 6500 	add.w	r5, r4, #2048	; 0x800
  if (cfg.phy_itface == USB_OTG_ULPI_PHY)
 800249a:	d165      	bne.n	8002568 <USB_DevInit+0x128>
    if (cfg.speed == USBD_HS_SPEED)
 800249c:	990b      	ldr	r1, [sp, #44]	; 0x2c
 800249e:	2900      	cmp	r1, #0
 80024a0:	d160      	bne.n	8002564 <USB_DevInit+0x124>
    (void)USB_SetDevSpeed(USBx, USB_OTG_SPEED_FULL);
 80024a2:	4620      	mov	r0, r4
 80024a4:	f7ff ffc4 	bl	8002430 <USB_SetDevSpeed>
  if (USB_FlushTxFifo(USBx, 0x10U) != HAL_OK) /* all Tx FIFOs */
 80024a8:	2110      	movs	r1, #16
 80024aa:	4620      	mov	r0, r4
 80024ac:	f7ff ff9e 	bl	80023ec <USB_FlushTxFifo>
 80024b0:	4601      	mov	r1, r0
  if (USB_FlushRxFifo(USBx) != HAL_OK)
 80024b2:	4620      	mov	r0, r4
 80024b4:	f7ff ffac 	bl	8002410 <USB_FlushRxFifo>
 80024b8:	2800      	cmp	r0, #0
 80024ba:	d157      	bne.n	800256c <USB_DevInit+0x12c>
  if (USB_FlushTxFifo(USBx, 0x10U) != HAL_OK) /* all Tx FIFOs */
 80024bc:	1c08      	adds	r0, r1, #0
 80024be:	bf18      	it	ne
 80024c0:	2001      	movne	r0, #1
  USBx_DEVICE->DIEPMSK = 0U;
 80024c2:	2300      	movs	r3, #0
 80024c4:	612b      	str	r3, [r5, #16]
 80024c6:	f504 6210 	add.w	r2, r4, #2304	; 0x900
  USBx_DEVICE->DOEPMSK = 0U;
 80024ca:	616b      	str	r3, [r5, #20]
      USBx_INEP(i)->DIEPCTL = 0U;
 80024cc:	4619      	mov	r1, r3
  USBx_DEVICE->DAINTMSK = 0U;
 80024ce:	61eb      	str	r3, [r5, #28]
        USBx_INEP(i)->DIEPCTL = USB_OTG_DIEPCTL_EPDIS | USB_OTG_DIEPCTL_SNAK;
 80024d0:	f04f 4e90 	mov.w	lr, #1207959552	; 0x48000000
        USBx_INEP(i)->DIEPCTL = USB_OTG_DIEPCTL_SNAK;
 80024d4:	f04f 6c00 	mov.w	ip, #134217728	; 0x8000000
    USBx_INEP(i)->DIEPINT  = 0xFB7FU;
 80024d8:	f64f 397f 	movw	r9, #64383	; 0xfb7f
  for (i = 0U; i < cfg.dev_endpoints; i++)
 80024dc:	4543      	cmp	r3, r8
 80024de:	d147      	bne.n	8002570 <USB_DevInit+0x130>
 80024e0:	2100      	movs	r1, #0
 80024e2:	f504 6230 	add.w	r2, r4, #2816	; 0xb00
      USBx_OUTEP(i)->DOEPCTL = 0U;
 80024e6:	468e      	mov	lr, r1
        USBx_OUTEP(i)->DOEPCTL = USB_OTG_DOEPCTL_EPDIS | USB_OTG_DOEPCTL_SNAK;
 80024e8:	f04f 4c90 	mov.w	ip, #1207959552	; 0x48000000
        USBx_OUTEP(i)->DOEPCTL = USB_OTG_DOEPCTL_SNAK;
 80024ec:	f04f 6800 	mov.w	r8, #134217728	; 0x8000000
    USBx_OUTEP(i)->DOEPINT  = 0xFB7FU;
 80024f0:	f64f 397f 	movw	r9, #64383	; 0xfb7f
  for (i = 0U; i < cfg.dev_endpoints; i++)
 80024f4:	428b      	cmp	r3, r1
 80024f6:	d14e      	bne.n	8002596 <USB_DevInit+0x156>
  USBx_DEVICE->DIEPMSK &= ~(USB_OTG_DIEPMSK_TXFURM);
 80024f8:	692b      	ldr	r3, [r5, #16]
  if (cfg.dma_enable == 1U)
 80024fa:	2f01      	cmp	r7, #1
  USBx_DEVICE->DIEPMSK &= ~(USB_OTG_DIEPMSK_TXFURM);
 80024fc:	f423 7380 	bic.w	r3, r3, #256	; 0x100
 8002500:	612b      	str	r3, [r5, #16]
  if (cfg.dma_enable == 1U)
 8002502:	d107      	bne.n	8002514 <USB_DevInit+0xd4>
    USBx_DEVICE->DTHRCTL = USB_OTG_DTHRCTL_TXTHRLEN_6 |
 8002504:	4b2e      	ldr	r3, [pc, #184]	; (80025c0 <USB_DevInit+0x180>)
 8002506:	632b      	str	r3, [r5, #48]	; 0x30
    USBx_DEVICE->DTHRCTL |= USB_OTG_DTHRCTL_RXTHREN |
 8002508:	6b2b      	ldr	r3, [r5, #48]	; 0x30
 800250a:	f443 3380 	orr.w	r3, r3, #65536	; 0x10000
 800250e:	f043 0303 	orr.w	r3, r3, #3
 8002512:	632b      	str	r3, [r5, #48]	; 0x30
  USBx->GINTMSK = 0U;
 8002514:	2300      	movs	r3, #0
 8002516:	61a3      	str	r3, [r4, #24]
  USBx->GINTSTS = 0xBFFFFFFFU;
 8002518:	f06f 4380 	mvn.w	r3, #1073741824	; 0x40000000
 800251c:	6163      	str	r3, [r4, #20]
  if (cfg.dma_enable == 0U)
 800251e:	b91f      	cbnz	r7, 8002528 <USB_DevInit+0xe8>
    USBx->GINTMSK |= USB_OTG_GINTMSK_RXFLVLM;
 8002520:	69a3      	ldr	r3, [r4, #24]
 8002522:	f043 0310 	orr.w	r3, r3, #16
 8002526:	61a3      	str	r3, [r4, #24]
  USBx->GINTMSK |= USB_OTG_GINTMSK_USBSUSPM | USB_OTG_GINTMSK_USBRST |
 8002528:	69a2      	ldr	r2, [r4, #24]
 800252a:	4b26      	ldr	r3, [pc, #152]	; (80025c4 <USB_DevInit+0x184>)
 800252c:	4313      	orrs	r3, r2
 800252e:	61a3      	str	r3, [r4, #24]
  if (cfg.Sof_enable != 0U)
 8002530:	9b0f      	ldr	r3, [sp, #60]	; 0x3c
 8002532:	b11b      	cbz	r3, 800253c <USB_DevInit+0xfc>
    USBx->GINTMSK |= USB_OTG_GINTMSK_SOFM;
 8002534:	69a3      	ldr	r3, [r4, #24]
 8002536:	f043 0308 	orr.w	r3, r3, #8
 800253a:	61a3      	str	r3, [r4, #24]
  if (cfg.vbus_sensing_enable == 1U)
 800253c:	2e01      	cmp	r6, #1
    USBx->GINTMSK |= (USB_OTG_GINTMSK_SRQIM | USB_OTG_GINTMSK_OTGINT);
 800253e:	bf01      	itttt	eq
 8002540:	69a3      	ldreq	r3, [r4, #24]
 8002542:	f043 4380 	orreq.w	r3, r3, #1073741824	; 0x40000000
 8002546:	f043 0304 	orreq.w	r3, r3, #4
 800254a:	61a3      	streq	r3, [r4, #24]
}
 800254c:	e8bd 47f0 	ldmia.w	sp!, {r4, r5, r6, r7, r8, r9, sl, lr}
 8002550:	b004      	add	sp, #16
 8002552:	4770      	bx	lr
    USBx->GOTGCTL &= ~USB_OTG_GCCFG_NOVBUSSENS;
 8002554:	6823      	ldr	r3, [r4, #0]
 8002556:	f423 1300 	bic.w	r3, r3, #2097152	; 0x200000
 800255a:	6023      	str	r3, [r4, #0]
    USBx->GCCFG |= USB_OTG_GCCFG_VBUSBSEN;
 800255c:	6ba3      	ldr	r3, [r4, #56]	; 0x38
 800255e:	f443 2300 	orr.w	r3, r3, #524288	; 0x80000
 8002562:	e78e      	b.n	8002482 <USB_DevInit+0x42>
      (void)USB_SetDevSpeed(USBx, USB_OTG_SPEED_HIGH_IN_FULL);
 8002564:	4619      	mov	r1, r3
 8002566:	e79c      	b.n	80024a2 <USB_DevInit+0x62>
    (void)USB_SetDevSpeed(USBx, USB_OTG_SPEED_FULL);
 8002568:	2103      	movs	r1, #3
 800256a:	e79a      	b.n	80024a2 <USB_DevInit+0x62>
 800256c:	2001      	movs	r0, #1
 800256e:	e7a8      	b.n	80024c2 <USB_DevInit+0x82>
    if ((USBx_INEP(i)->DIEPCTL & USB_OTG_DIEPCTL_EPENA) == USB_OTG_DIEPCTL_EPENA)
 8002570:	f8d2 a000 	ldr.w	sl, [r2]
 8002574:	f1ba 0f00 	cmp.w	sl, #0
 8002578:	da0b      	bge.n	8002592 <USB_DevInit+0x152>
      if (i == 0U)
 800257a:	b93b      	cbnz	r3, 800258c <USB_DevInit+0x14c>
        USBx_INEP(i)->DIEPCTL = USB_OTG_DIEPCTL_SNAK;
 800257c:	f8c2 c000 	str.w	ip, [r2]
    USBx_INEP(i)->DIEPTSIZ = 0U;
 8002580:	6111      	str	r1, [r2, #16]
  for (i = 0U; i < cfg.dev_endpoints; i++)
 8002582:	3301      	adds	r3, #1
    USBx_INEP(i)->DIEPINT  = 0xFB7FU;
 8002584:	f8c2 9008 	str.w	r9, [r2, #8]
 8002588:	3220      	adds	r2, #32
 800258a:	e7a7      	b.n	80024dc <USB_DevInit+0x9c>
        USBx_INEP(i)->DIEPCTL = USB_OTG_DIEPCTL_EPDIS | USB_OTG_DIEPCTL_SNAK;
 800258c:	f8c2 e000 	str.w	lr, [r2]
 8002590:	e7f6      	b.n	8002580 <USB_DevInit+0x140>
      USBx_INEP(i)->DIEPCTL = 0U;
 8002592:	6011      	str	r1, [r2, #0]
 8002594:	e7f4      	b.n	8002580 <USB_DevInit+0x140>
    if ((USBx_OUTEP(i)->DOEPCTL & USB_OTG_DOEPCTL_EPENA) == USB_OTG_DOEPCTL_EPENA)
 8002596:	f8d2 a000 	ldr.w	sl, [r2]
 800259a:	f1ba 0f00 	cmp.w	sl, #0
 800259e:	da0c      	bge.n	80025ba <USB_DevInit+0x17a>
      if (i == 0U)
 80025a0:	b941      	cbnz	r1, 80025b4 <USB_DevInit+0x174>
        USBx_OUTEP(i)->DOEPCTL = USB_OTG_DOEPCTL_SNAK;
 80025a2:	f8c2 8000 	str.w	r8, [r2]
    USBx_OUTEP(i)->DOEPTSIZ = 0U;
 80025a6:	f8c2 e010 	str.w	lr, [r2, #16]
  for (i = 0U; i < cfg.dev_endpoints; i++)
 80025aa:	3101      	adds	r1, #1
    USBx_OUTEP(i)->DOEPINT  = 0xFB7FU;
 80025ac:	f8c2 9008 	str.w	r9, [r2, #8]
 80025b0:	3220      	adds	r2, #32
 80025b2:	e79f      	b.n	80024f4 <USB_DevInit+0xb4>
        USBx_OUTEP(i)->DOEPCTL = USB_OTG_DOEPCTL_EPDIS | USB_OTG_DOEPCTL_SNAK;
 80025b4:	f8c2 c000 	str.w	ip, [r2]
 80025b8:	e7f5      	b.n	80025a6 <USB_DevInit+0x166>
      USBx_OUTEP(i)->DOEPCTL = 0U;
 80025ba:	f8c2 e000 	str.w	lr, [r2]
 80025be:	e7f2      	b.n	80025a6 <USB_DevInit+0x166>
 80025c0:	00800100 	.word	0x00800100
 80025c4:	803c3800 	.word	0x803c3800

080025c8 <USB_DevDisconnect>:
{
 80025c8:	b508      	push	{r3, lr}
  USBx_DEVICE->DCTL |= USB_OTG_DCTL_SDIS;
 80025ca:	f8d0 3804 	ldr.w	r3, [r0, #2052]	; 0x804
 80025ce:	f043 0302 	orr.w	r3, r3, #2
 80025d2:	f8c0 3804 	str.w	r3, [r0, #2052]	; 0x804
  HAL_Delay(3U);
 80025d6:	2003      	movs	r0, #3
 80025d8:	f7fd ffe0 	bl	800059c <HAL_Delay>
}
 80025dc:	2000      	movs	r0, #0
 80025de:	bd08      	pop	{r3, pc}

080025e0 <HAL_GPIO_EXTI_Callback>:

/* Private user code ---------------------------------------------------------*/
/* USER CODE BEGIN 0 */
void HAL_GPIO_EXTI_Callback(uint16_t GPIO_Pin)  // External Interrupt
{
  if(GPIO_Pin==GPIO_PIN_0)
 80025e0:	2801      	cmp	r0, #1
 80025e2:	d105      	bne.n	80025f0 <HAL_GPIO_EXTI_Callback+0x10>
    {
      SysStatus = 0b10000000;
 80025e4:	4b03      	ldr	r3, [pc, #12]	; (80025f4 <HAL_GPIO_EXTI_Callback+0x14>)
 80025e6:	2280      	movs	r2, #128	; 0x80
 80025e8:	701a      	strb	r2, [r3, #0]
      ModStatus = 0;
 80025ea:	4b03      	ldr	r3, [pc, #12]	; (80025f8 <HAL_GPIO_EXTI_Callback+0x18>)
 80025ec:	2200      	movs	r2, #0
 80025ee:	701a      	strb	r2, [r3, #0]
 80025f0:	4770      	bx	lr
 80025f2:	bf00      	nop
 80025f4:	20000042 	.word	0x20000042
 80025f8:	20000038 	.word	0x20000038

080025fc <readLoadcell>:
    }
}

void readLoadcell()
{
 80025fc:	b5f0      	push	{r4, r5, r6, r7, lr}
  if((usart2_buffer[0]==0xbf)&&(usart2_buffer[8]==0xf9))
 80025fe:	4a29      	ldr	r2, [pc, #164]	; (80026a4 <readLoadcell+0xa8>)
 8002600:	7813      	ldrb	r3, [r2, #0]
 8002602:	2bbf      	cmp	r3, #191	; 0xbf
 8002604:	d14d      	bne.n	80026a2 <readLoadcell+0xa6>
 8002606:	7a13      	ldrb	r3, [r2, #8]
 8002608:	2bf9      	cmp	r3, #249	; 0xf9
 800260a:	d14a      	bne.n	80026a2 <readLoadcell+0xa6>
  	{
  	  usart2_data[1]=(((~usart2_buffer[2])>>4)&0x0f);
 800260c:	7890      	ldrb	r0, [r2, #2]
 800260e:	78d1      	ldrb	r1, [r2, #3]
 8002610:	4b25      	ldr	r3, [pc, #148]	; (80026a8 <readLoadcell+0xac>)
  	  //data[1]=(((~buffer[2])>>4)&0x0f)+48;

  	  for(int i=2;i<=3;i++)
  	    {
  	      if(usart2_buffer[i]==0xfb)
 8002612:	28fb      	cmp	r0, #251	; 0xfb
  	    	  usart2_data[i]=(((~usart2_buffer[i+1])>>4)&0x0f);
  		  //data[i]=(((~buffer[i+1])>>4)&0x0f)+48;
  		  }
  	      else
  	      {
  	    	  usart2_data[i]=(((~usart2_buffer[i+1])>>1)&0x0f);
 8002614:	bf14      	ite	ne
 8002616:	ea6f 0151 	mvnne.w	r1, r1, lsr #1
  	    	  usart2_data[i]=(((~usart2_buffer[i+1])>>4)&0x0f);
 800261a:	ea6f 1111 	mvneq.w	r1, r1, lsr #4
 800261e:	f001 010f 	and.w	r1, r1, #15
 8002622:	7099      	strb	r1, [r3, #2]
  	      if(usart2_buffer[i]==0xfb)
 8002624:	78d1      	ldrb	r1, [r2, #3]
  	    {
  	      usart2_data[j]=(((~usart2_buffer[j+1])>>1)&0x0f);
  	      //data[j]=(((~buffer[j+1])>>1)&0x0f)+48;
  	    }

  	  force = (usart2_data[1]*10000)+(usart2_data[2]*1000)+
 8002626:	789d      	ldrb	r5, [r3, #2]
  	      if(usart2_buffer[i]==0xfb)
 8002628:	29fb      	cmp	r1, #251	; 0xfb
 800262a:	7911      	ldrb	r1, [r2, #4]
  	    	  usart2_data[i]=(((~usart2_buffer[i+1])>>1)&0x0f);
 800262c:	bf14      	ite	ne
 800262e:	ea6f 0151 	mvnne.w	r1, r1, lsr #1
  	    	  usart2_data[i]=(((~usart2_buffer[i+1])>>4)&0x0f);
 8002632:	ea6f 1111 	mvneq.w	r1, r1, lsr #4
 8002636:	f001 010f 	and.w	r1, r1, #15
 800263a:	70d9      	strb	r1, [r3, #3]
  	  if(usart2_buffer[5]==0xa3)
 800263c:	7951      	ldrb	r1, [r2, #5]
  	  force = (usart2_data[1]*10000)+(usart2_data[2]*1000)+
 800263e:	78df      	ldrb	r7, [r3, #3]
  	  if(usart2_buffer[5]==0xa3)
 8002640:	29a3      	cmp	r1, #163	; 0xa3
  	    { usart2_data[4]='.'; }
 8002642:	bf04      	itt	eq
 8002644:	212e      	moveq	r1, #46	; 0x2e
 8002646:	7119      	strbeq	r1, [r3, #4]
  	      usart2_data[j]=(((~usart2_buffer[j+1])>>1)&0x0f);
 8002648:	7991      	ldrb	r1, [r2, #6]
  	  usart2_data[1]=(((~usart2_buffer[2])>>4)&0x0f);
 800264a:	ea6f 1410 	mvn.w	r4, r0, lsr #4
  	      usart2_data[j]=(((~usart2_buffer[j+1])>>1)&0x0f);
 800264e:	ea6f 0151 	mvn.w	r1, r1, lsr #1
 8002652:	f001 060f 	and.w	r6, r1, #15
  	  usart2_data[1]=(((~usart2_buffer[2])>>4)&0x0f);
 8002656:	f004 040f 	and.w	r4, r4, #15
  	  force = (usart2_data[1]*10000)+(usart2_data[2]*1000)+
 800265a:	f242 7110 	movw	r1, #10000	; 0x2710
  	      usart2_data[j]=(((~usart2_buffer[j+1])>>1)&0x0f);
 800265e:	79d0      	ldrb	r0, [r2, #7]
  	  usart2_data[1]=(((~usart2_buffer[2])>>4)&0x0f);
 8002660:	705c      	strb	r4, [r3, #1]
  	  force = (usart2_data[1]*10000)+(usart2_data[2]*1000)+
 8002662:	434c      	muls	r4, r1
 8002664:	f44f 717a 	mov.w	r1, #1000	; 0x3e8
 8002668:	fb01 4105 	mla	r1, r1, r5, r4
 800266c:	2464      	movs	r4, #100	; 0x64
 800266e:	fb14 1407 	smlabb	r4, r4, r7, r1
  	      usart2_data[j]=(((~usart2_buffer[j+1])>>1)&0x0f);
 8002672:	ea6f 0050 	mvn.w	r0, r0, lsr #1
  	      (usart2_data[3]*100)+(usart2_data[5]*10)+(usart2_data[6]*1);
 8002676:	210a      	movs	r1, #10
  	      usart2_data[j]=(((~usart2_buffer[j+1])>>1)&0x0f);
 8002678:	f000 000f 	and.w	r0, r0, #15
  	      (usart2_data[3]*100)+(usart2_data[5]*10)+(usart2_data[6]*1);
 800267c:	fb11 4106 	smlabb	r1, r1, r6, r4

  	  if(usart2_buffer[1]==0x96)
 8002680:	7852      	ldrb	r2, [r2, #1]
  	      usart2_data[j]=(((~usart2_buffer[j+1])>>1)&0x0f);
 8002682:	7198      	strb	r0, [r3, #6]
  	      (usart2_data[3]*100)+(usart2_data[5]*10)+(usart2_data[6]*1);
 8002684:	4401      	add	r1, r0
  	  force = (usart2_data[1]*10000)+(usart2_data[2]*1000)+
 8002686:	4809      	ldr	r0, [pc, #36]	; (80026ac <readLoadcell+0xb0>)
  	      usart2_data[j]=(((~usart2_buffer[j+1])>>1)&0x0f);
 8002688:	715e      	strb	r6, [r3, #5]
  	  if(usart2_buffer[1]==0x96)
 800268a:	2a96      	cmp	r2, #150	; 0x96
  	  force = (usart2_data[1]*10000)+(usart2_data[2]*1000)+
 800268c:	6001      	str	r1, [r0, #0]
  	  if(usart2_buffer[1]==0x96)
 800268e:	d102      	bne.n	8002696 <readLoadcell+0x9a>
  	    {
  	      usart2_data[0]='+';
 8002690:	222b      	movs	r2, #43	; 0x2b
 8002692:	701a      	strb	r2, [r3, #0]
 8002694:	bdf0      	pop	{r4, r5, r6, r7, pc}
  	    }
  	  else if(usart2_buffer[1]==0x56)
 8002696:	2a56      	cmp	r2, #86	; 0x56
  	    {
  	      usart2_data[0]='-';
 8002698:	bf01      	itttt	eq
 800269a:	222d      	moveq	r2, #45	; 0x2d
  	      force *= -1;
 800269c:	4249      	negeq	r1, r1
  	      usart2_data[0]='-';
 800269e:	701a      	strbeq	r2, [r3, #0]
  	      force *= -1;
 80026a0:	6001      	streq	r1, [r0, #0]
 80026a2:	bdf0      	pop	{r4, r5, r6, r7, pc}
 80026a4:	20000668 	.word	0x20000668
 80026a8:	20000678 	.word	0x20000678
 80026ac:	20000048 	.word	0x20000048

080026b0 <readTorque>:
  	    }
  	}
}

void readTorque()
{
 80026b0:	b5f0      	push	{r4, r5, r6, r7, lr}
  if((usart6_buffer[0]==0xbf)&&(usart6_buffer[11]==0xf9))
 80026b2:	4b22      	ldr	r3, [pc, #136]	; (800273c <readTorque+0x8c>)
 80026b4:	781a      	ldrb	r2, [r3, #0]
 80026b6:	2abf      	cmp	r2, #191	; 0xbf
 80026b8:	d13f      	bne.n	800273a <readTorque+0x8a>
 80026ba:	7ada      	ldrb	r2, [r3, #11]
 80026bc:	2af9      	cmp	r2, #249	; 0xf9
 80026be:	d13c      	bne.n	800273a <readTorque+0x8a>
  	{
  	  for(int i=1;i<=3;i++)
  	    {
  	      usart6_data[i]=(((~usart6_buffer[i+3])>>1)&0x0f);
 80026c0:	4c1f      	ldr	r4, [pc, #124]	; (8002740 <readTorque+0x90>)
 80026c2:	2201      	movs	r2, #1
 80026c4:	4621      	mov	r1, r4
 80026c6:	1898      	adds	r0, r3, r2
 80026c8:	78c0      	ldrb	r0, [r0, #3]
 80026ca:	ea6f 0050 	mvn.w	r0, r0, lsr #1
 80026ce:	f000 000f 	and.w	r0, r0, #15
 80026d2:	5510      	strb	r0, [r2, r4]
  	  for(int i=1;i<=3;i++)
 80026d4:	3201      	adds	r2, #1
 80026d6:	2a04      	cmp	r2, #4
 80026d8:	d1f5      	bne.n	80026c6 <readTorque+0x16>
  	    }
  	  if(usart6_buffer[7]==0xa3)
 80026da:	79da      	ldrb	r2, [r3, #7]
  	    { usart6_data[4]='.'; }
  	  usart6_data[5]=(((~usart6_buffer[8])>>1)&0x0f);
  	  usart6_data[6]=(((~usart6_buffer[9])>>1)&0x0f);

  	  torque = (usart6_data[1]*10000)+(usart6_data[2]*1000)+
 80026dc:	784d      	ldrb	r5, [r1, #1]
  	  usart6_data[6]=(((~usart6_buffer[9])>>1)&0x0f);
 80026de:	7a58      	ldrb	r0, [r3, #9]
  	  torque = (usart6_data[1]*10000)+(usart6_data[2]*1000)+
 80026e0:	78cf      	ldrb	r7, [r1, #3]
  	  if(usart6_buffer[7]==0xa3)
 80026e2:	2aa3      	cmp	r2, #163	; 0xa3
  	    { usart6_data[4]='.'; }
 80026e4:	bf04      	itt	eq
 80026e6:	222e      	moveq	r2, #46	; 0x2e
 80026e8:	7122      	strbeq	r2, [r4, #4]
  	  usart6_data[5]=(((~usart6_buffer[8])>>1)&0x0f);
 80026ea:	7a1a      	ldrb	r2, [r3, #8]
  	      (usart6_data[3]*100)+(usart6_data[5]*10)+(usart6_data[6]*1);

  	  if(usart6_buffer[2]==0x96)
 80026ec:	789b      	ldrb	r3, [r3, #2]
  	  usart6_data[5]=(((~usart6_buffer[8])>>1)&0x0f);
 80026ee:	ea6f 0252 	mvn.w	r2, r2, lsr #1
 80026f2:	f002 060f 	and.w	r6, r2, #15
  	  torque = (usart6_data[1]*10000)+(usart6_data[2]*1000)+
 80026f6:	788a      	ldrb	r2, [r1, #2]
  	  usart6_data[5]=(((~usart6_buffer[8])>>1)&0x0f);
 80026f8:	714e      	strb	r6, [r1, #5]
  	  torque = (usart6_data[1]*10000)+(usart6_data[2]*1000)+
 80026fa:	f44f 747a 	mov.w	r4, #1000	; 0x3e8
 80026fe:	4354      	muls	r4, r2
 8002700:	f242 7210 	movw	r2, #10000	; 0x2710
 8002704:	fb02 4205 	mla	r2, r2, r5, r4
 8002708:	2464      	movs	r4, #100	; 0x64
 800270a:	fb14 2407 	smlabb	r4, r4, r7, r2
  	  usart6_data[6]=(((~usart6_buffer[9])>>1)&0x0f);
 800270e:	ea6f 0050 	mvn.w	r0, r0, lsr #1
  	      (usart6_data[3]*100)+(usart6_data[5]*10)+(usart6_data[6]*1);
 8002712:	220a      	movs	r2, #10
  	  usart6_data[6]=(((~usart6_buffer[9])>>1)&0x0f);
 8002714:	f000 000f 	and.w	r0, r0, #15
  	      (usart6_data[3]*100)+(usart6_data[5]*10)+(usart6_data[6]*1);
 8002718:	fb12 4206 	smlabb	r2, r2, r6, r4
 800271c:	4402      	add	r2, r0
  	  usart6_data[6]=(((~usart6_buffer[9])>>1)&0x0f);
 800271e:	7188      	strb	r0, [r1, #6]
  	  torque = (usart6_data[1]*10000)+(usart6_data[2]*1000)+
 8002720:	4808      	ldr	r0, [pc, #32]	; (8002744 <readTorque+0x94>)
  	  if(usart6_buffer[2]==0x96)
 8002722:	2b96      	cmp	r3, #150	; 0x96
  	  torque = (usart6_data[1]*10000)+(usart6_data[2]*1000)+
 8002724:	6002      	str	r2, [r0, #0]
  	  if(usart6_buffer[2]==0x96)
 8002726:	d104      	bne.n	8002732 <readTorque+0x82>
  	    {
  	      usart6_data[0]='+';
 8002728:	232b      	movs	r3, #43	; 0x2b
  	      torque *= -1;
 800272a:	4252      	negs	r2, r2
  	      usart6_data[0]='+';
 800272c:	700b      	strb	r3, [r1, #0]
  	      torque *= -1;
 800272e:	6002      	str	r2, [r0, #0]
 8002730:	bdf0      	pop	{r4, r5, r6, r7, pc}
  	    }
  	  else if(usart6_buffer[2]==0x56)
 8002732:	2b56      	cmp	r3, #86	; 0x56
  	    {
  	      usart6_data[0]='-';
 8002734:	bf04      	itt	eq
 8002736:	232d      	moveq	r3, #45	; 0x2d
 8002738:	700b      	strbeq	r3, [r1, #0]
 800273a:	bdf0      	pop	{r4, r5, r6, r7, pc}
 800273c:	2000073c 	.word	0x2000073c
 8002740:	200001a0 	.word	0x200001a0
 8002744:	20000054 	.word	0x20000054

08002748 <command>:
 received data packet come into channel (&huart4)
 tp sends shape of char[10] data
 */

uint8_t command()
{
 8002748:	b530      	push	{r4, r5, lr}
	uint8_t sysmod = 0b00000000;

	for(int d=2; d<6; d++){//rxdata order d 2,3,4,5,6
	switch(d){
		case(2):
			switch(rx_data[2]){ // motor stauts
 800274a:	4b27      	ldr	r3, [pc, #156]	; (80027e8 <command+0xa0>)
 800274c:	7899      	ldrb	r1, [r3, #2]
				case(0x34):
						sysmod = WHEELCYCLE;//wheel & resist 4th High 0b00010000
					break;
			}
		case(3):
			switch(rx_data[3]){//mode status
 800274e:	78dc      	ldrb	r4, [r3, #3]
			case(0x30):
					sysmod &= ~(0x04);//N/A mode 6th low push and wheel has just resist mode 0b00010000
				break;
			}
		case(4):
			switch(rx_data[4]){//speed
 8002750:	791a      	ldrb	r2, [r3, #4]
			case(0x63)://make 11
					sysmod |= 0x03;//using last two bit 11 ->0b00000011
				break;
			}
		case(5):
			switch(rx_data[5]){//activate up down mode
 8002752:	795d      	ldrb	r5, [r3, #5]
	uint8_t sysmod = 0b00000000;
 8002754:	2000      	movs	r0, #0
	for(int d=2; d<6; d++){//rxdata order d 2,3,4,5,6
 8002756:	2302      	movs	r3, #2
			switch(rx_data[2]){ // motor stauts
 8002758:	3931      	subs	r1, #49	; 0x31
	switch(d){
 800275a:	2b04      	cmp	r3, #4
 800275c:	d01c      	beq.n	8002798 <command+0x50>
 800275e:	2b05      	cmp	r3, #5
 8002760:	d01e      	beq.n	80027a0 <command+0x58>
 8002762:	2b03      	cmp	r3, #3
 8002764:	d006      	beq.n	8002774 <command+0x2c>
			switch(rx_data[2]){ // motor stauts
 8002766:	2903      	cmp	r1, #3
 8002768:	d804      	bhi.n	8002774 <command+0x2c>
 800276a:	e8df f001 	tbb	[pc, r1]
 800276e:	0c02      	.short	0x0c02
 8002770:	100e      	.short	0x100e
						sysmod = ROTATE;//rotat 1st High  0b10000000
 8002772:	2080      	movs	r0, #128	; 0x80
			switch(rx_data[3]){//mode status
 8002774:	2c41      	cmp	r4, #65	; 0x41
 8002776:	d00c      	beq.n	8002792 <command+0x4a>
 8002778:	2c52      	cmp	r4, #82	; 0x52
 800277a:	d001      	beq.n	8002780 <command+0x38>
 800277c:	2c30      	cmp	r4, #48	; 0x30
 800277e:	d10b      	bne.n	8002798 <command+0x50>
					sysmod &= ~(0x04);//N/A mode 6th low push and wheel has just resist mode 0b00010000
 8002780:	f000 00fb 	and.w	r0, r0, #251	; 0xfb
				break;
 8002784:	e008      	b.n	8002798 <command+0x50>
						sysmod = TRANS;//trans 2nd High 0b01000000
 8002786:	2040      	movs	r0, #64	; 0x40
					break;
 8002788:	e7f4      	b.n	8002774 <command+0x2c>
						sysmod = PUSHOFF;//push & resist 3rd High 0b00100000
 800278a:	2020      	movs	r0, #32
					break;
 800278c:	e7f2      	b.n	8002774 <command+0x2c>
						sysmod = WHEELCYCLE;//wheel & resist 4th High 0b00010000
 800278e:	2010      	movs	r0, #16
					break;
 8002790:	e7f0      	b.n	8002774 <command+0x2c>
					sysmod |= MOE;//Activemode 6th High 0b00000100
 8002792:	f040 0004 	orr.w	r0, r0, #4
 8002796:	b2c0      	uxtb	r0, r0
			switch(rx_data[4]){//speed
 8002798:	2a61      	cmp	r2, #97	; 0x61
 800279a:	d017      	beq.n	80027cc <command+0x84>
 800279c:	d80b      	bhi.n	80027b6 <command+0x6e>
 800279e:	b192      	cbz	r2, 80027c6 <command+0x7e>
			switch(rx_data[5]){//activate up down mode
 80027a0:	2d53      	cmp	r5, #83	; 0x53
 80027a2:	d01f      	beq.n	80027e4 <command+0x9c>
 80027a4:	2d55      	cmp	r5, #85	; 0x55
 80027a6:	d01b      	beq.n	80027e0 <command+0x98>
					sysmod |= 0x04;//up drive
				break;
			case(0x44):
					sysmod = 0x00;
					sysmod |= 0x08;//activate up down mode
					sysmod &= ~(0x04); //down drive
 80027a8:	2d44      	cmp	r5, #68	; 0x44
 80027aa:	bf08      	it	eq
 80027ac:	2008      	moveq	r0, #8
	for(int d=2; d<6; d++){//rxdata order d 2,3,4,5,6
 80027ae:	3301      	adds	r3, #1
 80027b0:	2b06      	cmp	r3, #6
 80027b2:	d1d2      	bne.n	800275a <command+0x12>
				break;
			}
		}
	}
	return sysmod;
}
 80027b4:	bd30      	pop	{r4, r5, pc}
			switch(rx_data[4]){//speed
 80027b6:	2a62      	cmp	r2, #98	; 0x62
 80027b8:	d00d      	beq.n	80027d6 <command+0x8e>
 80027ba:	2a63      	cmp	r2, #99	; 0x63
 80027bc:	d1f0      	bne.n	80027a0 <command+0x58>
					sysmod |= 0x03;//using last two bit 11 ->0b00000011
 80027be:	f040 0003 	orr.w	r0, r0, #3
 80027c2:	b2c0      	uxtb	r0, r0
				break;
 80027c4:	e7ec      	b.n	80027a0 <command+0x58>
					sysmod &= ~(0x03);// using last two bit 00 -> 0b00000011
 80027c6:	f000 00fc 	and.w	r0, r0, #252	; 0xfc
				break;
 80027ca:	e7e9      	b.n	80027a0 <command+0x58>
					sysmod &= ~(0x02);//using last two bit 01 -> 0b00000010
 80027cc:	f000 00fd 	and.w	r0, r0, #253	; 0xfd
					sysmod |= (0x01); //->0b00000001
 80027d0:	f040 0001 	orr.w	r0, r0, #1
				break;
 80027d4:	e7e4      	b.n	80027a0 <command+0x58>
					sysmod &= ~(0x01);//using last two bit 10 -> 0b00000001
 80027d6:	f000 00fe 	and.w	r0, r0, #254	; 0xfe
					sysmod |= (0x02);//->0b00000010
 80027da:	f040 0002 	orr.w	r0, r0, #2
				break;
 80027de:	e7df      	b.n	80027a0 <command+0x58>
					sysmod |= 0x04;//up drive
 80027e0:	200c      	movs	r0, #12
 80027e2:	e7e4      	b.n	80027ae <command+0x66>
					sysmod &= ~(0x08);//deactivate up down mode
 80027e4:	2000      	movs	r0, #0
				break;
 80027e6:	e7e2      	b.n	80027ae <command+0x66>
 80027e8:	20000749 	.word	0x20000749

080027ec <readMotorDriver>:

void readMotorDriver()
{
 80027ec:	e92d 41f0 	stmdb	sp!, {r4, r5, r6, r7, r8, lr}
	int value=0;
	static int fst_num=0;
	//static uint8_t err_point=0;

	if((usart5_buffer[0]==STX)&&(usart5_buffer[12]==ETX))
 80027f0:	4a34      	ldr	r2, [pc, #208]	; (80028c4 <readMotorDriver+0xd8>)
 80027f2:	4935      	ldr	r1, [pc, #212]	; (80028c8 <readMotorDriver+0xdc>)
 80027f4:	7813      	ldrb	r3, [r2, #0]
 80027f6:	2b02      	cmp	r3, #2
 80027f8:	d121      	bne.n	800283e <readMotorDriver+0x52>
 80027fa:	7b13      	ldrb	r3, [r2, #12]
 80027fc:	2b03      	cmp	r3, #3
 80027fe:	d11e      	bne.n	800283e <readMotorDriver+0x52>
	{
		abnormal=0;
 8002800:	2300      	movs	r3, #0
 8002802:	700b      	strb	r3, [r1, #0]
		for(int i=0;i<13;i++)
		{
			usart5_data[i]=usart5_buffer[i];
 8002804:	4931      	ldr	r1, [pc, #196]	; (80028cc <readMotorDriver+0xe0>)
 8002806:	5c98      	ldrb	r0, [r3, r2]
 8002808:	5458      	strb	r0, [r3, r1]
		for(int i=0;i<13;i++)
 800280a:	3301      	adds	r3, #1
 800280c:	2b0d      	cmp	r3, #13
 800280e:	d1fa      	bne.n	8002806 <readMotorDriver+0x1a>
				}
			}
		}
	}

	if((usart5_data[3]&0xf0)==RESPONSE_READ)
 8002810:	4b2e      	ldr	r3, [pc, #184]	; (80028cc <readMotorDriver+0xe0>)
 8002812:	78da      	ldrb	r2, [r3, #3]
 8002814:	f002 02f0 	and.w	r2, r2, #240	; 0xf0
 8002818:	2a40      	cmp	r2, #64	; 0x40
 800281a:	d143      	bne.n	80028a4 <readMotorDriver+0xb8>
	{
		value=((int)usart5_data[7]<<0)|
 800281c:	f8d3 2007 	ldr.w	r2, [r3, #7]
				((int)usart5_data[8]<<8)|
				((int)usart5_data[9]<<16)|
				((int)usart5_data[10]<<24);
		if(usart5_data[6]==CH1)
 8002820:	799b      	ldrb	r3, [r3, #6]
 8002822:	2b01      	cmp	r3, #1
 8002824:	d13a      	bne.n	800289c <readMotorDriver+0xb0>
		{
			stroke1=value;
 8002826:	492a      	ldr	r1, [pc, #168]	; (80028d0 <readMotorDriver+0xe4>)
			usart5_status=POS_CH1;
		}
		else if(usart5_data[6]==CH2)
		{
			stroke2=value;
 8002828:	600a      	str	r2, [r1, #0]
			usart5_status=POS_CH2;
 800282a:	4a2a      	ldr	r2, [pc, #168]	; (80028d4 <readMotorDriver+0xe8>)
 800282c:	7013      	strb	r3, [r2, #0]
		}
		usart5_ACK=1;
 800282e:	4b2a      	ldr	r3, [pc, #168]	; (80028d8 <readMotorDriver+0xec>)
 8002830:	2201      	movs	r2, #1
 8002832:	701a      	strb	r2, [r3, #0]
		usart5_REQ=0;
 8002834:	4b29      	ldr	r3, [pc, #164]	; (80028dc <readMotorDriver+0xf0>)
 8002836:	2200      	movs	r2, #0
 8002838:	701a      	strb	r2, [r3, #0]
 800283a:	e8bd 81f0 	ldmia.w	sp!, {r4, r5, r6, r7, r8, pc}
		abnormal=1;
 800283e:	2301      	movs	r3, #1
 8002840:	700b      	strb	r3, [r1, #0]
 8002842:	4927      	ldr	r1, [pc, #156]	; (80028e0 <readMotorDriver+0xf4>)
 8002844:	4c1f      	ldr	r4, [pc, #124]	; (80028c4 <readMotorDriver+0xd8>)
 8002846:	680a      	ldr	r2, [r1, #0]
				usart5_data[13-fst_num+i]=usart5_buffer[i];
 8002848:	4f20      	ldr	r7, [pc, #128]	; (80028cc <readMotorDriver+0xe0>)
					usart5_data[i]=temp_data[i];
 800284a:	f8df e09c 	ldr.w	lr, [pc, #156]	; 80028e8 <readMotorDriver+0xfc>
		abnormal=1;
 800284e:	2000      	movs	r0, #0
		for(int i=0;i<13;i++)
 8002850:	4603      	mov	r3, r0
			if((usart5_buffer[i]==0x03)&&(usart5_buffer[i+1]==0x02))
 8002852:	f814 5b01 	ldrb.w	r5, [r4], #1
 8002856:	2d03      	cmp	r5, #3
 8002858:	f103 0601 	add.w	r6, r3, #1
 800285c:	d106      	bne.n	800286c <readMotorDriver+0x80>
 800285e:	f894 c000 	ldrb.w	ip, [r4]
				fst_num=i+1;
 8002862:	f1bc 0f02 	cmp.w	ip, #2
 8002866:	bf04      	itt	eq
 8002868:	4632      	moveq	r2, r6
 800286a:	2001      	moveq	r0, #1
			if(i>=fst_num)
 800286c:	429a      	cmp	r2, r3
 800286e:	dc09      	bgt.n	8002884 <readMotorDriver+0x98>
				temp_data[i-fst_num]=usart5_buffer[i];
 8002870:	1a9b      	subs	r3, r3, r2
 8002872:	f80e 5003 	strb.w	r5, [lr, r3]
		for(int i=0;i<13;i++)
 8002876:	2e0d      	cmp	r6, #13
 8002878:	4633      	mov	r3, r6
 800287a:	d1ea      	bne.n	8002852 <readMotorDriver+0x66>
 800287c:	2800      	cmp	r0, #0
 800287e:	d0c7      	beq.n	8002810 <readMotorDriver+0x24>
 8002880:	600a      	str	r2, [r1, #0]
 8002882:	e7c5      	b.n	8002810 <readMotorDriver+0x24>
				usart5_data[13-fst_num+i]=usart5_buffer[i];
 8002884:	f1c2 0c0d 	rsb	ip, r2, #13
 8002888:	eb07 080c 	add.w	r8, r7, ip
				if(i<13-fst_num)
 800288c:	459c      	cmp	ip, r3
				usart5_data[13-fst_num+i]=usart5_buffer[i];
 800288e:	f808 5003 	strb.w	r5, [r8, r3]
					usart5_data[i]=temp_data[i];
 8002892:	bfc4      	itt	gt
 8002894:	f813 500e 	ldrbgt.w	r5, [r3, lr]
 8002898:	55dd      	strbgt	r5, [r3, r7]
 800289a:	e7ec      	b.n	8002876 <readMotorDriver+0x8a>
		else if(usart5_data[6]==CH2)
 800289c:	2b02      	cmp	r3, #2
 800289e:	d1c6      	bne.n	800282e <readMotorDriver+0x42>
			stroke2=value;
 80028a0:	4910      	ldr	r1, [pc, #64]	; (80028e4 <readMotorDriver+0xf8>)
 80028a2:	e7c1      	b.n	8002828 <readMotorDriver+0x3c>
	}
	else if((usart5_data[3]&0xf0)==RESPONSE_WRITE)
 80028a4:	2a20      	cmp	r2, #32
 80028a6:	d10a      	bne.n	80028be <readMotorDriver+0xd2>
	{
		if(usart5_data[6]==CH1)
 80028a8:	799b      	ldrb	r3, [r3, #6]
 80028aa:	2b01      	cmp	r3, #1
 80028ac:	d103      	bne.n	80028b6 <readMotorDriver+0xca>
		{
			usart5_status=CUR_CH1;
 80028ae:	2211      	movs	r2, #17
		}
		else if(usart5_data[6]==CH2)
		{
			usart5_status=CUR_CH2;
 80028b0:	4b08      	ldr	r3, [pc, #32]	; (80028d4 <readMotorDriver+0xe8>)
 80028b2:	701a      	strb	r2, [r3, #0]
 80028b4:	e7bb      	b.n	800282e <readMotorDriver+0x42>
		else if(usart5_data[6]==CH2)
 80028b6:	2b02      	cmp	r3, #2
 80028b8:	d1b9      	bne.n	800282e <readMotorDriver+0x42>
			usart5_status=CUR_CH2;
 80028ba:	2212      	movs	r2, #18
 80028bc:	e7f8      	b.n	80028b0 <readMotorDriver+0xc4>
 80028be:	e8bd 81f0 	ldmia.w	sp!, {r4, r5, r6, r7, r8, pc}
 80028c2:	bf00      	nop
 80028c4:	20000070 	.word	0x20000070
 80028c8:	20000043 	.word	0x20000043
 80028cc:	200006d4 	.word	0x200006d4
 80028d0:	20000674 	.word	0x20000674
 80028d4:	20000069 	.word	0x20000069
 80028d8:	20000060 	.word	0x20000060
 80028dc:	20000061 	.word	0x20000061
 80028e0:	2000004c 	.word	0x2000004c
 80028e4:	20000650 	.word	0x20000650
 80028e8:	20000654 	.word	0x20000654

080028ec <HAL_UART_RxCpltCallback>:
*/
}

void HAL_UART_RxCpltCallback(UART_HandleTypeDef *huart)
{ //RX callback function
  if(huart->Instance==USART2)
 80028ec:	6802      	ldr	r2, [r0, #0]
 80028ee:	4b1f      	ldr	r3, [pc, #124]	; (800296c <HAL_UART_RxCpltCallback+0x80>)
 80028f0:	429a      	cmp	r2, r3
{ //RX callback function
 80028f2:	b510      	push	{r4, lr}
 80028f4:	4604      	mov	r4, r0
  if(huart->Instance==USART2)
 80028f6:	d106      	bne.n	8002906 <HAL_UART_RxCpltCallback+0x1a>
    {
      HAL_UART_Receive_DMA(&huart2, (uint8_t *)usart2_buffer, 10);
 80028f8:	220a      	movs	r2, #10
 80028fa:	491d      	ldr	r1, [pc, #116]	; (8002970 <HAL_UART_RxCpltCallback+0x84>)
 80028fc:	481d      	ldr	r0, [pc, #116]	; (8002974 <HAL_UART_RxCpltCallback+0x88>)
 80028fe:	f7ff fc3d 	bl	800217c <HAL_UART_Receive_DMA>
      readLoadcell();
 8002902:	f7ff fe7b 	bl	80025fc <readLoadcell>
    }
  if(huart->Instance == USART3) //matching Instance of huart  with UART3  channel
 8002906:	6822      	ldr	r2, [r4, #0]
 8002908:	4b1b      	ldr	r3, [pc, #108]	; (8002978 <HAL_UART_RxCpltCallback+0x8c>)
 800290a:	429a      	cmp	r2, r3
 800290c:	d108      	bne.n	8002920 <HAL_UART_RxCpltCallback+0x34>
	{
	  HAL_UART_Receive_DMA(&huart3, (uint8_t *)rx_data, 10);// from where /which data address/ data length
 800290e:	220a      	movs	r2, #10
 8002910:	491a      	ldr	r1, [pc, #104]	; (800297c <HAL_UART_RxCpltCallback+0x90>)
 8002912:	481b      	ldr	r0, [pc, #108]	; (8002980 <HAL_UART_RxCpltCallback+0x94>)
 8002914:	f7ff fc32 	bl	800217c <HAL_UART_Receive_DMA>
      mycommand = command();
 8002918:	f7ff ff16 	bl	8002748 <command>
 800291c:	4b19      	ldr	r3, [pc, #100]	; (8002984 <HAL_UART_RxCpltCallback+0x98>)
 800291e:	7018      	strb	r0, [r3, #0]
    }
  if(huart->Instance == UART4) //matching Instance of huart  with UART4  channel
 8002920:	6822      	ldr	r2, [r4, #0]
 8002922:	4b19      	ldr	r3, [pc, #100]	; (8002988 <HAL_UART_RxCpltCallback+0x9c>)
 8002924:	429a      	cmp	r2, r3
 8002926:	d108      	bne.n	800293a <HAL_UART_RxCpltCallback+0x4e>
    {
      HAL_UART_Receive_DMA(&huart4, (uint8_t *)rx_data, 10);// from where /which data address/ data length
 8002928:	220a      	movs	r2, #10
 800292a:	4914      	ldr	r1, [pc, #80]	; (800297c <HAL_UART_RxCpltCallback+0x90>)
 800292c:	4817      	ldr	r0, [pc, #92]	; (800298c <HAL_UART_RxCpltCallback+0xa0>)
 800292e:	f7ff fc25 	bl	800217c <HAL_UART_Receive_DMA>
      mycommand = command();
 8002932:	f7ff ff09 	bl	8002748 <command>
 8002936:	4b13      	ldr	r3, [pc, #76]	; (8002984 <HAL_UART_RxCpltCallback+0x98>)
 8002938:	7018      	strb	r0, [r3, #0]
    }
  if(huart->Instance==UART5)
 800293a:	6822      	ldr	r2, [r4, #0]
 800293c:	4b14      	ldr	r3, [pc, #80]	; (8002990 <HAL_UART_RxCpltCallback+0xa4>)
 800293e:	429a      	cmp	r2, r3
 8002940:	d106      	bne.n	8002950 <HAL_UART_RxCpltCallback+0x64>
	  {
		  printf("%x  ",usart5_buffer[i]);
	  }
	  printf("\r\n");
*/
	  readMotorDriver();
 8002942:	f7ff ff53 	bl	80027ec <readMotorDriver>
	  HAL_UART_Receive_DMA(&huart5, (uint8_t *)usart5_buffer, 13);
 8002946:	220d      	movs	r2, #13
 8002948:	4912      	ldr	r1, [pc, #72]	; (8002994 <HAL_UART_RxCpltCallback+0xa8>)
 800294a:	4813      	ldr	r0, [pc, #76]	; (8002998 <HAL_UART_RxCpltCallback+0xac>)
 800294c:	f7ff fc16 	bl	800217c <HAL_UART_Receive_DMA>

    }
  if(huart->Instance==USART6)
 8002950:	6822      	ldr	r2, [r4, #0]
 8002952:	4b12      	ldr	r3, [pc, #72]	; (800299c <HAL_UART_RxCpltCallback+0xb0>)
 8002954:	429a      	cmp	r2, r3
 8002956:	d108      	bne.n	800296a <HAL_UART_RxCpltCallback+0x7e>
    {
      HAL_UART_Receive_DMA(&huart6, (uint8_t *)usart6_buffer, 13);
 8002958:	220d      	movs	r2, #13
 800295a:	4911      	ldr	r1, [pc, #68]	; (80029a0 <HAL_UART_RxCpltCallback+0xb4>)
 800295c:	4811      	ldr	r0, [pc, #68]	; (80029a4 <HAL_UART_RxCpltCallback+0xb8>)
 800295e:	f7ff fc0d 	bl	800217c <HAL_UART_Receive_DMA>
      readTorque();
    }
}
 8002962:	e8bd 4010 	ldmia.w	sp!, {r4, lr}
      readTorque();
 8002966:	f7ff bea3 	b.w	80026b0 <readTorque>
 800296a:	bd10      	pop	{r4, pc}
 800296c:	40004400 	.word	0x40004400
 8002970:	20000668 	.word	0x20000668
 8002974:	20000814 	.word	0x20000814
 8002978:	40004800 	.word	0x40004800
 800297c:	20000749 	.word	0x20000749
 8002980:	20000208 	.word	0x20000208
 8002984:	200008fc 	.word	0x200008fc
 8002988:	40004c00 	.word	0x40004c00
 800298c:	20000794 	.word	0x20000794
 8002990:	40005000 	.word	0x40005000
 8002994:	20000070 	.word	0x20000070
 8002998:	20000694 	.word	0x20000694
 800299c:	40011400 	.word	0x40011400
 80029a0:	2000073c 	.word	0x2000073c
 80029a4:	20000754 	.word	0x20000754

080029a8 <CheckSum>:

char CheckSum(uint8_t *msg, int start, int end)
{
 80029a8:	b510      	push	{r4, lr}
 80029aa:	4401      	add	r1, r0
	char cs=0;
 80029ac:	2300      	movs	r3, #0
	for(int i=start;i<=end;i++)
 80029ae:	1a0c      	subs	r4, r1, r0
 80029b0:	42a2      	cmp	r2, r4
 80029b2:	da01      	bge.n	80029b8 <CheckSum+0x10>
	{
		cs += msg[i];
	}
	return cs;
}
 80029b4:	4618      	mov	r0, r3
 80029b6:	bd10      	pop	{r4, pc}
		cs += msg[i];
 80029b8:	f811 4b01 	ldrb.w	r4, [r1], #1
 80029bc:	4423      	add	r3, r4
 80029be:	b2db      	uxtb	r3, r3
 80029c0:	e7f5      	b.n	80029ae <CheckSum+0x6>
	...

080029c4 <RotateCommand>:
	//HAL_UART_Transmit(&huart5, (uint8_t *)"\r\n", 2, 0xffff);
	//HAL_UART_Receive_DMA(&huart5, (uint8_t *)usart5_buffer, 31);
	HAL_UART_Transmit(&huart5, (uint8_t *)"mpc=0,0\r\n", 9, 0xffff);
}
void RotateCommand(int pos)
{
 80029c4:	b538      	push	{r3, r4, r5, lr}
	HAL_TIM_OC_Start(&htim1, TIM_CHANNEL_1);
 80029c6:	4c15      	ldr	r4, [pc, #84]	; (8002a1c <RotateCommand+0x58>)
{
 80029c8:	4605      	mov	r5, r0
	HAL_TIM_OC_Start(&htim1, TIM_CHANNEL_1);
 80029ca:	2100      	movs	r1, #0
 80029cc:	4620      	mov	r0, r4
 80029ce:	f7ff f9b3 	bl	8001d38 <HAL_TIM_OC_Start>
	HAL_TIM_OC_Start(&htim1, TIM_CHANNEL_2);
 80029d2:	2104      	movs	r1, #4
 80029d4:	4620      	mov	r0, r4
 80029d6:	f7ff f9af 	bl	8001d38 <HAL_TIM_OC_Start>
	HAL_TIM_OC_Start(&htim1, TIM_CHANNEL_3);
 80029da:	2108      	movs	r1, #8
 80029dc:	4620      	mov	r0, r4
 80029de:	f7ff f9ab 	bl	8001d38 <HAL_TIM_OC_Start>
	HAL_TIM_OC_Start(&htim1, TIM_CHANNEL_4);
 80029e2:	210c      	movs	r1, #12
 80029e4:	4620      	mov	r0, r4
 80029e6:	f7ff f9a7 	bl	8001d38 <HAL_TIM_OC_Start>
	HAL_Delay(pos);
 80029ea:	4628      	mov	r0, r5
 80029ec:	f7fd fdd6 	bl	800059c <HAL_Delay>
	HAL_TIM_OC_Stop(&htim1, TIM_CHANNEL_1);
 80029f0:	2100      	movs	r1, #0
 80029f2:	4620      	mov	r0, r4
 80029f4:	f7ff f952 	bl	8001c9c <HAL_TIM_OC_Stop>
	HAL_TIM_OC_Stop(&htim1, TIM_CHANNEL_2);
 80029f8:	2104      	movs	r1, #4
 80029fa:	4620      	mov	r0, r4
 80029fc:	f7ff f94e 	bl	8001c9c <HAL_TIM_OC_Stop>
	HAL_TIM_OC_Stop(&htim1, TIM_CHANNEL_3);
 8002a00:	2108      	movs	r1, #8
 8002a02:	4620      	mov	r0, r4
 8002a04:	f7ff f94a 	bl	8001c9c <HAL_TIM_OC_Stop>
	HAL_TIM_OC_Stop(&htim1, TIM_CHANNEL_4);
 8002a08:	4620      	mov	r0, r4
 8002a0a:	210c      	movs	r1, #12
 8002a0c:	f7ff f946 	bl	8001c9c <HAL_TIM_OC_Stop>
	HAL_Delay(10-pos);
 8002a10:	f1c5 000a 	rsb	r0, r5, #10
}
 8002a14:	e8bd 4038 	ldmia.w	sp!, {r3, r4, r5, lr}
	HAL_Delay(10-pos);
 8002a18:	f7fd bdc0 	b.w	800059c <HAL_Delay>
 8002a1c:	200006fc 	.word	0x200006fc

08002a20 <CheckPosition>:

void CheckPosition()
{
 8002a20:	b570      	push	{r4, r5, r6, lr}
	else if(toggle==1)
	{
		channel=CH2;
	}
*/
	if((usart5_REQ==0)&&(usart5_flag==0))
 8002a22:	4d1c      	ldr	r5, [pc, #112]	; (8002a94 <CheckPosition+0x74>)
 8002a24:	782b      	ldrb	r3, [r5, #0]
 8002a26:	bb23      	cbnz	r3, 8002a72 <CheckPosition+0x52>
 8002a28:	4b1b      	ldr	r3, [pc, #108]	; (8002a98 <CheckPosition+0x78>)
 8002a2a:	781b      	ldrb	r3, [r3, #0]
 8002a2c:	bb0b      	cbnz	r3, 8002a72 <CheckPosition+0x52>
	{
		usart5_protocol[0]=STX;
 8002a2e:	4c1b      	ldr	r4, [pc, #108]	; (8002a9c <CheckPosition+0x7c>)
		usart5_protocol[1]=DTL;
 8002a30:	2209      	movs	r2, #9
 8002a32:	7062      	strb	r2, [r4, #1]
		usart5_protocol[2]=1;
		usart5_protocol[3]=REQUEST_READ+INT32;
 8002a34:	2238      	movs	r2, #56	; 0x38
 8002a36:	70e2      	strb	r2, [r4, #3]
		usart5_protocol[4]=POSITION;
 8002a38:	227d      	movs	r2, #125	; 0x7d
		usart5_protocol[0]=STX;
 8002a3a:	2102      	movs	r1, #2
		usart5_protocol[2]=1;
 8002a3c:	2601      	movs	r6, #1
		usart5_protocol[4]=POSITION;
 8002a3e:	7122      	strb	r2, [r4, #4]
		usart5_protocol[6]=CH1;
		usart5_protocol[7]=0;
		usart5_protocol[8]=0;
		usart5_protocol[9]=0;
		usart5_protocol[10]=0;
		usart5_protocol[11]=CheckSum(usart5_protocol,2,10);
 8002a40:	4620      	mov	r0, r4
 8002a42:	220a      	movs	r2, #10
		usart5_protocol[0]=STX;
 8002a44:	7021      	strb	r1, [r4, #0]
		usart5_protocol[5]=0;
 8002a46:	7163      	strb	r3, [r4, #5]
		usart5_protocol[7]=0;
 8002a48:	71e3      	strb	r3, [r4, #7]
		usart5_protocol[8]=0;
 8002a4a:	7223      	strb	r3, [r4, #8]
		usart5_protocol[9]=0;
 8002a4c:	7263      	strb	r3, [r4, #9]
		usart5_protocol[10]=0;
 8002a4e:	72a3      	strb	r3, [r4, #10]
		usart5_protocol[2]=1;
 8002a50:	70a6      	strb	r6, [r4, #2]
		usart5_protocol[6]=CH1;
 8002a52:	71a6      	strb	r6, [r4, #6]
		usart5_protocol[11]=CheckSum(usart5_protocol,2,10);
 8002a54:	f7ff ffa8 	bl	80029a8 <CheckSum>
		usart5_protocol[12]=ETX;
 8002a58:	2303      	movs	r3, #3
		usart5_protocol[11]=CheckSum(usart5_protocol,2,10);
 8002a5a:	72e0      	strb	r0, [r4, #11]
		usart5_protocol[12]=ETX;
 8002a5c:	7323      	strb	r3, [r4, #12]
		{
		  printf("%x  ",usart5_protocol[i]);
		}
		printf("\r\n");
		*/
		HAL_UART_Transmit(&huart5, (uint8_t*)usart5_protocol, 13, 20);
 8002a5e:	220d      	movs	r2, #13
 8002a60:	2314      	movs	r3, #20
 8002a62:	4621      	mov	r1, r4
 8002a64:	480e      	ldr	r0, [pc, #56]	; (8002aa0 <CheckPosition+0x80>)
 8002a66:	f7ff fb2b 	bl	80020c0 <HAL_UART_Transmit>
		{
			printf("%x  ",usart5_protocol[i]);
		}
		printf("\r\n");
		*/
		HAL_Delay(200);
 8002a6a:	20c8      	movs	r0, #200	; 0xc8
		usart5_REQ=1;
 8002a6c:	702e      	strb	r6, [r5, #0]
		HAL_Delay(200);
 8002a6e:	f7fd fd95 	bl	800059c <HAL_Delay>
	}
	usart5_cnt++;
 8002a72:	4b0c      	ldr	r3, [pc, #48]	; (8002aa4 <CheckPosition+0x84>)

	if((usart5_status==POS_CH1)||(usart5_cnt>20))
 8002a74:	490c      	ldr	r1, [pc, #48]	; (8002aa8 <CheckPosition+0x88>)
	usart5_cnt++;
 8002a76:	681a      	ldr	r2, [r3, #0]
	if((usart5_status==POS_CH1)||(usart5_cnt>20))
 8002a78:	7809      	ldrb	r1, [r1, #0]
	usart5_cnt++;
 8002a7a:	3201      	adds	r2, #1
	if((usart5_status==POS_CH1)||(usart5_cnt>20))
 8002a7c:	2901      	cmp	r1, #1
	usart5_cnt++;
 8002a7e:	601a      	str	r2, [r3, #0]
	if((usart5_status==POS_CH1)||(usart5_cnt>20))
 8002a80:	d001      	beq.n	8002a86 <CheckPosition+0x66>
 8002a82:	2a14      	cmp	r2, #20
 8002a84:	dd04      	ble.n	8002a90 <CheckPosition+0x70>
	{
		//toggle^=1;
		//usart5_status=0;
		usart5_flag=0;
 8002a86:	4904      	ldr	r1, [pc, #16]	; (8002a98 <CheckPosition+0x78>)
 8002a88:	2200      	movs	r2, #0
 8002a8a:	700a      	strb	r2, [r1, #0]
		usart5_REQ=0;
 8002a8c:	702a      	strb	r2, [r5, #0]
		usart5_cnt=0;
 8002a8e:	601a      	str	r2, [r3, #0]
 8002a90:	bd70      	pop	{r4, r5, r6, pc}
 8002a92:	bf00      	nop
 8002a94:	20000061 	.word	0x20000061
 8002a98:	20000068 	.word	0x20000068
 8002a9c:	20000684 	.word	0x20000684
 8002aa0:	20000694 	.word	0x20000694
 8002aa4:	20000064 	.word	0x20000064
 8002aa8:	20000069 	.word	0x20000069

08002aac <CurrentCommand>:
	//HAL_UART_Receive_DMA(&huart5, (uint8_t *)usart5_buffer, 13);
	HAL_Delay(20);
}

void CurrentCommand(float value)
{
 8002aac:	e92d 41f0 	stmdb	sp!, {r4, r5, r6, r7, r8, lr}
	u1.flt=value;

	if((usart5_status!=CUR_CH1)&&(usart5_REQ==0))
 8002ab0:	4d3b      	ldr	r5, [pc, #236]	; (8002ba0 <CurrentCommand+0xf4>)
	u1.flt=value;
 8002ab2:	4e3c      	ldr	r6, [pc, #240]	; (8002ba4 <CurrentCommand+0xf8>)
	if((usart5_status!=CUR_CH1)&&(usart5_REQ==0))
 8002ab4:	782a      	ldrb	r2, [r5, #0]
	u1.flt=value;
 8002ab6:	ed86 0a00 	vstr	s0, [r6]
	if((usart5_status!=CUR_CH1)&&(usart5_REQ==0))
 8002aba:	2a11      	cmp	r2, #17
{
 8002abc:	ee10 3a10 	vmov	r3, s0
	if((usart5_status!=CUR_CH1)&&(usart5_REQ==0))
 8002ac0:	d02c      	beq.n	8002b1c <CurrentCommand+0x70>
 8002ac2:	f8df 80f0 	ldr.w	r8, [pc, #240]	; 8002bb4 <CurrentCommand+0x108>
 8002ac6:	f898 2000 	ldrb.w	r2, [r8]
 8002aca:	bb3a      	cbnz	r2, 8002b1c <CurrentCommand+0x70>
	{
		usart5_flag=1;
		usart5_protocol[0]=STX;
 8002acc:	4c36      	ldr	r4, [pc, #216]	; (8002ba8 <CurrentCommand+0xfc>)
		usart5_flag=1;
 8002ace:	4937      	ldr	r1, [pc, #220]	; (8002bac <CurrentCommand+0x100>)
		usart5_protocol[1]=DTL;
		usart5_protocol[2]=1;
		usart5_protocol[3]=REQUEST_WRITE+FLOAT;
		usart5_protocol[4]=CURRENT_CMD;
		usart5_protocol[5]=0;
 8002ad0:	7162      	strb	r2, [r4, #5]
		usart5_protocol[1]=DTL;
 8002ad2:	2009      	movs	r0, #9
		usart5_protocol[6]=CH1;
		usart5_protocol[7]=(u1.ui32t>>0)&0xff;  //(uint8_t)(*((uint32_t*)&value)>>0);
		usart5_protocol[8]=(u1.ui32t>>8)&0xff;//(uint8_t)((*((uint32_t*)&value)>>8)&0xff);
 8002ad4:	0a1a      	lsrs	r2, r3, #8
		usart5_protocol[1]=DTL;
 8002ad6:	7060      	strb	r0, [r4, #1]
		usart5_protocol[3]=REQUEST_WRITE+FLOAT;
 8002ad8:	201c      	movs	r0, #28
		usart5_flag=1;
 8002ada:	2701      	movs	r7, #1
		usart5_protocol[3]=REQUEST_WRITE+FLOAT;
 8002adc:	70e0      	strb	r0, [r4, #3]
		usart5_protocol[8]=(u1.ui32t>>8)&0xff;//(uint8_t)((*((uint32_t*)&value)>>8)&0xff);
 8002ade:	7222      	strb	r2, [r4, #8]
		usart5_protocol[4]=CURRENT_CMD;
 8002ae0:	2071      	movs	r0, #113	; 0x71
		usart5_protocol[9]=(u1.ui32t>>16)&0xff;//(uint8_t)((*((uint32_t*)&value)>>16)&0xff);
 8002ae2:	0c1a      	lsrs	r2, r3, #16
		usart5_flag=1;
 8002ae4:	700f      	strb	r7, [r1, #0]
		usart5_protocol[4]=CURRENT_CMD;
 8002ae6:	7120      	strb	r0, [r4, #4]
		usart5_protocol[0]=STX;
 8002ae8:	2102      	movs	r1, #2
		usart5_protocol[7]=(u1.ui32t>>0)&0xff;  //(uint8_t)(*((uint32_t*)&value)>>0);
 8002aea:	71e3      	strb	r3, [r4, #7]
		usart5_protocol[9]=(u1.ui32t>>16)&0xff;//(uint8_t)((*((uint32_t*)&value)>>16)&0xff);
 8002aec:	7262      	strb	r2, [r4, #9]
		usart5_protocol[10]=(u1.ui32t>>24)&0xff;//(uint8_t)((*((uint32_t*)&value)>>24)&0xff);
 8002aee:	0e1b      	lsrs	r3, r3, #24
		usart5_protocol[11]=CheckSum(usart5_protocol,2,10);
 8002af0:	220a      	movs	r2, #10
 8002af2:	4620      	mov	r0, r4
		usart5_protocol[0]=STX;
 8002af4:	7021      	strb	r1, [r4, #0]
		usart5_protocol[10]=(u1.ui32t>>24)&0xff;//(uint8_t)((*((uint32_t*)&value)>>24)&0xff);
 8002af6:	72a3      	strb	r3, [r4, #10]
		usart5_protocol[2]=1;
 8002af8:	70a7      	strb	r7, [r4, #2]
		usart5_protocol[6]=CH1;
 8002afa:	71a7      	strb	r7, [r4, #6]
		usart5_protocol[11]=CheckSum(usart5_protocol,2,10);
 8002afc:	f7ff ff54 	bl	80029a8 <CheckSum>
		usart5_protocol[12]=ETX;
 8002b00:	2303      	movs	r3, #3
		usart5_protocol[11]=CheckSum(usart5_protocol,2,10);
 8002b02:	72e0      	strb	r0, [r4, #11]
		usart5_protocol[12]=ETX;
 8002b04:	7323      	strb	r3, [r4, #12]
		HAL_UART_Transmit(&huart5, (uint8_t*)usart5_protocol, 13, 100);
 8002b06:	220d      	movs	r2, #13
 8002b08:	2364      	movs	r3, #100	; 0x64
 8002b0a:	4621      	mov	r1, r4
 8002b0c:	4828      	ldr	r0, [pc, #160]	; (8002bb0 <CurrentCommand+0x104>)
 8002b0e:	f7ff fad7 	bl	80020c0 <HAL_UART_Transmit>
		usart5_REQ=1;
		HAL_Delay(50);
 8002b12:	2032      	movs	r0, #50	; 0x32
		usart5_REQ=1;
 8002b14:	f888 7000 	strb.w	r7, [r8]
		HAL_Delay(50);
 8002b18:	f7fd fd40 	bl	800059c <HAL_Delay>
	}
	if((usart5_status!=CUR_CH2)&&(usart5_REQ==0))
 8002b1c:	782b      	ldrb	r3, [r5, #0]
 8002b1e:	2b12      	cmp	r3, #18
 8002b20:	d02b      	beq.n	8002b7a <CurrentCommand+0xce>
 8002b22:	4f24      	ldr	r7, [pc, #144]	; (8002bb4 <CurrentCommand+0x108>)
 8002b24:	783b      	ldrb	r3, [r7, #0]
 8002b26:	bb43      	cbnz	r3, 8002b7a <CurrentCommand+0xce>
	{
		usart5_protocol[0]=STX;
 8002b28:	4c1f      	ldr	r4, [pc, #124]	; (8002ba8 <CurrentCommand+0xfc>)
		usart5_protocol[1]=DTL;
 8002b2a:	2209      	movs	r2, #9
 8002b2c:	7062      	strb	r2, [r4, #1]
		usart5_protocol[2]=1;
		usart5_protocol[3]=REQUEST_WRITE+FLOAT;
		usart5_protocol[4]=CURRENT_CMD;
		usart5_protocol[5]=0;
 8002b2e:	7163      	strb	r3, [r4, #5]
		usart5_protocol[3]=REQUEST_WRITE+FLOAT;
 8002b30:	221c      	movs	r2, #28
		usart5_protocol[6]=CH2;
		usart5_protocol[7]=(u1.ui32t>>0)&0xff;  //(uint8_t)(*((uint32_t*)&value)>>0);
 8002b32:	6833      	ldr	r3, [r6, #0]
		usart5_protocol[3]=REQUEST_WRITE+FLOAT;
 8002b34:	70e2      	strb	r2, [r4, #3]
		usart5_protocol[4]=CURRENT_CMD;
 8002b36:	2271      	movs	r2, #113	; 0x71
 8002b38:	7122      	strb	r2, [r4, #4]
		usart5_protocol[8]=(u1.ui32t>>8)&0xff;//(uint8_t)((*((uint32_t*)&value)>>8)&0xff);
 8002b3a:	0a1a      	lsrs	r2, r3, #8
 8002b3c:	7222      	strb	r2, [r4, #8]
		usart5_protocol[9]=(u1.ui32t>>16)&0xff;//(uint8_t)((*((uint32_t*)&value)>>16)&0xff);
 8002b3e:	0c1a      	lsrs	r2, r3, #16
		usart5_protocol[0]=STX;
 8002b40:	2102      	movs	r1, #2
		usart5_protocol[2]=1;
 8002b42:	f04f 0801 	mov.w	r8, #1
		usart5_protocol[7]=(u1.ui32t>>0)&0xff;  //(uint8_t)(*((uint32_t*)&value)>>0);
 8002b46:	71e3      	strb	r3, [r4, #7]
		usart5_protocol[9]=(u1.ui32t>>16)&0xff;//(uint8_t)((*((uint32_t*)&value)>>16)&0xff);
 8002b48:	7262      	strb	r2, [r4, #9]
		usart5_protocol[10]=(u1.ui32t>>24)&0xff;//(uint8_t)((*((uint32_t*)&value)>>24)&0xff);
 8002b4a:	0e1b      	lsrs	r3, r3, #24
		usart5_protocol[11]=CheckSum(usart5_protocol,2,10);
 8002b4c:	220a      	movs	r2, #10
 8002b4e:	4620      	mov	r0, r4
		usart5_protocol[0]=STX;
 8002b50:	7021      	strb	r1, [r4, #0]
		usart5_protocol[6]=CH2;
 8002b52:	71a1      	strb	r1, [r4, #6]
		usart5_protocol[10]=(u1.ui32t>>24)&0xff;//(uint8_t)((*((uint32_t*)&value)>>24)&0xff);
 8002b54:	72a3      	strb	r3, [r4, #10]
		usart5_protocol[2]=1;
 8002b56:	f884 8002 	strb.w	r8, [r4, #2]
		usart5_protocol[11]=CheckSum(usart5_protocol,2,10);
 8002b5a:	f7ff ff25 	bl	80029a8 <CheckSum>
		usart5_protocol[12]=ETX;
 8002b5e:	2303      	movs	r3, #3
		usart5_protocol[11]=CheckSum(usart5_protocol,2,10);
 8002b60:	72e0      	strb	r0, [r4, #11]
		usart5_protocol[12]=ETX;
 8002b62:	7323      	strb	r3, [r4, #12]
		HAL_UART_Transmit(&huart5, (uint8_t*)usart5_protocol, 13, 100);
 8002b64:	220d      	movs	r2, #13
 8002b66:	2364      	movs	r3, #100	; 0x64
 8002b68:	4621      	mov	r1, r4
 8002b6a:	4811      	ldr	r0, [pc, #68]	; (8002bb0 <CurrentCommand+0x104>)
 8002b6c:	f7ff faa8 	bl	80020c0 <HAL_UART_Transmit>
		usart5_REQ=1;
		HAL_Delay(200);
 8002b70:	20c8      	movs	r0, #200	; 0xc8
		usart5_REQ=1;
 8002b72:	f887 8000 	strb.w	r8, [r7]
		HAL_Delay(200);
 8002b76:	f7fd fd11 	bl	800059c <HAL_Delay>
		HAL_UART_Transmit(&huart5, (uint8_t*)usart5_protocol, 13, 20);
		usart5_REQ=1;
		HAL_Delay(100);
	}
	*/
	usart5_cnt++;
 8002b7a:	4b0f      	ldr	r3, [pc, #60]	; (8002bb8 <CurrentCommand+0x10c>)
	if((usart5_status==CUR_CH2)||(usart5_cnt>20))
 8002b7c:	7829      	ldrb	r1, [r5, #0]
	usart5_cnt++;
 8002b7e:	681a      	ldr	r2, [r3, #0]
	if((usart5_status==CUR_CH2)||(usart5_cnt>20))
 8002b80:	2912      	cmp	r1, #18
	usart5_cnt++;
 8002b82:	f102 0201 	add.w	r2, r2, #1
 8002b86:	601a      	str	r2, [r3, #0]
	if((usart5_status==CUR_CH2)||(usart5_cnt>20))
 8002b88:	d001      	beq.n	8002b8e <CurrentCommand+0xe2>
 8002b8a:	2a14      	cmp	r2, #20
 8002b8c:	dd05      	ble.n	8002b9a <CurrentCommand+0xee>
	{
		//usart5_status=0;
		usart5_flag=0;
 8002b8e:	4907      	ldr	r1, [pc, #28]	; (8002bac <CurrentCommand+0x100>)
 8002b90:	2200      	movs	r2, #0
 8002b92:	700a      	strb	r2, [r1, #0]
		usart5_REQ=0;
 8002b94:	4907      	ldr	r1, [pc, #28]	; (8002bb4 <CurrentCommand+0x108>)
		usart5_cnt=0;
 8002b96:	601a      	str	r2, [r3, #0]
		usart5_REQ=0;
 8002b98:	700a      	strb	r2, [r1, #0]
 8002b9a:	e8bd 81f0 	ldmia.w	sp!, {r4, r5, r6, r7, r8, pc}
 8002b9e:	bf00      	nop
 8002ba0:	20000069 	.word	0x20000069
 8002ba4:	20000680 	.word	0x20000680
 8002ba8:	20000684 	.word	0x20000684
 8002bac:	20000068 	.word	0x20000068
 8002bb0:	20000694 	.word	0x20000694
 8002bb4:	20000061 	.word	0x20000061
 8002bb8:	20000064 	.word	0x20000064

08002bbc <SendData>:

	//HAL_UART_Receive_DMA(&huart5, (uint8_t *)usart5_buffer, 13);
}

void SendData(int torque, int pulse, int force, int stroke)
{
 8002bbc:	b570      	push	{r4, r5, r6, lr}
  tx_data[0] = 0x02;
 8002bbe:	4c1a      	ldr	r4, [pc, #104]	; (8002c28 <SendData+0x6c>)
  tx_data[1] = 0x10;
 8002bc0:	2610      	movs	r6, #16
 8002bc2:	7066      	strb	r6, [r4, #1]
  tx_data[2] = (uint8_t)((torque>>24)&0xff);
 8002bc4:	1606      	asrs	r6, r0, #24
 8002bc6:	70a6      	strb	r6, [r4, #2]
  tx_data[3] = (uint8_t)((torque>>16)&0xff);
 8002bc8:	1406      	asrs	r6, r0, #16
 8002bca:	70e6      	strb	r6, [r4, #3]
  tx_data[4] = (uint8_t)((torque>>8)&0xff);
  tx_data[5] = (uint8_t)((torque>>0)&0xff);
 8002bcc:	7160      	strb	r0, [r4, #5]
  tx_data[4] = (uint8_t)((torque>>8)&0xff);
 8002bce:	1206      	asrs	r6, r0, #8
  tx_data[6] = (uint8_t)((pulse>>24)&0xff);
 8002bd0:	1608      	asrs	r0, r1, #24
 8002bd2:	71a0      	strb	r0, [r4, #6]
  tx_data[7] = (uint8_t)((pulse>>16)&0xff);
 8002bd4:	1408      	asrs	r0, r1, #16
 8002bd6:	71e0      	strb	r0, [r4, #7]
  tx_data[8] = (uint8_t)((pulse>>8)&0xff);
  tx_data[9] = (uint8_t)((pulse>>0)&0xff);
 8002bd8:	7261      	strb	r1, [r4, #9]
  tx_data[8] = (uint8_t)((pulse>>8)&0xff);
 8002bda:	1208      	asrs	r0, r1, #8
  tx_data[10] = (uint8_t)((force>>24)&0xff);
 8002bdc:	1611      	asrs	r1, r2, #24
 8002bde:	72a1      	strb	r1, [r4, #10]
  tx_data[11] = (uint8_t)((force>>16)&0xff);
 8002be0:	1411      	asrs	r1, r2, #16
 8002be2:	72e1      	strb	r1, [r4, #11]
  tx_data[12] = (uint8_t)((force>>8)&0xff);
  tx_data[13] = (uint8_t)((force>>0)&0xff);
 8002be4:	7362      	strb	r2, [r4, #13]
  tx_data[12] = (uint8_t)((force>>8)&0xff);
 8002be6:	1211      	asrs	r1, r2, #8
  tx_data[14] = (uint8_t)((stroke>>24)&0xff);
 8002be8:	161a      	asrs	r2, r3, #24
 8002bea:	73a2      	strb	r2, [r4, #14]
  tx_data[15] = (uint8_t)((stroke>>16)&0xff);
 8002bec:	141a      	asrs	r2, r3, #16
  tx_data[0] = 0x02;
 8002bee:	2502      	movs	r5, #2
  tx_data[15] = (uint8_t)((stroke>>16)&0xff);
 8002bf0:	73e2      	strb	r2, [r4, #15]
  tx_data[16] = (uint8_t)((stroke>>8)&0xff);
 8002bf2:	121a      	asrs	r2, r3, #8
  tx_data[8] = (uint8_t)((pulse>>8)&0xff);
 8002bf4:	7220      	strb	r0, [r4, #8]
  tx_data[12] = (uint8_t)((force>>8)&0xff);
 8002bf6:	7321      	strb	r1, [r4, #12]
  tx_data[16] = (uint8_t)((stroke>>8)&0xff);
 8002bf8:	7422      	strb	r2, [r4, #16]
  tx_data[17] = (uint8_t)((stroke>>0)&0xff);
  tx_data[18] = CheckSum(tx_data, 2, 17);
 8002bfa:	4629      	mov	r1, r5
 8002bfc:	2211      	movs	r2, #17
 8002bfe:	4620      	mov	r0, r4
  tx_data[17] = (uint8_t)((stroke>>0)&0xff);
 8002c00:	7463      	strb	r3, [r4, #17]
  tx_data[0] = 0x02;
 8002c02:	7025      	strb	r5, [r4, #0]
  tx_data[4] = (uint8_t)((torque>>8)&0xff);
 8002c04:	7126      	strb	r6, [r4, #4]
  tx_data[18] = CheckSum(tx_data, 2, 17);
 8002c06:	f7ff fecf 	bl	80029a8 <CheckSum>
  tx_data[19] = 0x03;
 8002c0a:	2303      	movs	r3, #3
 8002c0c:	74e3      	strb	r3, [r4, #19]
  tx_data[20] = 0x0a;
 8002c0e:	230a      	movs	r3, #10
 8002c10:	7523      	strb	r3, [r4, #20]
  tx_data[21] = 0x0d;
 8002c12:	230d      	movs	r3, #13
  tx_data[18] = CheckSum(tx_data, 2, 17);
 8002c14:	74a0      	strb	r0, [r4, #18]
  tx_data[21] = 0x0d;
 8002c16:	7563      	strb	r3, [r4, #21]

  HAL_UART_Transmit(&huart3, (uint8_t *)tx_data, 22, 100);
 8002c18:	4621      	mov	r1, r4
 8002c1a:	2364      	movs	r3, #100	; 0x64
 8002c1c:	2216      	movs	r2, #22
 8002c1e:	4803      	ldr	r0, [pc, #12]	; (8002c2c <SendData+0x70>)
}
 8002c20:	e8bd 4070 	ldmia.w	sp!, {r4, r5, r6, lr}
  HAL_UART_Transmit(&huart3, (uint8_t *)tx_data, 22, 100);
 8002c24:	f7ff ba4c 	b.w	80020c0 <HAL_UART_Transmit>
 8002c28:	200008fd 	.word	0x200008fd
 8002c2c:	20000208 	.word	0x20000208

08002c30 <SystemClock_Config>:
/**
  * @brief System Clock Configuration
  * @retval None
  */
void SystemClock_Config(void)
{
 8002c30:	b530      	push	{r4, r5, lr}
 8002c32:	b095      	sub	sp, #84	; 0x54
  RCC_OscInitTypeDef RCC_OscInitStruct = {0};
 8002c34:	2230      	movs	r2, #48	; 0x30
 8002c36:	2100      	movs	r1, #0
 8002c38:	a808      	add	r0, sp, #32
 8002c3a:	f001 fb1d 	bl	8004278 <memset>
  RCC_ClkInitTypeDef RCC_ClkInitStruct = {0};
 8002c3e:	2100      	movs	r1, #0
 8002c40:	2214      	movs	r2, #20
 8002c42:	a803      	add	r0, sp, #12
 8002c44:	f001 fb18 	bl	8004278 <memset>

  /** Configure the main internal regulator output voltage 
  */
  __HAL_RCC_PWR_CLK_ENABLE();
 8002c48:	2400      	movs	r4, #0
 8002c4a:	4b1d      	ldr	r3, [pc, #116]	; (8002cc0 <SystemClock_Config+0x90>)
 8002c4c:	9401      	str	r4, [sp, #4]
 8002c4e:	6c1a      	ldr	r2, [r3, #64]	; 0x40
 8002c50:	f042 5280 	orr.w	r2, r2, #268435456	; 0x10000000
 8002c54:	641a      	str	r2, [r3, #64]	; 0x40
 8002c56:	6c1b      	ldr	r3, [r3, #64]	; 0x40
 8002c58:	f003 5380 	and.w	r3, r3, #268435456	; 0x10000000
 8002c5c:	9301      	str	r3, [sp, #4]
 8002c5e:	9b01      	ldr	r3, [sp, #4]
  __HAL_PWR_VOLTAGESCALING_CONFIG(PWR_REGULATOR_VOLTAGE_SCALE1);
 8002c60:	4b18      	ldr	r3, [pc, #96]	; (8002cc4 <SystemClock_Config+0x94>)
 8002c62:	9402      	str	r4, [sp, #8]
 8002c64:	681a      	ldr	r2, [r3, #0]
 8002c66:	f442 4240 	orr.w	r2, r2, #49152	; 0xc000
 8002c6a:	601a      	str	r2, [r3, #0]
 8002c6c:	681b      	ldr	r3, [r3, #0]
 8002c6e:	f403 4340 	and.w	r3, r3, #49152	; 0xc000
 8002c72:	9302      	str	r3, [sp, #8]
 8002c74:	9b02      	ldr	r3, [sp, #8]
  /** Initializes the CPU, AHB and APB busses clocks 
  */
  RCC_OscInitStruct.OscillatorType = RCC_OSCILLATORTYPE_HSE;
 8002c76:	2301      	movs	r3, #1
 8002c78:	9308      	str	r3, [sp, #32]
  RCC_OscInitStruct.HSEState = RCC_HSE_BYPASS;
 8002c7a:	f44f 23a0 	mov.w	r3, #327680	; 0x50000
 8002c7e:	9309      	str	r3, [sp, #36]	; 0x24
  RCC_OscInitStruct.PLL.PLLState = RCC_PLL_ON;
  RCC_OscInitStruct.PLL.PLLSource = RCC_PLLSOURCE_HSE;
 8002c80:	f44f 0380 	mov.w	r3, #4194304	; 0x400000
 8002c84:	930f      	str	r3, [sp, #60]	; 0x3c
  RCC_OscInitStruct.PLL.PLLM = 4;
 8002c86:	2304      	movs	r3, #4
 8002c88:	9310      	str	r3, [sp, #64]	; 0x40
  RCC_OscInitStruct.PLL.PLLN = 168;
 8002c8a:	23a8      	movs	r3, #168	; 0xa8
  RCC_OscInitStruct.PLL.PLLState = RCC_PLL_ON;
 8002c8c:	2502      	movs	r5, #2
  RCC_OscInitStruct.PLL.PLLN = 168;
 8002c8e:	9311      	str	r3, [sp, #68]	; 0x44
  RCC_OscInitStruct.PLL.PLLP = RCC_PLLP_DIV2;
  RCC_OscInitStruct.PLL.PLLQ = 7;
  if (HAL_RCC_OscConfig(&RCC_OscInitStruct) != HAL_OK)
 8002c90:	a808      	add	r0, sp, #32
  RCC_OscInitStruct.PLL.PLLQ = 7;
 8002c92:	2307      	movs	r3, #7
 8002c94:	9313      	str	r3, [sp, #76]	; 0x4c
  RCC_OscInitStruct.PLL.PLLState = RCC_PLL_ON;
 8002c96:	950e      	str	r5, [sp, #56]	; 0x38
  RCC_OscInitStruct.PLL.PLLP = RCC_PLLP_DIV2;
 8002c98:	9512      	str	r5, [sp, #72]	; 0x48
  if (HAL_RCC_OscConfig(&RCC_OscInitStruct) != HAL_OK)
 8002c9a:	f7fe fac3 	bl	8001224 <HAL_RCC_OscConfig>
  {
    Error_Handler();
  }
  /** Initializes the CPU, AHB and APB busses clocks 
  */
  RCC_ClkInitStruct.ClockType = RCC_CLOCKTYPE_HCLK|RCC_CLOCKTYPE_SYSCLK
 8002c9e:	230f      	movs	r3, #15
 8002ca0:	9303      	str	r3, [sp, #12]
                              |RCC_CLOCKTYPE_PCLK1|RCC_CLOCKTYPE_PCLK2;
  RCC_ClkInitStruct.SYSCLKSource = RCC_SYSCLKSOURCE_PLLCLK;
  RCC_ClkInitStruct.AHBCLKDivider = RCC_SYSCLK_DIV1;
  RCC_ClkInitStruct.APB1CLKDivider = RCC_HCLK_DIV4;
 8002ca2:	f44f 53a0 	mov.w	r3, #5120	; 0x1400
 8002ca6:	9306      	str	r3, [sp, #24]
  RCC_ClkInitStruct.APB2CLKDivider = RCC_HCLK_DIV2;

  if (HAL_RCC_ClockConfig(&RCC_ClkInitStruct, FLASH_LATENCY_5) != HAL_OK)
 8002ca8:	2105      	movs	r1, #5
  RCC_ClkInitStruct.APB2CLKDivider = RCC_HCLK_DIV2;
 8002caa:	f44f 5380 	mov.w	r3, #4096	; 0x1000
  if (HAL_RCC_ClockConfig(&RCC_ClkInitStruct, FLASH_LATENCY_5) != HAL_OK)
 8002cae:	a803      	add	r0, sp, #12
  RCC_ClkInitStruct.SYSCLKSource = RCC_SYSCLKSOURCE_PLLCLK;
 8002cb0:	9504      	str	r5, [sp, #16]
  RCC_ClkInitStruct.AHBCLKDivider = RCC_SYSCLK_DIV1;
 8002cb2:	9405      	str	r4, [sp, #20]
  RCC_ClkInitStruct.APB2CLKDivider = RCC_HCLK_DIV2;
 8002cb4:	9307      	str	r3, [sp, #28]
  if (HAL_RCC_ClockConfig(&RCC_ClkInitStruct, FLASH_LATENCY_5) != HAL_OK)
 8002cb6:	f7fe fc65 	bl	8001584 <HAL_RCC_ClockConfig>
  {
    Error_Handler();
  }
}
 8002cba:	b015      	add	sp, #84	; 0x54
 8002cbc:	bd30      	pop	{r4, r5, pc}
 8002cbe:	bf00      	nop
 8002cc0:	40023800 	.word	0x40023800
 8002cc4:	40007000 	.word	0x40007000

08002cc8 <CheckSafety>:
      //ModStatus=test_mode;
    }
}

void CheckSafety(void)
{
 8002cc8:	b538      	push	{r3, r4, r5, lr}
	if(ModStatus&(MASK_ROTATE|MASK_PUSHOFF|MASK_WHEEL))
 8002cca:	4b89      	ldr	r3, [pc, #548]	; (8002ef0 <CheckSafety+0x228>)
 8002ccc:	4c89      	ldr	r4, [pc, #548]	; (8002ef4 <CheckSafety+0x22c>)
 8002cce:	781b      	ldrb	r3, [r3, #0]
 8002cd0:	f013 0fb0 	tst.w	r3, #176	; 0xb0
 8002cd4:	d04a      	beq.n	8002d6c <CheckSafety+0xa4>
	{
		if(SysStatus&MASK_LNA)
 8002cd6:	7822      	ldrb	r2, [r4, #0]
 8002cd8:	07d5      	lsls	r5, r2, #31
 8002cda:	d519      	bpl.n	8002d10 <CheckSafety+0x48>
		{
			CheckPosition();
 8002cdc:	f7ff fea0 	bl	8002a20 <CheckPosition>
			if(stroke1>100)
 8002ce0:	4b85      	ldr	r3, [pc, #532]	; (8002ef8 <CheckSafety+0x230>)
 8002ce2:	681b      	ldr	r3, [r3, #0]
 8002ce4:	2b64      	cmp	r3, #100	; 0x64
 8002ce6:	dd05      	ble.n	8002cf4 <CheckSafety+0x2c>
			{
				CurrentCommand(-1.1);
 8002ce8:	ed9f 0a84 	vldr	s0, [pc, #528]	; 8002efc <CheckSafety+0x234>
			EncoderCounter = 0;
			SysStatus&=(~MASK_ENC);
		}
		ACservoStatus = 0;
	}
}
 8002cec:	e8bd 4038 	ldmia.w	sp!, {r3, r4, r5, lr}
				CurrentCommand(-1.1);
 8002cf0:	f7ff bedc 	b.w	8002aac <CurrentCommand>
				CurrentCommand(0.0);
 8002cf4:	ed9f 0a82 	vldr	s0, [pc, #520]	; 8002f00 <CheckSafety+0x238>
 8002cf8:	f7ff fed8 	bl	8002aac <CurrentCommand>
				ActuatorStatus = 0;
 8002cfc:	4a81      	ldr	r2, [pc, #516]	; (8002f04 <CheckSafety+0x23c>)
 8002cfe:	2300      	movs	r3, #0
 8002d00:	7013      	strb	r3, [r2, #0]
				direction = 0;
 8002d02:	4a81      	ldr	r2, [pc, #516]	; (8002f08 <CheckSafety+0x240>)
 8002d04:	7013      	strb	r3, [r2, #0]
				SysStatus&=(~MASK_LNA);
 8002d06:	7823      	ldrb	r3, [r4, #0]
 8002d08:	f023 0301 	bic.w	r3, r3, #1
			SysStatus&=(~MASK_ENC);
 8002d0c:	7023      	strb	r3, [r4, #0]
 8002d0e:	bd38      	pop	{r3, r4, r5, pc}
			if(!(SysStatus&MASK_SRV))
 8002d10:	f012 0240 	ands.w	r2, r2, #64	; 0x40
 8002d14:	d107      	bne.n	8002d26 <CheckSafety+0x5e>
				HAL_GPIO_WritePin(GPIOG, GPIO_PIN_2, GPIO_PIN_RESET);
 8002d16:	2104      	movs	r1, #4
 8002d18:	487c      	ldr	r0, [pc, #496]	; (8002f0c <CheckSafety+0x244>)
 8002d1a:	f7fe f9e9 	bl	80010f0 <HAL_GPIO_WritePin>
				SysStatus|=MASK_SRV;
 8002d1e:	7823      	ldrb	r3, [r4, #0]
 8002d20:	f043 0340 	orr.w	r3, r3, #64	; 0x40
 8002d24:	7023      	strb	r3, [r4, #0]
			if(!(SysStatus&MASK_BRK))
 8002d26:	7822      	ldrb	r2, [r4, #0]
 8002d28:	f012 0220 	ands.w	r2, r2, #32
 8002d2c:	d107      	bne.n	8002d3e <CheckSafety+0x76>
				HAL_GPIO_WritePin(GPIOG, GPIO_PIN_3, GPIO_PIN_RESET);
 8002d2e:	2108      	movs	r1, #8
 8002d30:	4876      	ldr	r0, [pc, #472]	; (8002f0c <CheckSafety+0x244>)
 8002d32:	f7fe f9dd 	bl	80010f0 <HAL_GPIO_WritePin>
				SysStatus|=MASK_BRK;
 8002d36:	7823      	ldrb	r3, [r4, #0]
 8002d38:	f043 0320 	orr.w	r3, r3, #32
 8002d3c:	7023      	strb	r3, [r4, #0]
			if(!(SysStatus&MASK_DAC))
 8002d3e:	7821      	ldrb	r1, [r4, #0]
 8002d40:	f011 0104 	ands.w	r1, r1, #4
 8002d44:	d106      	bne.n	8002d54 <CheckSafety+0x8c>
				HAL_DAC_Start(&hdac, DAC_CHANNEL_1);
 8002d46:	4872      	ldr	r0, [pc, #456]	; (8002f10 <CheckSafety+0x248>)
 8002d48:	f7fd fcb9 	bl	80006be <HAL_DAC_Start>
				SysStatus|=MASK_DAC;
 8002d4c:	7823      	ldrb	r3, [r4, #0]
 8002d4e:	f043 0304 	orr.w	r3, r3, #4
 8002d52:	7023      	strb	r3, [r4, #0]
			if(!(SysStatus&MASK_ENC))
 8002d54:	7823      	ldrb	r3, [r4, #0]
 8002d56:	0798      	lsls	r0, r3, #30
 8002d58:	f100 80bb 	bmi.w	8002ed2 <CheckSafety+0x20a>
				HAL_TIM_Encoder_Start(&htim2, TIM_CHANNEL_1|TIM_CHANNEL_2);
 8002d5c:	2104      	movs	r1, #4
 8002d5e:	486d      	ldr	r0, [pc, #436]	; (8002f14 <CheckSafety+0x24c>)
 8002d60:	f7fe fd5f 	bl	8001822 <HAL_TIM_Encoder_Start>
				SysStatus|=MASK_ENC;
 8002d64:	7823      	ldrb	r3, [r4, #0]
 8002d66:	f043 0302 	orr.w	r3, r3, #2
 8002d6a:	e7cf      	b.n	8002d0c <CheckSafety+0x44>
	else if(ModStatus&MASK_TRANSLATE)
 8002d6c:	f013 0540 	ands.w	r5, r3, #64	; 0x40
		SysStatus|=MASK_LNA;
 8002d70:	7823      	ldrb	r3, [r4, #0]
	else if(ModStatus&MASK_TRANSLATE)
 8002d72:	d050      	beq.n	8002e16 <CheckSafety+0x14e>
		SysStatus|=MASK_LNA;
 8002d74:	f043 0201 	orr.w	r2, r3, #1
		if(SysStatus&MASK_SRV)
 8002d78:	0659      	lsls	r1, r3, #25
		SysStatus|=MASK_LNA;
 8002d7a:	7022      	strb	r2, [r4, #0]
		if(SysStatus&MASK_SRV)
 8002d7c:	d508      	bpl.n	8002d90 <CheckSafety+0xc8>
			HAL_GPIO_WritePin(GPIOG, GPIO_PIN_2, GPIO_PIN_SET);
 8002d7e:	2201      	movs	r2, #1
 8002d80:	2104      	movs	r1, #4
 8002d82:	4862      	ldr	r0, [pc, #392]	; (8002f0c <CheckSafety+0x244>)
 8002d84:	f7fe f9b4 	bl	80010f0 <HAL_GPIO_WritePin>
			SysStatus&=(~MASK_SRV);
 8002d88:	7823      	ldrb	r3, [r4, #0]
 8002d8a:	f023 0340 	bic.w	r3, r3, #64	; 0x40
 8002d8e:	7023      	strb	r3, [r4, #0]
		if(SysStatus&MASK_BRK)
 8002d90:	7823      	ldrb	r3, [r4, #0]
 8002d92:	069a      	lsls	r2, r3, #26
 8002d94:	d508      	bpl.n	8002da8 <CheckSafety+0xe0>
			HAL_GPIO_WritePin(GPIOG, GPIO_PIN_3, GPIO_PIN_SET);
 8002d96:	2201      	movs	r2, #1
 8002d98:	2108      	movs	r1, #8
 8002d9a:	485c      	ldr	r0, [pc, #368]	; (8002f0c <CheckSafety+0x244>)
 8002d9c:	f7fe f9a8 	bl	80010f0 <HAL_GPIO_WritePin>
	      	SysStatus&=(~MASK_BRK);
 8002da0:	7823      	ldrb	r3, [r4, #0]
 8002da2:	f023 0320 	bic.w	r3, r3, #32
 8002da6:	7023      	strb	r3, [r4, #0]
		if(SysStatus&MASK_CL)
 8002da8:	7823      	ldrb	r3, [r4, #0]
 8002daa:	06db      	lsls	r3, r3, #27
 8002dac:	d50d      	bpl.n	8002dca <CheckSafety+0x102>
			HAL_GPIO_WritePin(GPIOG, GPIO_PIN_1, GPIO_PIN_SET);
 8002dae:	2201      	movs	r2, #1
 8002db0:	2102      	movs	r1, #2
 8002db2:	4856      	ldr	r0, [pc, #344]	; (8002f0c <CheckSafety+0x244>)
 8002db4:	f7fe f99c 	bl	80010f0 <HAL_GPIO_WritePin>
	    	HAL_GPIO_WritePin(GPIOG, GPIO_PIN_4, GPIO_PIN_SET);
 8002db8:	2201      	movs	r2, #1
 8002dba:	2110      	movs	r1, #16
 8002dbc:	4853      	ldr	r0, [pc, #332]	; (8002f0c <CheckSafety+0x244>)
 8002dbe:	f7fe f997 	bl	80010f0 <HAL_GPIO_WritePin>
	        SysStatus&=(~MASK_CL);
 8002dc2:	7823      	ldrb	r3, [r4, #0]
 8002dc4:	f023 0310 	bic.w	r3, r3, #16
 8002dc8:	7023      	strb	r3, [r4, #0]
		if(SysStatus&MASK_MBRK)
 8002dca:	7823      	ldrb	r3, [r4, #0]
 8002dcc:	071d      	lsls	r5, r3, #28
 8002dce:	d509      	bpl.n	8002de4 <CheckSafety+0x11c>
			HAL_GPIO_WritePin(GPIOG, GPIO_PIN_9, GPIO_PIN_SET);
 8002dd0:	2201      	movs	r2, #1
 8002dd2:	f44f 7100 	mov.w	r1, #512	; 0x200
 8002dd6:	484d      	ldr	r0, [pc, #308]	; (8002f0c <CheckSafety+0x244>)
 8002dd8:	f7fe f98a 	bl	80010f0 <HAL_GPIO_WritePin>
			SysStatus&=(~MASK_MBRK);
 8002ddc:	7823      	ldrb	r3, [r4, #0]
 8002dde:	f023 0308 	bic.w	r3, r3, #8
 8002de2:	7023      	strb	r3, [r4, #0]
		if(SysStatus&MASK_DAC)
 8002de4:	7823      	ldrb	r3, [r4, #0]
 8002de6:	0758      	lsls	r0, r3, #29
 8002de8:	d507      	bpl.n	8002dfa <CheckSafety+0x132>
			HAL_DAC_Stop(&hdac, DAC_CHANNEL_1);
 8002dea:	2100      	movs	r1, #0
 8002dec:	4848      	ldr	r0, [pc, #288]	; (8002f10 <CheckSafety+0x248>)
 8002dee:	f7fd fc94 	bl	800071a <HAL_DAC_Stop>
	    	SysStatus&=(~MASK_DAC);
 8002df2:	7823      	ldrb	r3, [r4, #0]
 8002df4:	f023 0304 	bic.w	r3, r3, #4
 8002df8:	7023      	strb	r3, [r4, #0]
		if(SysStatus&MASK_ENC)
 8002dfa:	7823      	ldrb	r3, [r4, #0]
 8002dfc:	0799      	lsls	r1, r3, #30
 8002dfe:	d568      	bpl.n	8002ed2 <CheckSafety+0x20a>
			HAL_TIM_Encoder_Stop(&htim2, TIM_CHANNEL_1|TIM_CHANNEL_2);
 8002e00:	2104      	movs	r1, #4
 8002e02:	4844      	ldr	r0, [pc, #272]	; (8002f14 <CheckSafety+0x24c>)
 8002e04:	f7fe fd2f 	bl	8001866 <HAL_TIM_Encoder_Stop>
			EncoderCounter = 0;
 8002e08:	4b43      	ldr	r3, [pc, #268]	; (8002f18 <CheckSafety+0x250>)
 8002e0a:	2200      	movs	r2, #0
 8002e0c:	601a      	str	r2, [r3, #0]
			SysStatus&=(~MASK_ENC);
 8002e0e:	7823      	ldrb	r3, [r4, #0]
 8002e10:	f023 0302 	bic.w	r3, r3, #2
 8002e14:	e77a      	b.n	8002d0c <CheckSafety+0x44>
		if(SysStatus&MASK_LNA)
 8002e16:	07da      	lsls	r2, r3, #31
 8002e18:	d509      	bpl.n	8002e2e <CheckSafety+0x166>
			CheckPosition();
 8002e1a:	f7ff fe01 	bl	8002a20 <CheckPosition>
			if(stroke1>100)
 8002e1e:	4b36      	ldr	r3, [pc, #216]	; (8002ef8 <CheckSafety+0x230>)
 8002e20:	681b      	ldr	r3, [r3, #0]
 8002e22:	2b64      	cmp	r3, #100	; 0x64
 8002e24:	dd56      	ble.n	8002ed4 <CheckSafety+0x20c>
				CurrentCommand(-1.1);
 8002e26:	ed9f 0a35 	vldr	s0, [pc, #212]	; 8002efc <CheckSafety+0x234>
 8002e2a:	f7ff fe3f 	bl	8002aac <CurrentCommand>
		if(SysStatus&MASK_SRV)
 8002e2e:	7823      	ldrb	r3, [r4, #0]
 8002e30:	065b      	lsls	r3, r3, #25
 8002e32:	d508      	bpl.n	8002e46 <CheckSafety+0x17e>
			HAL_GPIO_WritePin(GPIOG, GPIO_PIN_2, GPIO_PIN_SET);
 8002e34:	2201      	movs	r2, #1
 8002e36:	2104      	movs	r1, #4
 8002e38:	4834      	ldr	r0, [pc, #208]	; (8002f0c <CheckSafety+0x244>)
 8002e3a:	f7fe f959 	bl	80010f0 <HAL_GPIO_WritePin>
	    	SysStatus&=(~MASK_SRV);
 8002e3e:	7823      	ldrb	r3, [r4, #0]
 8002e40:	f023 0340 	bic.w	r3, r3, #64	; 0x40
 8002e44:	7023      	strb	r3, [r4, #0]
		if(SysStatus&MASK_BRK)
 8002e46:	7823      	ldrb	r3, [r4, #0]
 8002e48:	069d      	lsls	r5, r3, #26
 8002e4a:	d508      	bpl.n	8002e5e <CheckSafety+0x196>
			HAL_GPIO_WritePin(GPIOG, GPIO_PIN_3, GPIO_PIN_SET);
 8002e4c:	2201      	movs	r2, #1
 8002e4e:	2108      	movs	r1, #8
 8002e50:	482e      	ldr	r0, [pc, #184]	; (8002f0c <CheckSafety+0x244>)
 8002e52:	f7fe f94d 	bl	80010f0 <HAL_GPIO_WritePin>
	      	SysStatus&=(~MASK_BRK);
 8002e56:	7823      	ldrb	r3, [r4, #0]
 8002e58:	f023 0320 	bic.w	r3, r3, #32
 8002e5c:	7023      	strb	r3, [r4, #0]
		if(SysStatus&MASK_CL)
 8002e5e:	7823      	ldrb	r3, [r4, #0]
 8002e60:	06d8      	lsls	r0, r3, #27
 8002e62:	d50d      	bpl.n	8002e80 <CheckSafety+0x1b8>
			HAL_GPIO_WritePin(GPIOG, GPIO_PIN_1, GPIO_PIN_SET);
 8002e64:	2201      	movs	r2, #1
 8002e66:	2102      	movs	r1, #2
 8002e68:	4828      	ldr	r0, [pc, #160]	; (8002f0c <CheckSafety+0x244>)
 8002e6a:	f7fe f941 	bl	80010f0 <HAL_GPIO_WritePin>
	    	HAL_GPIO_WritePin(GPIOG, GPIO_PIN_4, GPIO_PIN_SET);
 8002e6e:	2201      	movs	r2, #1
 8002e70:	2110      	movs	r1, #16
 8002e72:	4826      	ldr	r0, [pc, #152]	; (8002f0c <CheckSafety+0x244>)
 8002e74:	f7fe f93c 	bl	80010f0 <HAL_GPIO_WritePin>
	    	SysStatus&=(~MASK_CL);
 8002e78:	7823      	ldrb	r3, [r4, #0]
 8002e7a:	f023 0310 	bic.w	r3, r3, #16
 8002e7e:	7023      	strb	r3, [r4, #0]
		if(SysStatus&MASK_MBRK)
 8002e80:	7823      	ldrb	r3, [r4, #0]
 8002e82:	0719      	lsls	r1, r3, #28
 8002e84:	d509      	bpl.n	8002e9a <CheckSafety+0x1d2>
			HAL_GPIO_WritePin(GPIOG, GPIO_PIN_9, GPIO_PIN_SET);
 8002e86:	2201      	movs	r2, #1
 8002e88:	f44f 7100 	mov.w	r1, #512	; 0x200
 8002e8c:	481f      	ldr	r0, [pc, #124]	; (8002f0c <CheckSafety+0x244>)
 8002e8e:	f7fe f92f 	bl	80010f0 <HAL_GPIO_WritePin>
			SysStatus&=(~MASK_MBRK);
 8002e92:	7823      	ldrb	r3, [r4, #0]
 8002e94:	f023 0308 	bic.w	r3, r3, #8
 8002e98:	7023      	strb	r3, [r4, #0]
		if(SysStatus&MASK_DAC)
 8002e9a:	7823      	ldrb	r3, [r4, #0]
 8002e9c:	075a      	lsls	r2, r3, #29
 8002e9e:	d507      	bpl.n	8002eb0 <CheckSafety+0x1e8>
			HAL_DAC_Stop(&hdac, DAC_CHANNEL_1);
 8002ea0:	2100      	movs	r1, #0
 8002ea2:	481b      	ldr	r0, [pc, #108]	; (8002f10 <CheckSafety+0x248>)
 8002ea4:	f7fd fc39 	bl	800071a <HAL_DAC_Stop>
			SysStatus&=(~MASK_DAC);
 8002ea8:	7823      	ldrb	r3, [r4, #0]
 8002eaa:	f023 0304 	bic.w	r3, r3, #4
 8002eae:	7023      	strb	r3, [r4, #0]
		if(SysStatus&MASK_ENC)
 8002eb0:	7823      	ldrb	r3, [r4, #0]
 8002eb2:	079b      	lsls	r3, r3, #30
 8002eb4:	d50a      	bpl.n	8002ecc <CheckSafety+0x204>
			HAL_TIM_Encoder_Stop(&htim2, TIM_CHANNEL_1|TIM_CHANNEL_2);
 8002eb6:	2104      	movs	r1, #4
 8002eb8:	4816      	ldr	r0, [pc, #88]	; (8002f14 <CheckSafety+0x24c>)
 8002eba:	f7fe fcd4 	bl	8001866 <HAL_TIM_Encoder_Stop>
			EncoderCounter = 0;
 8002ebe:	4b16      	ldr	r3, [pc, #88]	; (8002f18 <CheckSafety+0x250>)
 8002ec0:	2200      	movs	r2, #0
 8002ec2:	601a      	str	r2, [r3, #0]
			SysStatus&=(~MASK_ENC);
 8002ec4:	7823      	ldrb	r3, [r4, #0]
 8002ec6:	f023 0302 	bic.w	r3, r3, #2
 8002eca:	7023      	strb	r3, [r4, #0]
		ACservoStatus = 0;
 8002ecc:	4b13      	ldr	r3, [pc, #76]	; (8002f1c <CheckSafety+0x254>)
 8002ece:	2200      	movs	r2, #0
 8002ed0:	701a      	strb	r2, [r3, #0]
 8002ed2:	bd38      	pop	{r3, r4, r5, pc}
				CurrentCommand(0.0);
 8002ed4:	ed9f 0a0a 	vldr	s0, [pc, #40]	; 8002f00 <CheckSafety+0x238>
 8002ed8:	f7ff fde8 	bl	8002aac <CurrentCommand>
				ActuatorStatus = 0;
 8002edc:	4b09      	ldr	r3, [pc, #36]	; (8002f04 <CheckSafety+0x23c>)
 8002ede:	701d      	strb	r5, [r3, #0]
				direction = 0;
 8002ee0:	4b09      	ldr	r3, [pc, #36]	; (8002f08 <CheckSafety+0x240>)
 8002ee2:	701d      	strb	r5, [r3, #0]
				SysStatus&=(~MASK_LNA);
 8002ee4:	7823      	ldrb	r3, [r4, #0]
 8002ee6:	f023 0301 	bic.w	r3, r3, #1
 8002eea:	7023      	strb	r3, [r4, #0]
 8002eec:	e79f      	b.n	8002e2e <CheckSafety+0x166>
 8002eee:	bf00      	nop
 8002ef0:	20000038 	.word	0x20000038
 8002ef4:	20000042 	.word	0x20000042
 8002ef8:	20000674 	.word	0x20000674
 8002efc:	bf8ccccd 	.word	0xbf8ccccd
 8002f00:	00000000 	.word	0x00000000
 8002f04:	20000029 	.word	0x20000029
 8002f08:	20000044 	.word	0x20000044
 8002f0c:	40021800 	.word	0x40021800
 8002f10:	200006e4 	.word	0x200006e4
 8002f14:	200007d4 	.word	0x200007d4
 8002f18:	20000034 	.word	0x20000034
 8002f1c:	20000028 	.word	0x20000028

08002f20 <Emergency>:
	}
	*/
}

void Emergency(void)
{
 8002f20:	b508      	push	{r3, lr}
  HAL_GPIO_WritePin(GPIOG, GPIO_PIN_1|GPIO_PIN_2|GPIO_PIN_3|GPIO_PIN_4, GPIO_PIN_SET);
 8002f22:	2201      	movs	r2, #1
 8002f24:	211e      	movs	r1, #30
 8002f26:	480f      	ldr	r0, [pc, #60]	; (8002f64 <Emergency+0x44>)
 8002f28:	f7fe f8e2 	bl	80010f0 <HAL_GPIO_WritePin>
  HAL_DAC_Stop(&hdac, DAC_CHANNEL_1);
 8002f2c:	2100      	movs	r1, #0
 8002f2e:	480e      	ldr	r0, [pc, #56]	; (8002f68 <Emergency+0x48>)
 8002f30:	f7fd fbf3 	bl	800071a <HAL_DAC_Stop>
  HAL_TIM_Encoder_Stop(&htim2, TIM_CHANNEL_1|TIM_CHANNEL_2);
 8002f34:	2104      	movs	r1, #4
 8002f36:	480d      	ldr	r0, [pc, #52]	; (8002f6c <Emergency+0x4c>)
 8002f38:	f7fe fc95 	bl	8001866 <HAL_TIM_Encoder_Stop>
  //HAL_UART_Transmit(&huart5, (uint8_t *)"cc=0\r\n", 6, 100);
  CheckPosition();
 8002f3c:	f7ff fd70 	bl	8002a20 <CheckPosition>
  CurrentCommand(0.0);
 8002f40:	ed9f 0a0b 	vldr	s0, [pc, #44]	; 8002f70 <Emergency+0x50>
 8002f44:	f7ff fdb2 	bl	8002aac <CurrentCommand>
  ActuatorStatus=0;
 8002f48:	4b0a      	ldr	r3, [pc, #40]	; (8002f74 <Emergency+0x54>)

  if(HAL_GPIO_ReadPin(GPIOF, GPIO_PIN_0)==0)
 8002f4a:	480b      	ldr	r0, [pc, #44]	; (8002f78 <Emergency+0x58>)
  ActuatorStatus=0;
 8002f4c:	2200      	movs	r2, #0
  if(HAL_GPIO_ReadPin(GPIOF, GPIO_PIN_0)==0)
 8002f4e:	2101      	movs	r1, #1
  ActuatorStatus=0;
 8002f50:	701a      	strb	r2, [r3, #0]
  if(HAL_GPIO_ReadPin(GPIOF, GPIO_PIN_0)==0)
 8002f52:	f7fe f8c7 	bl	80010e4 <HAL_GPIO_ReadPin>
 8002f56:	b918      	cbnz	r0, 8002f60 <Emergency+0x40>
    {
      SysStatus = 0;
 8002f58:	4b08      	ldr	r3, [pc, #32]	; (8002f7c <Emergency+0x5c>)
 8002f5a:	7018      	strb	r0, [r3, #0]
      ModStatus = 0;
 8002f5c:	4b08      	ldr	r3, [pc, #32]	; (8002f80 <Emergency+0x60>)
 8002f5e:	7018      	strb	r0, [r3, #0]
 8002f60:	bd08      	pop	{r3, pc}
 8002f62:	bf00      	nop
 8002f64:	40021800 	.word	0x40021800
 8002f68:	200006e4 	.word	0x200006e4
 8002f6c:	200007d4 	.word	0x200007d4
 8002f70:	00000000 	.word	0x00000000
 8002f74:	20000029 	.word	0x20000029
 8002f78:	40021400 	.word	0x40021400
 8002f7c:	20000042 	.word	0x20000042
 8002f80:	20000038 	.word	0x20000038

08002f84 <CheckStatus>:
{
 8002f84:	b508      	push	{r3, lr}
  if(SysStatus&MASK_EMERGENCY)
 8002f86:	4b0c      	ldr	r3, [pc, #48]	; (8002fb8 <CheckStatus+0x34>)
 8002f88:	f993 3000 	ldrsb.w	r3, [r3]
 8002f8c:	2b00      	cmp	r3, #0
 8002f8e:	da03      	bge.n	8002f98 <CheckStatus+0x14>
}
 8002f90:	e8bd 4008 	ldmia.w	sp!, {r3, lr}
      Emergency();
 8002f94:	f7ff bfc4 	b.w	8002f20 <Emergency>
	  HAL_UART_Receive_DMA(&huart3, (uint8_t *)rx_data, 10);
 8002f98:	220a      	movs	r2, #10
 8002f9a:	4908      	ldr	r1, [pc, #32]	; (8002fbc <CheckStatus+0x38>)
 8002f9c:	4808      	ldr	r0, [pc, #32]	; (8002fc0 <CheckStatus+0x3c>)
 8002f9e:	f7ff f8ed 	bl	800217c <HAL_UART_Receive_DMA>
      HAL_UART_Receive_DMA(&huart4, (uint8_t *)rx_data, 10);
 8002fa2:	220a      	movs	r2, #10
 8002fa4:	4905      	ldr	r1, [pc, #20]	; (8002fbc <CheckStatus+0x38>)
 8002fa6:	4807      	ldr	r0, [pc, #28]	; (8002fc4 <CheckStatus+0x40>)
 8002fa8:	f7ff f8e8 	bl	800217c <HAL_UART_Receive_DMA>
      ModStatus=mycommand; // TP mycommand is global variable and mycommand=command()
 8002fac:	4b06      	ldr	r3, [pc, #24]	; (8002fc8 <CheckStatus+0x44>)
 8002fae:	781a      	ldrb	r2, [r3, #0]
 8002fb0:	4b06      	ldr	r3, [pc, #24]	; (8002fcc <CheckStatus+0x48>)
 8002fb2:	701a      	strb	r2, [r3, #0]
 8002fb4:	bd08      	pop	{r3, pc}
 8002fb6:	bf00      	nop
 8002fb8:	20000042 	.word	0x20000042
 8002fbc:	20000749 	.word	0x20000749
 8002fc0:	20000208 	.word	0x20000208
 8002fc4:	20000794 	.word	0x20000794
 8002fc8:	200008fc 	.word	0x200008fc
 8002fcc:	20000038 	.word	0x20000038

08002fd0 <Rotate_Assist>:
    }
}

void Rotate_Assist(void)
{
 8002fd0:	b5f8      	push	{r3, r4, r5, r6, r7, lr}
	static int torque_lmt = 0;

	//HAL_UART_Transmit(&huart2, (uint8_t *)"0R", 2, 100);
	//HAL_UART_Receive_DMA(&huart2, (uint8_t *)usart2_buffer, 10);

	switch(Step)
 8002fd2:	4b2e      	ldr	r3, [pc, #184]	; (800308c <Rotate_Assist+0xbc>)
 8002fd4:	781a      	ldrb	r2, [r3, #0]
 8002fd6:	4b2e      	ldr	r3, [pc, #184]	; (8003090 <Rotate_Assist+0xc0>)
 8002fd8:	2a03      	cmp	r2, #3
 8002fda:	d805      	bhi.n	8002fe8 <Rotate_Assist+0x18>
 8002fdc:	e8df f002 	tbb	[pc, r2]
 8002fe0:	27252302 	.word	0x27252302
	{
	  case 0:
		  AssistTorque = ASSIST_TORQUE_DEFAULT;
 8002fe4:	2200      	movs	r2, #0
		break;
	  case 2:
		  AssistTorque = ASSIST_TORQUE_STEP2;
		  break;
	  case 3:
		  AssistTorque = ASSIST_TORQUE_STEP3;
 8002fe6:	701a      	strb	r2, [r3, #0]
		  break;
	}
	torque_lmt = AssistTorque*(-3);
 8002fe8:	781b      	ldrb	r3, [r3, #0]
 8002fea:	4e2a      	ldr	r6, [pc, #168]	; (8003094 <Rotate_Assist+0xc4>)
	HAL_DAC_SetValue(&hdac, DAC_CHANNEL_1, DAC_ALIGN_8B_R, AssistTorque);
 8002fec:	482a      	ldr	r0, [pc, #168]	; (8003098 <Rotate_Assist+0xc8>)
	EncoderCounter = TIM2->CNT;
	pulse = (int)EncoderCounter;

	//RotateCommand(2);

	if(ACservoStatus==0)
 8002fee:	4c2b      	ldr	r4, [pc, #172]	; (800309c <Rotate_Assist+0xcc>)
	torque_lmt = AssistTorque*(-3);
 8002ff0:	eba3 0283 	sub.w	r2, r3, r3, lsl #2
 8002ff4:	6032      	str	r2, [r6, #0]
	HAL_DAC_SetValue(&hdac, DAC_CHANNEL_1, DAC_ALIGN_8B_R, AssistTorque);
 8002ff6:	2100      	movs	r1, #0
 8002ff8:	2208      	movs	r2, #8
 8002ffa:	f7fd fbba 	bl	8000772 <HAL_DAC_SetValue>
	EncoderCounter = TIM2->CNT;
 8002ffe:	f04f 4380 	mov.w	r3, #1073741824	; 0x40000000
 8003002:	4a27      	ldr	r2, [pc, #156]	; (80030a0 <Rotate_Assist+0xd0>)
 8003004:	6a5b      	ldr	r3, [r3, #36]	; 0x24
 8003006:	6013      	str	r3, [r2, #0]
	if(ACservoStatus==0)
 8003008:	7825      	ldrb	r5, [r4, #0]
	pulse = (int)EncoderCounter;
 800300a:	4a26      	ldr	r2, [pc, #152]	; (80030a4 <Rotate_Assist+0xd4>)
 800300c:	4627      	mov	r7, r4
 800300e:	6013      	str	r3, [r2, #0]
	if(ACservoStatus==0)
 8003010:	bb2d      	cbnz	r5, 800305e <Rotate_Assist+0x8e>
	{
		if(torque>=20)
 8003012:	4b25      	ldr	r3, [pc, #148]	; (80030a8 <Rotate_Assist+0xd8>)
 8003014:	681b      	ldr	r3, [r3, #0]
 8003016:	2b13      	cmp	r3, #19
 8003018:	dd0b      	ble.n	8003032 <Rotate_Assist+0x62>
		{
			RotateCommand(1);
 800301a:	2001      	movs	r0, #1
 800301c:	f7ff fcd2 	bl	80029c4 <RotateCommand>
			ACservoStatus = 1;
 8003020:	2301      	movs	r3, #1
 8003022:	7023      	strb	r3, [r4, #0]
 8003024:	bdf8      	pop	{r3, r4, r5, r6, r7, pc}
		  AssistTorque = ASSIST_TORQUE_STEP1;
 8003026:	22b4      	movs	r2, #180	; 0xb4
 8003028:	e7dd      	b.n	8002fe6 <Rotate_Assist+0x16>
		  AssistTorque = ASSIST_TORQUE_STEP2;
 800302a:	2278      	movs	r2, #120	; 0x78
 800302c:	e7db      	b.n	8002fe6 <Rotate_Assist+0x16>
		  AssistTorque = ASSIST_TORQUE_STEP3;
 800302e:	223c      	movs	r2, #60	; 0x3c
 8003030:	e7d9      	b.n	8002fe6 <Rotate_Assist+0x16>
		}
		else
		{
			HAL_TIM_OC_Stop(&htim1, TIM_CHANNEL_1);
 8003032:	2100      	movs	r1, #0
 8003034:	481d      	ldr	r0, [pc, #116]	; (80030ac <Rotate_Assist+0xdc>)
 8003036:	f7fe fe31 	bl	8001c9c <HAL_TIM_OC_Stop>
			HAL_TIM_OC_Stop(&htim1, TIM_CHANNEL_2);
 800303a:	2104      	movs	r1, #4
 800303c:	481b      	ldr	r0, [pc, #108]	; (80030ac <Rotate_Assist+0xdc>)
 800303e:	f7fe fe2d 	bl	8001c9c <HAL_TIM_OC_Stop>
			HAL_TIM_OC_Stop(&htim1, TIM_CHANNEL_3);
 8003042:	2108      	movs	r1, #8
 8003044:	4819      	ldr	r0, [pc, #100]	; (80030ac <Rotate_Assist+0xdc>)
 8003046:	f7fe fe29 	bl	8001c9c <HAL_TIM_OC_Stop>
			HAL_TIM_OC_Stop(&htim1, TIM_CHANNEL_4);
 800304a:	210c      	movs	r1, #12
 800304c:	4817      	ldr	r0, [pc, #92]	; (80030ac <Rotate_Assist+0xdc>)
 800304e:	f7fe fe25 	bl	8001c9c <HAL_TIM_OC_Stop>
			HAL_Delay(10);
 8003052:	200a      	movs	r0, #10
 8003054:	f7fd faa2 	bl	800059c <HAL_Delay>
			ACservoStatus = 0;
 8003058:	2300      	movs	r3, #0
 800305a:	703b      	strb	r3, [r7, #0]
 800305c:	bdf8      	pop	{r3, r4, r5, r6, r7, pc}
		}
	}
	else if(ACservoStatus==1)
 800305e:	2d01      	cmp	r5, #1
 8003060:	d10a      	bne.n	8003078 <Rotate_Assist+0xa8>
	{
	    if(torque<torque_lmt)
 8003062:	4b11      	ldr	r3, [pc, #68]	; (80030a8 <Rotate_Assist+0xd8>)
 8003064:	6818      	ldr	r0, [r3, #0]
 8003066:	6833      	ldr	r3, [r6, #0]
 8003068:	4298      	cmp	r0, r3
 800306a:	dbe2      	blt.n	8003032 <Rotate_Assist+0x62>
	    	HAL_TIM_OC_Stop(&htim1, TIM_CHANNEL_3);
	    	HAL_TIM_OC_Stop(&htim1, TIM_CHANNEL_4);
	    	HAL_Delay(10);
	    	ACservoStatus = 0;
	    }
	    else if((torque>=torque_lmt)&&(torque<20))
 800306c:	2813      	cmp	r0, #19
 800306e:	dc04      	bgt.n	800307a <Rotate_Assist+0xaa>
	    {
	    	RotateCommand(2);
 8003070:	2002      	movs	r0, #2
	    }
	    else if(torque>=20)
	    {
	    	uint8_t pcmd = (uint8_t)((130+torque)/50);
	    	if(pcmd>9){pcmd=9;}
	    	RotateCommand(pcmd);
 8003072:	f7ff fca7 	bl	80029c4 <RotateCommand>
	    	ACservoStatus = 1;
 8003076:	7025      	strb	r5, [r4, #0]
 8003078:	bdf8      	pop	{r3, r4, r5, r6, r7, pc}
	    	uint8_t pcmd = (uint8_t)((130+torque)/50);
 800307a:	3082      	adds	r0, #130	; 0x82
 800307c:	2332      	movs	r3, #50	; 0x32
 800307e:	fb90 f0f3 	sdiv	r0, r0, r3
 8003082:	b2c0      	uxtb	r0, r0
	    	RotateCommand(pcmd);
 8003084:	2809      	cmp	r0, #9
 8003086:	bf28      	it	cs
 8003088:	2009      	movcs	r0, #9
 800308a:	e7f2      	b.n	8003072 <Rotate_Assist+0xa2>
 800308c:	20000041 	.word	0x20000041
 8003090:	20000030 	.word	0x20000030
 8003094:	2000005c 	.word	0x2000005c
 8003098:	200006e4 	.word	0x200006e4
 800309c:	20000028 	.word	0x20000028
 80030a0:	20000034 	.word	0x20000034
 80030a4:	20000050 	.word	0x20000050
 80030a8:	20000054 	.word	0x20000054
 80030ac:	200006fc 	.word	0x200006fc

080030b0 <Rotate_Resist>:
	//printf("%d %d\r\n", EncoderCounter, EncoderCounter-OldPos);
	//OldPos = EncoderCounter;
}

void Rotate_Resist(void)
{
 80030b0:	b538      	push	{r3, r4, r5, lr}
  //static uint32_t OldPos = 0;
  static uint8_t ResistTorque = 0;

  switch(Step)
 80030b2:	4b22      	ldr	r3, [pc, #136]	; (800313c <Rotate_Resist+0x8c>)
 80030b4:	4d22      	ldr	r5, [pc, #136]	; (8003140 <Rotate_Resist+0x90>)
 80030b6:	781b      	ldrb	r3, [r3, #0]
 80030b8:	4c22      	ldr	r4, [pc, #136]	; (8003144 <Rotate_Resist+0x94>)
 80030ba:	2b03      	cmp	r3, #3
 80030bc:	d805      	bhi.n	80030ca <Rotate_Resist+0x1a>
 80030be:	e8df f003 	tbb	[pc, r3]
 80030c2:	2802      	.short	0x2802
 80030c4:	2c2a      	.short	0x2c2a
  {
    case 0:
    	ResistTorque = RESIST_TORQUE_DEFAULT;
 80030c6:	2300      	movs	r3, #0
        break;
    case 1:
    	ResistTorque = RESIST_TORQUE_STEP1;
 80030c8:	702b      	strb	r3, [r5, #0]
            SysStatus|=MASK_MBRK;
        }

        break;
    }
  HAL_DAC_SetValue(&hdac, DAC_CHANNEL_1, DAC_ALIGN_8B_R, ResistTorque);
 80030ca:	782b      	ldrb	r3, [r5, #0]
 80030cc:	481e      	ldr	r0, [pc, #120]	; (8003148 <Rotate_Resist+0x98>)
 80030ce:	2208      	movs	r2, #8
 80030d0:	2100      	movs	r1, #0
 80030d2:	f7fd fb4e 	bl	8000772 <HAL_DAC_SetValue>

  EncoderCounter = TIM2->CNT;
 80030d6:	f04f 4380 	mov.w	r3, #1073741824	; 0x40000000
 80030da:	4a1c      	ldr	r2, [pc, #112]	; (800314c <Rotate_Resist+0x9c>)
 80030dc:	6a5b      	ldr	r3, [r3, #36]	; 0x24
  pulse = (int)EncoderCounter;

  if(!(SysStatus&MASK_CL))
 80030de:	7825      	ldrb	r5, [r4, #0]
  EncoderCounter = TIM2->CNT;
 80030e0:	6013      	str	r3, [r2, #0]
  pulse = (int)EncoderCounter;
 80030e2:	4a1b      	ldr	r2, [pc, #108]	; (8003150 <Rotate_Resist+0xa0>)
  if(!(SysStatus&MASK_CL))
 80030e4:	f015 0510 	ands.w	r5, r5, #16
  pulse = (int)EncoderCounter;
 80030e8:	6013      	str	r3, [r2, #0]
  if(!(SysStatus&MASK_CL))
 80030ea:	d10d      	bne.n	8003108 <Rotate_Resist+0x58>
    {
	  HAL_GPIO_WritePin(GPIOG, GPIO_PIN_1, GPIO_PIN_RESET);
 80030ec:	462a      	mov	r2, r5
 80030ee:	2102      	movs	r1, #2
 80030f0:	4818      	ldr	r0, [pc, #96]	; (8003154 <Rotate_Resist+0xa4>)
 80030f2:	f7fd fffd 	bl	80010f0 <HAL_GPIO_WritePin>
      HAL_GPIO_WritePin(GPIOG, GPIO_PIN_4, GPIO_PIN_RESET);
 80030f6:	462a      	mov	r2, r5
 80030f8:	2110      	movs	r1, #16
 80030fa:	4816      	ldr	r0, [pc, #88]	; (8003154 <Rotate_Resist+0xa4>)
 80030fc:	f7fd fff8 	bl	80010f0 <HAL_GPIO_WritePin>
      SysStatus|=MASK_CL;
 8003100:	7823      	ldrb	r3, [r4, #0]
 8003102:	f043 0310 	orr.w	r3, r3, #16
 8003106:	7023      	strb	r3, [r4, #0]
    }
  //SendData(torque, pulse, force, stroke);
  HAL_Delay(10);
 8003108:	200a      	movs	r0, #10
  //printf("%d\t%d\r\n", EncoderCounter, force);
  //OldPos = EncoderCounter;
}
 800310a:	e8bd 4038 	ldmia.w	sp!, {r3, r4, r5, lr}
  HAL_Delay(10);
 800310e:	f7fd ba45 	b.w	800059c <HAL_Delay>
    	ResistTorque = RESIST_TORQUE_STEP1;
 8003112:	2315      	movs	r3, #21
 8003114:	e7d8      	b.n	80030c8 <Rotate_Resist+0x18>
    	ResistTorque = RESIST_TORQUE_STEP2;
 8003116:	232a      	movs	r3, #42	; 0x2a
 8003118:	e7d6      	b.n	80030c8 <Rotate_Resist+0x18>
        if(!(SysStatus&MASK_MBRK))
 800311a:	7822      	ldrb	r2, [r4, #0]
    	ResistTorque = RESIST_TORQUE_STEP3;
 800311c:	233f      	movs	r3, #63	; 0x3f
        if(!(SysStatus&MASK_MBRK))
 800311e:	f012 0208 	ands.w	r2, r2, #8
    	ResistTorque = RESIST_TORQUE_STEP3;
 8003122:	702b      	strb	r3, [r5, #0]
        if(!(SysStatus&MASK_MBRK))
 8003124:	d1d1      	bne.n	80030ca <Rotate_Resist+0x1a>
        	HAL_GPIO_WritePin(GPIOG, GPIO_PIN_9, GPIO_PIN_RESET);
 8003126:	f44f 7100 	mov.w	r1, #512	; 0x200
 800312a:	480a      	ldr	r0, [pc, #40]	; (8003154 <Rotate_Resist+0xa4>)
 800312c:	f7fd ffe0 	bl	80010f0 <HAL_GPIO_WritePin>
            SysStatus|=MASK_MBRK;
 8003130:	7823      	ldrb	r3, [r4, #0]
 8003132:	f043 0308 	orr.w	r3, r3, #8
 8003136:	7023      	strb	r3, [r4, #0]
 8003138:	e7c7      	b.n	80030ca <Rotate_Resist+0x1a>
 800313a:	bf00      	nop
 800313c:	20000041 	.word	0x20000041
 8003140:	20000040 	.word	0x20000040
 8003144:	20000042 	.word	0x20000042
 8003148:	200006e4 	.word	0x200006e4
 800314c:	20000034 	.word	0x20000034
 8003150:	20000050 	.word	0x20000050
 8003154:	40021800 	.word	0x40021800

08003158 <Translate_Assist>:

void Translate_Assist(void)
{
 8003158:	b573      	push	{r0, r1, r4, r5, r6, lr}

  //HAL_UART_Transmit(&huart5, (uint8_t *)"mp\r\n", 4, 100);
  //ActuatorCounter = TIM2->CNT;
  CheckPosition();

  switch(Step)
 800315a:	4d54      	ldr	r5, [pc, #336]	; (80032ac <Translate_Assist+0x154>)
  HAL_UART_Receive_DMA(&huart2, (uint8_t *)usart2_buffer, 10);
 800315c:	4954      	ldr	r1, [pc, #336]	; (80032b0 <Translate_Assist+0x158>)
 800315e:	4855      	ldr	r0, [pc, #340]	; (80032b4 <Translate_Assist+0x15c>)
 8003160:	220a      	movs	r2, #10
 8003162:	f7ff f80b 	bl	800217c <HAL_UART_Receive_DMA>
  CheckPosition();
 8003166:	f7ff fc5b 	bl	8002a20 <CheckPosition>
  switch(Step)
 800316a:	782b      	ldrb	r3, [r5, #0]
 800316c:	4a52      	ldr	r2, [pc, #328]	; (80032b8 <Translate_Assist+0x160>)
 800316e:	2b03      	cmp	r3, #3
 8003170:	d806      	bhi.n	8003180 <Translate_Assist+0x28>
 8003172:	e8df f003 	tbb	[pc, r3]
 8003176:	2902      	.short	0x2902
 8003178:	2929      	.short	0x2929
    {
      case 0:
    	  AssistForce = ASSIST_FORCE_DEFAULT;
 800317a:	f44f 717a 	mov.w	r1, #1000	; 0x3e8
          break;
      case 2:
    	  AssistForce = ASSIST_FORCE_STEP2;
          break;
      case 3:
    	  AssistForce = ASSIST_FORCE_STEP3;
 800317e:	6011      	str	r1, [r2, #0]
        break;
    }

  if(force > AssistForce)
 8003180:	494e      	ldr	r1, [pc, #312]	; (80032bc <Translate_Assist+0x164>)
 8003182:	6812      	ldr	r2, [r2, #0]
 8003184:	6809      	ldr	r1, [r1, #0]
 8003186:	4291      	cmp	r1, r2
 8003188:	dd20      	ble.n	80031cc <Translate_Assist+0x74>
    {
      direction = 2;  // forward
 800318a:	2102      	movs	r1, #2
    }
  else if(force < (AssistForce*(-1)))
    {
      direction = 1;  // backward
 800318c:	4a4c      	ldr	r2, [pc, #304]	; (80032c0 <Translate_Assist+0x168>)
 800318e:	7011      	strb	r1, [r2, #0]
    }

  if(abnormal)
 8003190:	4a4c      	ldr	r2, [pc, #304]	; (80032c4 <Translate_Assist+0x16c>)
 8003192:	4c4d      	ldr	r4, [pc, #308]	; (80032c8 <Translate_Assist+0x170>)
 8003194:	7812      	ldrb	r2, [r2, #0]
 8003196:	2a00      	cmp	r2, #0
 8003198:	d04f      	beq.n	800323a <Translate_Assist+0xe2>
  {
	  __HAL_UART_CLEAR_OREFLAG(&huart5);
 800319a:	4e4c      	ldr	r6, [pc, #304]	; (80032cc <Translate_Assist+0x174>)
 800319c:	2300      	movs	r3, #0
 800319e:	9301      	str	r3, [sp, #4]
 80031a0:	6833      	ldr	r3, [r6, #0]
 80031a2:	681a      	ldr	r2, [r3, #0]
 80031a4:	9201      	str	r2, [sp, #4]
 80031a6:	685b      	ldr	r3, [r3, #4]
 80031a8:	9301      	str	r3, [sp, #4]
	  HAL_UART_DMAStop(&huart5);
 80031aa:	4630      	mov	r0, r6
	  __HAL_UART_CLEAR_OREFLAG(&huart5);
 80031ac:	9b01      	ldr	r3, [sp, #4]
	  HAL_UART_DMAStop(&huart5);
 80031ae:	f7ff f82d 	bl	800220c <HAL_UART_DMAStop>
	  HAL_UART_Receive_DMA(&huart5, (uint8_t *)usart5_buffer, 13);
 80031b2:	220d      	movs	r2, #13
 80031b4:	4946      	ldr	r1, [pc, #280]	; (80032d0 <Translate_Assist+0x178>)
 80031b6:	4630      	mov	r0, r6
 80031b8:	f7fe ffe0 	bl	800217c <HAL_UART_Receive_DMA>

	  //ActuatorStatus=0;
	  if(ActuatorStatus==0)
 80031bc:	7823      	ldrb	r3, [r4, #0]
 80031be:	b953      	cbnz	r3, 80031d6 <Translate_Assist+0x7e>
	        	break;
	        case 3:
	        	CurrentCommand(-0.9);
	        	break;
	      }
	      ActuatorStatus = 3;
 80031c0:	2303      	movs	r3, #3
	  }
	  else if(ActuatorStatus==3)
	  {
		  if(direction==1)
		  {
			  ActuatorStatus = 1;
 80031c2:	7023      	strb	r3, [r4, #0]
	  CurrentCommand(CH2, 0.0);
	  ActuatorStatus = 3;
    }
    */
  //printf("%d, %d, %d, %d\r\n", ActuatorStatus, stroke1, stroke2, force);
}
 80031c4:	b002      	add	sp, #8
 80031c6:	bd70      	pop	{r4, r5, r6, pc}
    	  AssistForce = ASSIST_FORCE_STEP3;
 80031c8:	210a      	movs	r1, #10
 80031ca:	e7d8      	b.n	800317e <Translate_Assist+0x26>
  else if(force < (AssistForce*(-1)))
 80031cc:	4252      	negs	r2, r2
 80031ce:	4291      	cmp	r1, r2
 80031d0:	dade      	bge.n	8003190 <Translate_Assist+0x38>
      direction = 1;  // backward
 80031d2:	2101      	movs	r1, #1
 80031d4:	e7da      	b.n	800318c <Translate_Assist+0x34>
	  else if(ActuatorStatus==1)
 80031d6:	2b01      	cmp	r3, #1
 80031d8:	d111      	bne.n	80031fe <Translate_Assist+0xa6>
	      switch(Step)
 80031da:	782b      	ldrb	r3, [r5, #0]
 80031dc:	2b03      	cmp	r3, #3
 80031de:	d8ef      	bhi.n	80031c0 <Translate_Assist+0x68>
 80031e0:	e8df f003 	tbb	[pc, r3]
 80031e4:	0a07022d 	.word	0x0a07022d
	      		CurrentCommand(1.1);
 80031e8:	ed9f 0a3a 	vldr	s0, [pc, #232]	; 80032d4 <Translate_Assist+0x17c>
	        	CurrentCommand(-0.9);
 80031ec:	f7ff fc5e 	bl	8002aac <CurrentCommand>
	        	break;
 80031f0:	e7e6      	b.n	80031c0 <Translate_Assist+0x68>
	        	CurrentCommand(1.0);
 80031f2:	eeb7 0a00 	vmov.f32	s0, #112	; 0x3f800000  1.0
 80031f6:	e7f9      	b.n	80031ec <Translate_Assist+0x94>
	        	CurrentCommand(0.9);
 80031f8:	ed9f 0a37 	vldr	s0, [pc, #220]	; 80032d8 <Translate_Assist+0x180>
 80031fc:	e7f6      	b.n	80031ec <Translate_Assist+0x94>
	  else if(ActuatorStatus==2)
 80031fe:	2b02      	cmp	r3, #2
 8003200:	d10f      	bne.n	8003222 <Translate_Assist+0xca>
	      switch(Step)
 8003202:	782b      	ldrb	r3, [r5, #0]
 8003204:	2b03      	cmp	r3, #3
 8003206:	d8db      	bhi.n	80031c0 <Translate_Assist+0x68>
 8003208:	e8df f003 	tbb	[pc, r3]
 800320c:	08050219 	.word	0x08050219
	        	CurrentCommand(-1.1);
 8003210:	ed9f 0a32 	vldr	s0, [pc, #200]	; 80032dc <Translate_Assist+0x184>
 8003214:	e7ea      	b.n	80031ec <Translate_Assist+0x94>
	        	CurrentCommand(-1.0);
 8003216:	eebf 0a00 	vmov.f32	s0, #240	; 0xbf800000 -1.0
 800321a:	e7e7      	b.n	80031ec <Translate_Assist+0x94>
	        	CurrentCommand(-0.9);
 800321c:	ed9f 0a30 	vldr	s0, [pc, #192]	; 80032e0 <Translate_Assist+0x188>
 8003220:	e7e4      	b.n	80031ec <Translate_Assist+0x94>
	  else if(ActuatorStatus==3)
 8003222:	2b03      	cmp	r3, #3
 8003224:	d1ce      	bne.n	80031c4 <Translate_Assist+0x6c>
		  if(direction==1)
 8003226:	4b26      	ldr	r3, [pc, #152]	; (80032c0 <Translate_Assist+0x168>)
 8003228:	781b      	ldrb	r3, [r3, #0]
 800322a:	2b01      	cmp	r3, #1
 800322c:	d101      	bne.n	8003232 <Translate_Assist+0xda>
			  ActuatorStatus = 1;
 800322e:	2301      	movs	r3, #1
 8003230:	e7c7      	b.n	80031c2 <Translate_Assist+0x6a>
		  else if(direction==2)
 8003232:	2b02      	cmp	r3, #2
 8003234:	d1c6      	bne.n	80031c4 <Translate_Assist+0x6c>
			  ActuatorStatus = 2;
 8003236:	2302      	movs	r3, #2
 8003238:	e7c3      	b.n	80031c2 <Translate_Assist+0x6a>
	  if(ActuatorStatus==0)
 800323a:	7822      	ldrb	r2, [r4, #0]
 800323c:	b912      	cbnz	r2, 8003244 <Translate_Assist+0xec>
		  CurrentCommand(0.0);
 800323e:	ed9f 0a29 	vldr	s0, [pc, #164]	; 80032e4 <Translate_Assist+0x18c>
 8003242:	e7d3      	b.n	80031ec <Translate_Assist+0x94>
	  else if(ActuatorStatus==1)
 8003244:	2a01      	cmp	r2, #1
 8003246:	d115      	bne.n	8003274 <Translate_Assist+0x11c>
		  if(stroke1>=TRANS_POINT_A)
 8003248:	4a27      	ldr	r2, [pc, #156]	; (80032e8 <Translate_Assist+0x190>)
 800324a:	6812      	ldr	r2, [r2, #0]
 800324c:	f5b2 6ffa 	cmp.w	r2, #2000	; 0x7d0
 8003250:	dab6      	bge.n	80031c0 <Translate_Assist+0x68>
			  switch(Step)
 8003252:	2b03      	cmp	r3, #3
 8003254:	d8b6      	bhi.n	80031c4 <Translate_Assist+0x6c>
 8003256:	e8df f003 	tbb	[pc, r3]
 800325a:	021a      	.short	0x021a
 800325c:	0a07      	.short	0x0a07
			  		  CurrentCommand(1.1);
 800325e:	ed9f 0a1d 	vldr	s0, [pc, #116]	; 80032d4 <Translate_Assist+0x17c>
			  		  CurrentCommand(-0.9);
 8003262:	f7ff fc23 	bl	8002aac <CurrentCommand>
			  		  break;
 8003266:	e7ad      	b.n	80031c4 <Translate_Assist+0x6c>
			  		  CurrentCommand(1.0);
 8003268:	eeb7 0a00 	vmov.f32	s0, #112	; 0x3f800000  1.0
 800326c:	e7f9      	b.n	8003262 <Translate_Assist+0x10a>
			  		  CurrentCommand(0.9);
 800326e:	ed9f 0a1a 	vldr	s0, [pc, #104]	; 80032d8 <Translate_Assist+0x180>
 8003272:	e7f6      	b.n	8003262 <Translate_Assist+0x10a>
	  else if(ActuatorStatus==2)
 8003274:	2a02      	cmp	r2, #2
 8003276:	d116      	bne.n	80032a6 <Translate_Assist+0x14e>
		  if(stroke1<=TRANS_POINT_B)
 8003278:	4a1b      	ldr	r2, [pc, #108]	; (80032e8 <Translate_Assist+0x190>)
 800327a:	6812      	ldr	r2, [r2, #0]
 800327c:	f5b2 7fc8 	cmp.w	r2, #400	; 0x190
 8003280:	dd9e      	ble.n	80031c0 <Translate_Assist+0x68>
			  switch(Step)
 8003282:	2b03      	cmp	r3, #3
 8003284:	d89e      	bhi.n	80031c4 <Translate_Assist+0x6c>
 8003286:	e8df f003 	tbb	[pc, r3]
 800328a:	0502      	.short	0x0502
 800328c:	0b08      	.short	0x0b08
			  		  CurrentCommand(0.0);
 800328e:	ed9f 0a15 	vldr	s0, [pc, #84]	; 80032e4 <Translate_Assist+0x18c>
 8003292:	e7e6      	b.n	8003262 <Translate_Assist+0x10a>
			  		  CurrentCommand(-1.1);
 8003294:	ed9f 0a11 	vldr	s0, [pc, #68]	; 80032dc <Translate_Assist+0x184>
 8003298:	e7e3      	b.n	8003262 <Translate_Assist+0x10a>
			  		  CurrentCommand(-1.0);
 800329a:	eebf 0a00 	vmov.f32	s0, #240	; 0xbf800000 -1.0
 800329e:	e7e0      	b.n	8003262 <Translate_Assist+0x10a>
			  		  CurrentCommand(-0.9);
 80032a0:	ed9f 0a0f 	vldr	s0, [pc, #60]	; 80032e0 <Translate_Assist+0x188>
 80032a4:	e7dd      	b.n	8003262 <Translate_Assist+0x10a>
	  else if(ActuatorStatus==3)
 80032a6:	2a03      	cmp	r2, #3
 80032a8:	e7bc      	b.n	8003224 <Translate_Assist+0xcc>
 80032aa:	bf00      	nop
 80032ac:	20000041 	.word	0x20000041
 80032b0:	20000668 	.word	0x20000668
 80032b4:	20000814 	.word	0x20000814
 80032b8:	2000002c 	.word	0x2000002c
 80032bc:	20000048 	.word	0x20000048
 80032c0:	20000044 	.word	0x20000044
 80032c4:	20000043 	.word	0x20000043
 80032c8:	20000029 	.word	0x20000029
 80032cc:	20000694 	.word	0x20000694
 80032d0:	20000070 	.word	0x20000070
 80032d4:	3f8ccccd 	.word	0x3f8ccccd
 80032d8:	3f666666 	.word	0x3f666666
 80032dc:	bf8ccccd 	.word	0xbf8ccccd
 80032e0:	bf666666 	.word	0xbf666666
 80032e4:	00000000 	.word	0x00000000
 80032e8:	20000674 	.word	0x20000674

080032ec <Translate_Resist>:

void Translate_Resist(void)
{
 80032ec:	b513      	push	{r0, r1, r4, lr}
  static int ResistForce = 0;

  //HAL_UART_Transmit(&huart2, (uint8_t *)"0R", 2, 100);
  HAL_UART_Receive_DMA(&huart2, (uint8_t *)usart2_buffer, 10);
 80032ee:	220a      	movs	r2, #10
 80032f0:	4941      	ldr	r1, [pc, #260]	; (80033f8 <Translate_Resist+0x10c>)
 80032f2:	4842      	ldr	r0, [pc, #264]	; (80033fc <Translate_Resist+0x110>)
 80032f4:	f7fe ff42 	bl	800217c <HAL_UART_Receive_DMA>

  //HAL_UART_Transmit(&huart5, (uint8_t *)"mp\r\n", 4, 100);
  //HAL_UART_Receive_DMA(&huart5, (uint8_t *)usart5_buffer, 13);
  if(abnormal)
 80032f8:	4b41      	ldr	r3, [pc, #260]	; (8003400 <Translate_Resist+0x114>)
 80032fa:	781b      	ldrb	r3, [r3, #0]
 80032fc:	b183      	cbz	r3, 8003320 <Translate_Resist+0x34>
  {
	  __HAL_UART_CLEAR_OREFLAG(&huart5);
 80032fe:	4c41      	ldr	r4, [pc, #260]	; (8003404 <Translate_Resist+0x118>)
 8003300:	2300      	movs	r3, #0
 8003302:	9301      	str	r3, [sp, #4]
 8003304:	6823      	ldr	r3, [r4, #0]
 8003306:	681a      	ldr	r2, [r3, #0]
 8003308:	9201      	str	r2, [sp, #4]
 800330a:	685b      	ldr	r3, [r3, #4]
 800330c:	9301      	str	r3, [sp, #4]
	  HAL_UART_DMAStop(&huart5);
 800330e:	4620      	mov	r0, r4
	  __HAL_UART_CLEAR_OREFLAG(&huart5);
 8003310:	9b01      	ldr	r3, [sp, #4]
	  HAL_UART_DMAStop(&huart5);
 8003312:	f7fe ff7b 	bl	800220c <HAL_UART_DMAStop>
	  HAL_UART_Receive_DMA(&huart5, (uint8_t *)usart5_buffer, 13);
 8003316:	220d      	movs	r2, #13
 8003318:	493b      	ldr	r1, [pc, #236]	; (8003408 <Translate_Resist+0x11c>)
 800331a:	4620      	mov	r0, r4
 800331c:	f7fe ff2e 	bl	800217c <HAL_UART_Receive_DMA>
  }

  CheckPosition();
 8003320:	f7ff fb7e 	bl	8002a20 <CheckPosition>

  switch(Step)
 8003324:	4b39      	ldr	r3, [pc, #228]	; (800340c <Translate_Resist+0x120>)
 8003326:	4a3a      	ldr	r2, [pc, #232]	; (8003410 <Translate_Resist+0x124>)
 8003328:	781b      	ldrb	r3, [r3, #0]
 800332a:	2b03      	cmp	r3, #3
 800332c:	d806      	bhi.n	800333c <Translate_Resist+0x50>
 800332e:	e8df f003 	tbb	[pc, r3]
 8003332:	1402      	.short	0x1402
 8003334:	1816      	.short	0x1816
  {
    case 0:
    	ResistForce = RESIST_FORCE_DEFAULT;
 8003336:	f44f 717a 	mov.w	r1, #1000	; 0x3e8
        break;
    case 2:
    	ResistForce = RESIST_FORCE_STEP2;
        break;
    case 3:
    	ResistForce = RESIST_FORCE_STEP3;
 800333a:	6011      	str	r1, [r2, #0]
        break;
    }

  if(force > ResistForce)
 800333c:	4935      	ldr	r1, [pc, #212]	; (8003414 <Translate_Resist+0x128>)
 800333e:	6812      	ldr	r2, [r2, #0]
 8003340:	6808      	ldr	r0, [r1, #0]
 8003342:	4935      	ldr	r1, [pc, #212]	; (8003418 <Translate_Resist+0x12c>)
 8003344:	4290      	cmp	r0, r2
 8003346:	dd0f      	ble.n	8003368 <Translate_Resist+0x7c>
  {
	  direction = 2;  // backward
 8003348:	2202      	movs	r2, #2
  {
      direction = 1;  // forward
  }
  else
  {
      direction = 0;  // stop
 800334a:	700a      	strb	r2, [r1, #0]
  }

  if(ActuatorStatus==0)
 800334c:	4a33      	ldr	r2, [pc, #204]	; (800341c <Translate_Resist+0x130>)
 800334e:	7810      	ldrb	r0, [r2, #0]
 8003350:	4614      	mov	r4, r2
 8003352:	b978      	cbnz	r0, 8003374 <Translate_Resist+0x88>
  {
      switch(Step)
      {
        case 0:
        	//HAL_UART_Transmit(&huart5, (uint8_t *)"mcc=-1.0,-1.0\r\n", 15, 100);
        	CurrentCommand(0.0);
 8003354:	ed9f 0a32 	vldr	s0, [pc, #200]	; 8003420 <Translate_Resist+0x134>
 8003358:	e01e      	b.n	8003398 <Translate_Resist+0xac>
    	ResistForce = RESIST_FORCE_STEP1;
 800335a:	2164      	movs	r1, #100	; 0x64
 800335c:	e7ed      	b.n	800333a <Translate_Resist+0x4e>
    	ResistForce = RESIST_FORCE_STEP2;
 800335e:	21c8      	movs	r1, #200	; 0xc8
 8003360:	e7eb      	b.n	800333a <Translate_Resist+0x4e>
    	ResistForce = RESIST_FORCE_STEP3;
 8003362:	f44f 7196 	mov.w	r1, #300	; 0x12c
 8003366:	e7e8      	b.n	800333a <Translate_Resist+0x4e>
  else if(force < (ResistForce*(-1)))
 8003368:	4252      	negs	r2, r2
 800336a:	4290      	cmp	r0, r2
      direction = 1;  // forward
 800336c:	bfb4      	ite	lt
 800336e:	2201      	movlt	r2, #1
      direction = 0;  // stop
 8003370:	2200      	movge	r2, #0
 8003372:	e7ea      	b.n	800334a <Translate_Resist+0x5e>
  else if(ActuatorStatus==1)
 8003374:	2801      	cmp	r0, #1
 8003376:	d11b      	bne.n	80033b0 <Translate_Resist+0xc4>
      switch(Step)
 8003378:	2b03      	cmp	r3, #3
 800337a:	d80f      	bhi.n	800339c <Translate_Resist+0xb0>
 800337c:	a201      	add	r2, pc, #4	; (adr r2, 8003384 <Translate_Resist+0x98>)
 800337e:	f852 f023 	ldr.w	pc, [r2, r3, lsl #2]
 8003382:	bf00      	nop
 8003384:	08003355 	.word	0x08003355
 8003388:	08003395 	.word	0x08003395
 800338c:	080033a5 	.word	0x080033a5
 8003390:	080033ab 	.word	0x080033ab
      		CurrentCommand(1.1);
 8003394:	ed9f 0a23 	vldr	s0, [pc, #140]	; 8003424 <Translate_Resist+0x138>
        	//HAL_UART_Transmit(&huart5, (uint8_t *)"mcc=-0.8,-0.8\r\n", 15, 100);
        	CurrentCommand(-1.0);
        	break;
        case 3:
        	//HAL_UART_Transmit(&huart5, (uint8_t *)"mcc=-0.6,-0.6\r\n", 15, 100);
        	CurrentCommand(-0.9);
 8003398:	f7ff fb88 	bl	8002aac <CurrentCommand>
        	break;
      }
      ActuatorStatus = 3;
 800339c:	2303      	movs	r3, #3
 800339e:	7023      	strb	r3, [r4, #0]
	  CurrentCommand(CH2, 0.0);
      ActuatorStatus = 3;
    }
*/
  //printf("%d, %d, %d, %d\r\n", ActuatorStatus, stroke1, stroke2, force);
}
 80033a0:	b002      	add	sp, #8
 80033a2:	bd10      	pop	{r4, pc}
        	CurrentCommand(1.0);
 80033a4:	eeb7 0a00 	vmov.f32	s0, #112	; 0x3f800000  1.0
 80033a8:	e7f6      	b.n	8003398 <Translate_Resist+0xac>
        	CurrentCommand(0.9);
 80033aa:	ed9f 0a1f 	vldr	s0, [pc, #124]	; 8003428 <Translate_Resist+0x13c>
 80033ae:	e7f3      	b.n	8003398 <Translate_Resist+0xac>
  else if(ActuatorStatus==2)
 80033b0:	2802      	cmp	r0, #2
 80033b2:	d116      	bne.n	80033e2 <Translate_Resist+0xf6>
      switch(Step)
 80033b4:	2b03      	cmp	r3, #3
 80033b6:	d8f1      	bhi.n	800339c <Translate_Resist+0xb0>
 80033b8:	a201      	add	r2, pc, #4	; (adr r2, 80033c0 <Translate_Resist+0xd4>)
 80033ba:	f852 f023 	ldr.w	pc, [r2, r3, lsl #2]
 80033be:	bf00      	nop
 80033c0:	08003355 	.word	0x08003355
 80033c4:	080033d1 	.word	0x080033d1
 80033c8:	080033d7 	.word	0x080033d7
 80033cc:	080033dd 	.word	0x080033dd
        	CurrentCommand(-1.1);
 80033d0:	ed9f 0a16 	vldr	s0, [pc, #88]	; 800342c <Translate_Resist+0x140>
 80033d4:	e7e0      	b.n	8003398 <Translate_Resist+0xac>
        	CurrentCommand(-1.0);
 80033d6:	eebf 0a00 	vmov.f32	s0, #240	; 0xbf800000 -1.0
 80033da:	e7dd      	b.n	8003398 <Translate_Resist+0xac>
        	CurrentCommand(-0.9);
 80033dc:	ed9f 0a14 	vldr	s0, [pc, #80]	; 8003430 <Translate_Resist+0x144>
 80033e0:	e7da      	b.n	8003398 <Translate_Resist+0xac>
  else if(ActuatorStatus==3)
 80033e2:	2803      	cmp	r0, #3
 80033e4:	d1dc      	bne.n	80033a0 <Translate_Resist+0xb4>
	  if(direction==1)
 80033e6:	780b      	ldrb	r3, [r1, #0]
 80033e8:	2b01      	cmp	r3, #1
 80033ea:	d101      	bne.n	80033f0 <Translate_Resist+0x104>
		  ActuatorStatus = 2;
 80033ec:	7013      	strb	r3, [r2, #0]
}
 80033ee:	e7d7      	b.n	80033a0 <Translate_Resist+0xb4>
	  else if(direction==2)
 80033f0:	2b02      	cmp	r3, #2
 80033f2:	d1af      	bne.n	8003354 <Translate_Resist+0x68>
 80033f4:	e7fa      	b.n	80033ec <Translate_Resist+0x100>
 80033f6:	bf00      	nop
 80033f8:	20000668 	.word	0x20000668
 80033fc:	20000814 	.word	0x20000814
 8003400:	20000043 	.word	0x20000043
 8003404:	20000694 	.word	0x20000694
 8003408:	20000070 	.word	0x20000070
 800340c:	20000041 	.word	0x20000041
 8003410:	2000003c 	.word	0x2000003c
 8003414:	20000048 	.word	0x20000048
 8003418:	20000044 	.word	0x20000044
 800341c:	20000029 	.word	0x20000029
 8003420:	00000000 	.word	0x00000000
 8003424:	3f8ccccd 	.word	0x3f8ccccd
 8003428:	3f666666 	.word	0x3f666666
 800342c:	bf8ccccd 	.word	0xbf8ccccd
 8003430:	bf666666 	.word	0xbf666666

08003434 <PushOff>:

void PushOff(void)
{
 8003434:	b538      	push	{r3, r4, r5, lr}
  static uint8_t torque = 0;
    switch(Step)
 8003436:	4b16      	ldr	r3, [pc, #88]	; (8003490 <PushOff+0x5c>)
 8003438:	4c16      	ldr	r4, [pc, #88]	; (8003494 <PushOff+0x60>)
 800343a:	781b      	ldrb	r3, [r3, #0]
 800343c:	2b03      	cmp	r3, #3
 800343e:	d805      	bhi.n	800344c <PushOff+0x18>
 8003440:	e8df f003 	tbb	[pc, r3]
 8003444:	14121002 	.word	0x14121002
    {
      case 0:
	torque = RESIST_TORQUE_DEFAULT;
 8003448:	2300      	movs	r3, #0
        break;
      case 1:
	torque = RESIST_TORQUE_STEP1;
 800344a:	7023      	strb	r3, [r4, #0]
                	HAL_GPIO_WritePin(GPIOG, GPIO_PIN_9, GPIO_PIN_RESET);
                    SysStatus|=MASK_MBRK;
                }
        break;
    }
    HAL_DAC_SetValue(&hdac, DAC_CHANNEL_1, DAC_ALIGN_8B_R, torque);
 800344c:	7823      	ldrb	r3, [r4, #0]
 800344e:	4812      	ldr	r0, [pc, #72]	; (8003498 <PushOff+0x64>)
 8003450:	2208      	movs	r2, #8
 8003452:	2100      	movs	r1, #0
 8003454:	f7fd f98d 	bl	8000772 <HAL_DAC_SetValue>

    EncoderCounter = TIM2->CNT;
 8003458:	f04f 4380 	mov.w	r3, #1073741824	; 0x40000000
 800345c:	6a5a      	ldr	r2, [r3, #36]	; 0x24
 800345e:	4b0f      	ldr	r3, [pc, #60]	; (800349c <PushOff+0x68>)
 8003460:	601a      	str	r2, [r3, #0]
 8003462:	bd38      	pop	{r3, r4, r5, pc}
	torque = RESIST_TORQUE_STEP1;
 8003464:	2315      	movs	r3, #21
 8003466:	e7f0      	b.n	800344a <PushOff+0x16>
        torque = RESIST_TORQUE_STEP2;
 8003468:	232a      	movs	r3, #42	; 0x2a
 800346a:	e7ee      	b.n	800344a <PushOff+0x16>
        if(!(SysStatus&MASK_MBRK))
 800346c:	4d0c      	ldr	r5, [pc, #48]	; (80034a0 <PushOff+0x6c>)
 800346e:	782a      	ldrb	r2, [r5, #0]
        torque = RESIST_TORQUE_STEP3;
 8003470:	233f      	movs	r3, #63	; 0x3f
        if(!(SysStatus&MASK_MBRK))
 8003472:	f012 0208 	ands.w	r2, r2, #8
        torque = RESIST_TORQUE_STEP3;
 8003476:	7023      	strb	r3, [r4, #0]
        if(!(SysStatus&MASK_MBRK))
 8003478:	d1e8      	bne.n	800344c <PushOff+0x18>
                	HAL_GPIO_WritePin(GPIOG, GPIO_PIN_9, GPIO_PIN_RESET);
 800347a:	f44f 7100 	mov.w	r1, #512	; 0x200
 800347e:	4809      	ldr	r0, [pc, #36]	; (80034a4 <PushOff+0x70>)
 8003480:	f7fd fe36 	bl	80010f0 <HAL_GPIO_WritePin>
                    SysStatus|=MASK_MBRK;
 8003484:	782b      	ldrb	r3, [r5, #0]
 8003486:	f043 0308 	orr.w	r3, r3, #8
 800348a:	702b      	strb	r3, [r5, #0]
 800348c:	e7de      	b.n	800344c <PushOff+0x18>
 800348e:	bf00      	nop
 8003490:	20000041 	.word	0x20000041
 8003494:	20000058 	.word	0x20000058
 8003498:	200006e4 	.word	0x200006e4
 800349c:	20000034 	.word	0x20000034
 80034a0:	20000042 	.word	0x20000042
 80034a4:	40021800 	.word	0x40021800

080034a8 <wheel>:
}

void wheel(void)
{
 80034a8:	b538      	push	{r3, r4, r5, lr}
  static uint32_t OldPos = 0;
  static uint8_t torque = 0;

  switch(Step)
 80034aa:	4b21      	ldr	r3, [pc, #132]	; (8003530 <wheel+0x88>)
 80034ac:	4d21      	ldr	r5, [pc, #132]	; (8003534 <wheel+0x8c>)
 80034ae:	781b      	ldrb	r3, [r3, #0]
 80034b0:	4c21      	ldr	r4, [pc, #132]	; (8003538 <wheel+0x90>)
 80034b2:	2b03      	cmp	r3, #3
 80034b4:	d805      	bhi.n	80034c2 <wheel+0x1a>
 80034b6:	e8df f003 	tbb	[pc, r3]
 80034ba:	2602      	.short	0x2602
 80034bc:	2a28      	.short	0x2a28
  {
    case 0:
    	torque = RESIST_TORQUE_DEFAULT;
 80034be:	2300      	movs	r3, #0
        break;
    case 1:
        torque = RESIST_TORQUE_STEP1;
 80034c0:	702b      	strb	r3, [r5, #0]
        	HAL_GPIO_WritePin(GPIOG, GPIO_PIN_9, GPIO_PIN_RESET);
            SysStatus|=MASK_MBRK;
        }
        break;
    }
  HAL_DAC_SetValue(&hdac, DAC_CHANNEL_1, DAC_ALIGN_8B_R, torque);
 80034c2:	782b      	ldrb	r3, [r5, #0]
 80034c4:	481d      	ldr	r0, [pc, #116]	; (800353c <wheel+0x94>)
 80034c6:	2208      	movs	r2, #8
 80034c8:	2100      	movs	r1, #0
 80034ca:	f7fd f952 	bl	8000772 <HAL_DAC_SetValue>

  EncoderCounter = TIM2->CNT;
 80034ce:	f04f 4380 	mov.w	r3, #1073741824	; 0x40000000

  if(!(SysStatus&MASK_CL))
 80034d2:	7825      	ldrb	r5, [r4, #0]
  EncoderCounter = TIM2->CNT;
 80034d4:	6a5a      	ldr	r2, [r3, #36]	; 0x24
 80034d6:	4b1a      	ldr	r3, [pc, #104]	; (8003540 <wheel+0x98>)
  if(!(SysStatus&MASK_CL))
 80034d8:	f015 0510 	ands.w	r5, r5, #16
  EncoderCounter = TIM2->CNT;
 80034dc:	601a      	str	r2, [r3, #0]
  if(!(SysStatus&MASK_CL))
 80034de:	d10d      	bne.n	80034fc <wheel+0x54>
    {
	  HAL_GPIO_WritePin(GPIOG, GPIO_PIN_1, GPIO_PIN_RESET);
 80034e0:	462a      	mov	r2, r5
 80034e2:	2102      	movs	r1, #2
 80034e4:	4817      	ldr	r0, [pc, #92]	; (8003544 <wheel+0x9c>)
 80034e6:	f7fd fe03 	bl	80010f0 <HAL_GPIO_WritePin>
      HAL_GPIO_WritePin(GPIOG, GPIO_PIN_4, GPIO_PIN_RESET);
 80034ea:	462a      	mov	r2, r5
 80034ec:	2110      	movs	r1, #16
 80034ee:	4815      	ldr	r0, [pc, #84]	; (8003544 <wheel+0x9c>)
 80034f0:	f7fd fdfe 	bl	80010f0 <HAL_GPIO_WritePin>
      SysStatus|=MASK_CL;
 80034f4:	7823      	ldrb	r3, [r4, #0]
 80034f6:	f043 0310 	orr.w	r3, r3, #16
 80034fa:	7023      	strb	r3, [r4, #0]
    }
  HAL_Delay(2);
 80034fc:	2002      	movs	r0, #2
  //printf("%d %d %d\r\n", EncoderCounter, OldPos, (EncoderCounter-OldPos));
  OldPos = EncoderCounter;
}
 80034fe:	e8bd 4038 	ldmia.w	sp!, {r3, r4, r5, lr}
  HAL_Delay(2);
 8003502:	f7fd b84b 	b.w	800059c <HAL_Delay>
        torque = RESIST_TORQUE_STEP1;
 8003506:	2315      	movs	r3, #21
 8003508:	e7da      	b.n	80034c0 <wheel+0x18>
        torque = RESIST_TORQUE_STEP2;
 800350a:	232a      	movs	r3, #42	; 0x2a
 800350c:	e7d8      	b.n	80034c0 <wheel+0x18>
        if(!(SysStatus&MASK_MBRK))
 800350e:	7822      	ldrb	r2, [r4, #0]
        torque = RESIST_TORQUE_STEP3;
 8003510:	233f      	movs	r3, #63	; 0x3f
        if(!(SysStatus&MASK_MBRK))
 8003512:	f012 0208 	ands.w	r2, r2, #8
        torque = RESIST_TORQUE_STEP3;
 8003516:	702b      	strb	r3, [r5, #0]
        if(!(SysStatus&MASK_MBRK))
 8003518:	d1d3      	bne.n	80034c2 <wheel+0x1a>
        	HAL_GPIO_WritePin(GPIOG, GPIO_PIN_9, GPIO_PIN_RESET);
 800351a:	f44f 7100 	mov.w	r1, #512	; 0x200
 800351e:	4809      	ldr	r0, [pc, #36]	; (8003544 <wheel+0x9c>)
 8003520:	f7fd fde6 	bl	80010f0 <HAL_GPIO_WritePin>
            SysStatus|=MASK_MBRK;
 8003524:	7823      	ldrb	r3, [r4, #0]
 8003526:	f043 0308 	orr.w	r3, r3, #8
 800352a:	7023      	strb	r3, [r4, #0]
 800352c:	e7c9      	b.n	80034c2 <wheel+0x1a>
 800352e:	bf00      	nop
 8003530:	20000041 	.word	0x20000041
 8003534:	20000059 	.word	0x20000059
 8003538:	20000042 	.word	0x20000042
 800353c:	200006e4 	.word	0x200006e4
 8003540:	20000034 	.word	0x20000034
 8003544:	40021800 	.word	0x40021800

08003548 <Adjust_Height_Up>:

void Adjust_Height_Up(void)
{
 8003548:	b510      	push	{r4, lr}
  HAL_TIM_OC_Start(&htim1, TIM_CHANNEL_1);
 800354a:	4c14      	ldr	r4, [pc, #80]	; (800359c <Adjust_Height_Up+0x54>)
 800354c:	2100      	movs	r1, #0
 800354e:	4620      	mov	r0, r4
 8003550:	f7fe fbf2 	bl	8001d38 <HAL_TIM_OC_Start>
  HAL_TIM_OC_Start(&htim1, TIM_CHANNEL_2);
 8003554:	2104      	movs	r1, #4
 8003556:	4620      	mov	r0, r4
 8003558:	f7fe fbee 	bl	8001d38 <HAL_TIM_OC_Start>
  HAL_TIM_OC_Start(&htim1, TIM_CHANNEL_3);
 800355c:	2108      	movs	r1, #8
 800355e:	4620      	mov	r0, r4
 8003560:	f7fe fbea 	bl	8001d38 <HAL_TIM_OC_Start>
  HAL_TIM_OC_Start(&htim1, TIM_CHANNEL_4);
 8003564:	210c      	movs	r1, #12
 8003566:	4620      	mov	r0, r4
 8003568:	f7fe fbe6 	bl	8001d38 <HAL_TIM_OC_Start>
  HAL_Delay(1);
 800356c:	2001      	movs	r0, #1
 800356e:	f7fd f815 	bl	800059c <HAL_Delay>
  HAL_TIM_OC_Stop(&htim1, TIM_CHANNEL_1);
 8003572:	2100      	movs	r1, #0
 8003574:	4620      	mov	r0, r4
 8003576:	f7fe fb91 	bl	8001c9c <HAL_TIM_OC_Stop>
  HAL_TIM_OC_Stop(&htim1, TIM_CHANNEL_2);
 800357a:	2104      	movs	r1, #4
 800357c:	4620      	mov	r0, r4
 800357e:	f7fe fb8d 	bl	8001c9c <HAL_TIM_OC_Stop>
  HAL_TIM_OC_Stop(&htim1, TIM_CHANNEL_3);
 8003582:	2108      	movs	r1, #8
 8003584:	4620      	mov	r0, r4
 8003586:	f7fe fb89 	bl	8001c9c <HAL_TIM_OC_Stop>
  HAL_TIM_OC_Stop(&htim1, TIM_CHANNEL_4);
 800358a:	4620      	mov	r0, r4
 800358c:	210c      	movs	r1, #12
 800358e:	f7fe fb85 	bl	8001c9c <HAL_TIM_OC_Stop>
  HAL_Delay(1);
 8003592:	2001      	movs	r0, #1
}
 8003594:	e8bd 4010 	ldmia.w	sp!, {r4, lr}
  HAL_Delay(1);
 8003598:	f7fd b800 	b.w	800059c <HAL_Delay>
 800359c:	200006fc 	.word	0x200006fc

080035a0 <CheckMode>:
  Step = ModStatus&MASK_STEP;
 80035a0:	4b12      	ldr	r3, [pc, #72]	; (80035ec <CheckMode+0x4c>)
 80035a2:	4a13      	ldr	r2, [pc, #76]	; (80035f0 <CheckMode+0x50>)
 80035a4:	781b      	ldrb	r3, [r3, #0]
 80035a6:	f003 0103 	and.w	r1, r3, #3
  if(ModStatus&MASK_ROTATE)
 80035aa:	0618      	lsls	r0, r3, #24
  Step = ModStatus&MASK_STEP;
 80035ac:	7011      	strb	r1, [r2, #0]
  if(ModStatus&MASK_ROTATE)
 80035ae:	d505      	bpl.n	80035bc <CheckMode+0x1c>
      if(ModStatus&MASK_ASSIST)
 80035b0:	0759      	lsls	r1, r3, #29
 80035b2:	d501      	bpl.n	80035b8 <CheckMode+0x18>
    	  Rotate_Assist();
 80035b4:	f7ff bd0c 	b.w	8002fd0 <Rotate_Assist>
    	  Rotate_Resist();
 80035b8:	f7ff bd7a 	b.w	80030b0 <Rotate_Resist>
  else if(ModStatus&MASK_TRANSLATE)
 80035bc:	065a      	lsls	r2, r3, #25
 80035be:	d505      	bpl.n	80035cc <CheckMode+0x2c>
      if(ModStatus&MASK_ASSIST)
 80035c0:	0758      	lsls	r0, r3, #29
 80035c2:	d501      	bpl.n	80035c8 <CheckMode+0x28>
      	  Translate_Assist();
 80035c4:	f7ff bdc8 	b.w	8003158 <Translate_Assist>
      	  Translate_Resist();
 80035c8:	f7ff be90 	b.w	80032ec <Translate_Resist>
  else if(ModStatus&MASK_PUSHOFF)
 80035cc:	0699      	lsls	r1, r3, #26
 80035ce:	d501      	bpl.n	80035d4 <CheckMode+0x34>
      PushOff();
 80035d0:	f7ff bf30 	b.w	8003434 <PushOff>
  else if(ModStatus&MASK_WHEEL)
 80035d4:	06da      	lsls	r2, r3, #27
 80035d6:	d501      	bpl.n	80035dc <CheckMode+0x3c>
      wheel();
 80035d8:	f7ff bf66 	b.w	80034a8 <wheel>
      if(ModStatus&MASK_ASSIST)
 80035dc:	f003 030c 	and.w	r3, r3, #12
 80035e0:	2b0c      	cmp	r3, #12
 80035e2:	d101      	bne.n	80035e8 <CheckMode+0x48>
    	  Adjust_Height_Up();
 80035e4:	f7ff bfb0 	b.w	8003548 <Adjust_Height_Up>
 80035e8:	4770      	bx	lr
 80035ea:	bf00      	nop
 80035ec:	20000038 	.word	0x20000038
 80035f0:	20000041 	.word	0x20000041

080035f4 <main>:
{
 80035f4:	e92d 4880 	stmdb	sp!, {r7, fp, lr}
 80035f8:	b0a3      	sub	sp, #140	; 0x8c
  GPIO_InitTypeDef GPIO_InitStruct = {0};
 80035fa:	ae19      	add	r6, sp, #100	; 0x64
  __HAL_RCC_GPIOC_CLK_ENABLE();
 80035fc:	2400      	movs	r4, #0
 80035fe:	4dbd      	ldr	r5, [pc, #756]	; (80038f4 <main+0x300>)
  GPIO_InitStruct.Mode = GPIO_MODE_IT_RISING;
 8003600:	f8df 8328 	ldr.w	r8, [pc, #808]	; 800392c <main+0x338>
  HAL_Init();
 8003604:	f7fc ff9e 	bl	8000544 <HAL_Init>
  SystemClock_Config();
 8003608:	f7ff fb12 	bl	8002c30 <SystemClock_Config>
  GPIO_InitTypeDef GPIO_InitStruct = {0};
 800360c:	2214      	movs	r2, #20
 800360e:	2100      	movs	r1, #0
 8003610:	4630      	mov	r0, r6
 8003612:	f000 fe31 	bl	8004278 <memset>
  __HAL_RCC_GPIOC_CLK_ENABLE();
 8003616:	9404      	str	r4, [sp, #16]
 8003618:	6b2b      	ldr	r3, [r5, #48]	; 0x30
  HAL_GPIO_WritePin(GPIOG, GPIO_PIN_1|GPIO_PIN_2|GPIO_PIN_3|GPIO_PIN_4 
 800361a:	48b7      	ldr	r0, [pc, #732]	; (80038f8 <main+0x304>)
  __HAL_RCC_GPIOC_CLK_ENABLE();
 800361c:	f043 0304 	orr.w	r3, r3, #4
 8003620:	632b      	str	r3, [r5, #48]	; 0x30
 8003622:	6b2b      	ldr	r3, [r5, #48]	; 0x30
 8003624:	f003 0304 	and.w	r3, r3, #4
 8003628:	9304      	str	r3, [sp, #16]
 800362a:	9b04      	ldr	r3, [sp, #16]
  __HAL_RCC_GPIOF_CLK_ENABLE();
 800362c:	9405      	str	r4, [sp, #20]
 800362e:	6b2b      	ldr	r3, [r5, #48]	; 0x30
 8003630:	f043 0320 	orr.w	r3, r3, #32
 8003634:	632b      	str	r3, [r5, #48]	; 0x30
 8003636:	6b2b      	ldr	r3, [r5, #48]	; 0x30
 8003638:	f003 0320 	and.w	r3, r3, #32
 800363c:	9305      	str	r3, [sp, #20]
 800363e:	9b05      	ldr	r3, [sp, #20]
  __HAL_RCC_GPIOH_CLK_ENABLE();
 8003640:	9406      	str	r4, [sp, #24]
 8003642:	6b2b      	ldr	r3, [r5, #48]	; 0x30
 8003644:	f043 0380 	orr.w	r3, r3, #128	; 0x80
 8003648:	632b      	str	r3, [r5, #48]	; 0x30
 800364a:	6b2b      	ldr	r3, [r5, #48]	; 0x30
 800364c:	f003 0380 	and.w	r3, r3, #128	; 0x80
 8003650:	9306      	str	r3, [sp, #24]
 8003652:	9b06      	ldr	r3, [sp, #24]
  __HAL_RCC_GPIOA_CLK_ENABLE();
 8003654:	9407      	str	r4, [sp, #28]
 8003656:	6b2b      	ldr	r3, [r5, #48]	; 0x30
 8003658:	f043 0301 	orr.w	r3, r3, #1
 800365c:	632b      	str	r3, [r5, #48]	; 0x30
 800365e:	6b2b      	ldr	r3, [r5, #48]	; 0x30
 8003660:	f003 0301 	and.w	r3, r3, #1
 8003664:	9307      	str	r3, [sp, #28]
 8003666:	9b07      	ldr	r3, [sp, #28]
  __HAL_RCC_GPIOG_CLK_ENABLE();
 8003668:	9408      	str	r4, [sp, #32]
 800366a:	6b2b      	ldr	r3, [r5, #48]	; 0x30
 800366c:	f043 0340 	orr.w	r3, r3, #64	; 0x40
 8003670:	632b      	str	r3, [r5, #48]	; 0x30
 8003672:	6b2b      	ldr	r3, [r5, #48]	; 0x30
 8003674:	f003 0340 	and.w	r3, r3, #64	; 0x40
 8003678:	9308      	str	r3, [sp, #32]
 800367a:	9b08      	ldr	r3, [sp, #32]
  __HAL_RCC_GPIOE_CLK_ENABLE();
 800367c:	9409      	str	r4, [sp, #36]	; 0x24
 800367e:	6b2b      	ldr	r3, [r5, #48]	; 0x30
 8003680:	f043 0310 	orr.w	r3, r3, #16
 8003684:	632b      	str	r3, [r5, #48]	; 0x30
 8003686:	6b2b      	ldr	r3, [r5, #48]	; 0x30
 8003688:	f003 0310 	and.w	r3, r3, #16
 800368c:	9309      	str	r3, [sp, #36]	; 0x24
 800368e:	9b09      	ldr	r3, [sp, #36]	; 0x24
  __HAL_RCC_GPIOB_CLK_ENABLE();
 8003690:	940a      	str	r4, [sp, #40]	; 0x28
 8003692:	6b2b      	ldr	r3, [r5, #48]	; 0x30
 8003694:	f043 0302 	orr.w	r3, r3, #2
 8003698:	632b      	str	r3, [r5, #48]	; 0x30
 800369a:	6b2b      	ldr	r3, [r5, #48]	; 0x30
 800369c:	f003 0302 	and.w	r3, r3, #2
 80036a0:	930a      	str	r3, [sp, #40]	; 0x28
 80036a2:	9b0a      	ldr	r3, [sp, #40]	; 0x28
  __HAL_RCC_GPIOD_CLK_ENABLE();
 80036a4:	940b      	str	r4, [sp, #44]	; 0x2c
 80036a6:	6b2b      	ldr	r3, [r5, #48]	; 0x30
 80036a8:	f043 0308 	orr.w	r3, r3, #8
 80036ac:	632b      	str	r3, [r5, #48]	; 0x30
 80036ae:	6b2b      	ldr	r3, [r5, #48]	; 0x30
 80036b0:	f003 0308 	and.w	r3, r3, #8
 80036b4:	930b      	str	r3, [sp, #44]	; 0x2c
  HAL_GPIO_WritePin(GPIOG, GPIO_PIN_1|GPIO_PIN_2|GPIO_PIN_3|GPIO_PIN_4 
 80036b6:	2201      	movs	r2, #1
 80036b8:	f240 211e 	movw	r1, #542	; 0x21e
  __HAL_RCC_GPIOD_CLK_ENABLE();
 80036bc:	9b0b      	ldr	r3, [sp, #44]	; 0x2c
  HAL_GPIO_WritePin(GPIOG, GPIO_PIN_1|GPIO_PIN_2|GPIO_PIN_3|GPIO_PIN_4 
 80036be:	f7fd fd17 	bl	80010f0 <HAL_GPIO_WritePin>
  HAL_GPIO_WritePin(GPIOB, LD3_Pin|LD2_Pin, GPIO_PIN_RESET);
 80036c2:	4622      	mov	r2, r4
 80036c4:	f44f 4181 	mov.w	r1, #16512	; 0x4080
 80036c8:	488c      	ldr	r0, [pc, #560]	; (80038fc <main+0x308>)
 80036ca:	f7fd fd11 	bl	80010f0 <HAL_GPIO_WritePin>
  HAL_GPIO_WritePin(USB_PowerSwitchOn_GPIO_Port, USB_PowerSwitchOn_Pin, GPIO_PIN_RESET);
 80036ce:	4622      	mov	r2, r4
 80036d0:	2140      	movs	r1, #64	; 0x40
 80036d2:	4889      	ldr	r0, [pc, #548]	; (80038f8 <main+0x304>)
 80036d4:	f7fd fd0c 	bl	80010f0 <HAL_GPIO_WritePin>
  HAL_GPIO_WritePin(LD1_GPIO_Port, LD1_Pin, GPIO_PIN_RESET);
 80036d8:	4622      	mov	r2, r4
 80036da:	f44f 7100 	mov.w	r1, #512	; 0x200
 80036de:	4888      	ldr	r0, [pc, #544]	; (8003900 <main+0x30c>)
 80036e0:	f7fd fd06 	bl	80010f0 <HAL_GPIO_WritePin>
  GPIO_InitStruct.Pin = USER_Btn_Pin;
 80036e4:	f44f 5300 	mov.w	r3, #8192	; 0x2000
  HAL_GPIO_Init(USER_Btn_GPIO_Port, &GPIO_InitStruct);
 80036e8:	4631      	mov	r1, r6
 80036ea:	4885      	ldr	r0, [pc, #532]	; (8003900 <main+0x30c>)
  GPIO_InitStruct.Pin = USER_Btn_Pin;
 80036ec:	9319      	str	r3, [sp, #100]	; 0x64
  GPIO_InitStruct.Pin = GPIO_PIN_0;
 80036ee:	2701      	movs	r7, #1
  GPIO_InitStruct.Pull = GPIO_PULLDOWN;
 80036f0:	f04f 0a02 	mov.w	sl, #2
  GPIO_InitStruct.Mode = GPIO_MODE_IT_RISING;
 80036f4:	f8cd 8068 	str.w	r8, [sp, #104]	; 0x68
  GPIO_InitStruct.Pull = GPIO_NOPULL;
 80036f8:	941b      	str	r4, [sp, #108]	; 0x6c
  HAL_GPIO_Init(USER_Btn_GPIO_Port, &GPIO_InitStruct);
 80036fa:	f7fd fc07 	bl	8000f0c <HAL_GPIO_Init>
  HAL_GPIO_Init(GPIOF, &GPIO_InitStruct);
 80036fe:	4631      	mov	r1, r6
 8003700:	4880      	ldr	r0, [pc, #512]	; (8003904 <main+0x310>)
  GPIO_InitStruct.Pin = GPIO_PIN_0;
 8003702:	9719      	str	r7, [sp, #100]	; 0x64
  GPIO_InitStruct.Mode = GPIO_MODE_IT_RISING;
 8003704:	f8cd 8068 	str.w	r8, [sp, #104]	; 0x68
  GPIO_InitStruct.Pull = GPIO_PULLDOWN;
 8003708:	f8cd a06c 	str.w	sl, [sp, #108]	; 0x6c
  HAL_GPIO_Init(GPIOF, &GPIO_InitStruct);
 800370c:	f7fd fbfe 	bl	8000f0c <HAL_GPIO_Init>
  GPIO_InitStruct.Pin = GPIO_PIN_6;
 8003710:	2340      	movs	r3, #64	; 0x40
  HAL_GPIO_Init(GPIOA, &GPIO_InitStruct);
 8003712:	4631      	mov	r1, r6
 8003714:	487c      	ldr	r0, [pc, #496]	; (8003908 <main+0x314>)
  GPIO_InitStruct.Pin = GPIO_PIN_6;
 8003716:	9319      	str	r3, [sp, #100]	; 0x64
  GPIO_InitStruct.Mode = GPIO_MODE_INPUT;
 8003718:	941a      	str	r4, [sp, #104]	; 0x68
  GPIO_InitStruct.Pull = GPIO_PULLUP;
 800371a:	971b      	str	r7, [sp, #108]	; 0x6c
  HAL_GPIO_Init(GPIOA, &GPIO_InitStruct);
 800371c:	f7fd fbf6 	bl	8000f0c <HAL_GPIO_Init>
  GPIO_InitStruct.Pin = GPIO_PIN_1|GPIO_PIN_2|GPIO_PIN_3|GPIO_PIN_4 
 8003720:	f240 235e 	movw	r3, #606	; 0x25e
  HAL_GPIO_Init(GPIOG, &GPIO_InitStruct);
 8003724:	4631      	mov	r1, r6
 8003726:	4874      	ldr	r0, [pc, #464]	; (80038f8 <main+0x304>)
  GPIO_InitStruct.Pin = GPIO_PIN_1|GPIO_PIN_2|GPIO_PIN_3|GPIO_PIN_4 
 8003728:	9319      	str	r3, [sp, #100]	; 0x64
  GPIO_InitStruct.Mode = GPIO_MODE_OUTPUT_PP;
 800372a:	971a      	str	r7, [sp, #104]	; 0x68
  GPIO_InitStruct.Pull = GPIO_NOPULL;
 800372c:	941b      	str	r4, [sp, #108]	; 0x6c
  GPIO_InitStruct.Speed = GPIO_SPEED_FREQ_LOW;
 800372e:	941c      	str	r4, [sp, #112]	; 0x70
  HAL_GPIO_Init(GPIOG, &GPIO_InitStruct);
 8003730:	f7fd fbec 	bl	8000f0c <HAL_GPIO_Init>
  GPIO_InitStruct.Pin = LD3_Pin|LD2_Pin;
 8003734:	f44f 4381 	mov.w	r3, #16512	; 0x4080
  HAL_GPIO_Init(GPIOB, &GPIO_InitStruct);
 8003738:	4631      	mov	r1, r6
 800373a:	4870      	ldr	r0, [pc, #448]	; (80038fc <main+0x308>)
  GPIO_InitStruct.Pin = LD3_Pin|LD2_Pin;
 800373c:	9319      	str	r3, [sp, #100]	; 0x64
  GPIO_InitStruct.Pin = USB_OverCurrent_Pin;
 800373e:	f04f 0880 	mov.w	r8, #128	; 0x80
  GPIO_InitStruct.Mode = GPIO_MODE_OUTPUT_PP;
 8003742:	971a      	str	r7, [sp, #104]	; 0x68
  GPIO_InitStruct.Pull = GPIO_NOPULL;
 8003744:	941b      	str	r4, [sp, #108]	; 0x6c
  GPIO_InitStruct.Speed = GPIO_SPEED_FREQ_LOW;
 8003746:	941c      	str	r4, [sp, #112]	; 0x70
  HAL_GPIO_Init(GPIOB, &GPIO_InitStruct);
 8003748:	f7fd fbe0 	bl	8000f0c <HAL_GPIO_Init>
  HAL_GPIO_Init(USB_OverCurrent_GPIO_Port, &GPIO_InitStruct);
 800374c:	4631      	mov	r1, r6
 800374e:	486a      	ldr	r0, [pc, #424]	; (80038f8 <main+0x304>)
  GPIO_InitStruct.Pin = USB_OverCurrent_Pin;
 8003750:	f8cd 8064 	str.w	r8, [sp, #100]	; 0x64
  GPIO_InitStruct.Mode = GPIO_MODE_INPUT;
 8003754:	941a      	str	r4, [sp, #104]	; 0x68
  GPIO_InitStruct.Pull = GPIO_NOPULL;
 8003756:	941b      	str	r4, [sp, #108]	; 0x6c
  HAL_GPIO_Init(USB_OverCurrent_GPIO_Port, &GPIO_InitStruct);
 8003758:	f7fd fbd8 	bl	8000f0c <HAL_GPIO_Init>
  GPIO_InitStruct.Pin = LD1_Pin;
 800375c:	f44f 7300 	mov.w	r3, #512	; 0x200
  HAL_GPIO_Init(LD1_GPIO_Port, &GPIO_InitStruct);
 8003760:	4631      	mov	r1, r6
 8003762:	4867      	ldr	r0, [pc, #412]	; (8003900 <main+0x30c>)
  GPIO_InitStruct.Pin = LD1_Pin;
 8003764:	9319      	str	r3, [sp, #100]	; 0x64
  GPIO_InitStruct.Mode = GPIO_MODE_OUTPUT_PP;
 8003766:	971a      	str	r7, [sp, #104]	; 0x68
  GPIO_InitStruct.Pull = GPIO_NOPULL;
 8003768:	941b      	str	r4, [sp, #108]	; 0x6c
  GPIO_InitStruct.Speed = GPIO_SPEED_FREQ_LOW;
 800376a:	941c      	str	r4, [sp, #112]	; 0x70
  HAL_GPIO_Init(LD1_GPIO_Port, &GPIO_InitStruct);
 800376c:	f7fd fbce 	bl	8000f0c <HAL_GPIO_Init>
  __HAL_RCC_DMA1_CLK_ENABLE();
 8003770:	9402      	str	r4, [sp, #8]
 8003772:	6b2b      	ldr	r3, [r5, #48]	; 0x30
 8003774:	f443 1300 	orr.w	r3, r3, #2097152	; 0x200000
 8003778:	632b      	str	r3, [r5, #48]	; 0x30
 800377a:	6b2b      	ldr	r3, [r5, #48]	; 0x30
 800377c:	f403 1300 	and.w	r3, r3, #2097152	; 0x200000
 8003780:	9302      	str	r3, [sp, #8]
 8003782:	9b02      	ldr	r3, [sp, #8]
  __HAL_RCC_DMA2_CLK_ENABLE();
 8003784:	9403      	str	r4, [sp, #12]
 8003786:	6b2b      	ldr	r3, [r5, #48]	; 0x30
 8003788:	f443 0380 	orr.w	r3, r3, #4194304	; 0x400000
 800378c:	632b      	str	r3, [r5, #48]	; 0x30
 800378e:	6b2b      	ldr	r3, [r5, #48]	; 0x30
  hdac.Instance = DAC;
 8003790:	4d5e      	ldr	r5, [pc, #376]	; (800390c <main+0x318>)
  __HAL_RCC_DMA2_CLK_ENABLE();
 8003792:	f403 0380 	and.w	r3, r3, #4194304	; 0x400000
  HAL_NVIC_SetPriority(DMA1_Stream0_IRQn, 0, 0);
 8003796:	4622      	mov	r2, r4
 8003798:	4621      	mov	r1, r4
  __HAL_RCC_DMA2_CLK_ENABLE();
 800379a:	9303      	str	r3, [sp, #12]
  HAL_NVIC_SetPriority(DMA1_Stream0_IRQn, 0, 0);
 800379c:	200b      	movs	r0, #11
  __HAL_RCC_DMA2_CLK_ENABLE();
 800379e:	9b03      	ldr	r3, [sp, #12]
  HAL_NVIC_SetPriority(DMA1_Stream0_IRQn, 0, 0);
 80037a0:	f7fc ff22 	bl	80005e8 <HAL_NVIC_SetPriority>
  HAL_NVIC_EnableIRQ(DMA1_Stream0_IRQn);
 80037a4:	200b      	movs	r0, #11
 80037a6:	f7fc ff53 	bl	8000650 <HAL_NVIC_EnableIRQ>
  HAL_NVIC_SetPriority(DMA1_Stream1_IRQn, 0, 0);
 80037aa:	4622      	mov	r2, r4
 80037ac:	4621      	mov	r1, r4
 80037ae:	200c      	movs	r0, #12
 80037b0:	f7fc ff1a 	bl	80005e8 <HAL_NVIC_SetPriority>
  HAL_NVIC_EnableIRQ(DMA1_Stream1_IRQn);
 80037b4:	200c      	movs	r0, #12
 80037b6:	f7fc ff4b 	bl	8000650 <HAL_NVIC_EnableIRQ>
  HAL_NVIC_SetPriority(DMA1_Stream2_IRQn, 0, 0);
 80037ba:	4622      	mov	r2, r4
 80037bc:	4621      	mov	r1, r4
 80037be:	200d      	movs	r0, #13
 80037c0:	f7fc ff12 	bl	80005e8 <HAL_NVIC_SetPriority>
  HAL_NVIC_EnableIRQ(DMA1_Stream2_IRQn);
 80037c4:	200d      	movs	r0, #13
 80037c6:	f7fc ff43 	bl	8000650 <HAL_NVIC_EnableIRQ>
  HAL_NVIC_SetPriority(DMA1_Stream5_IRQn, 0, 0);
 80037ca:	4622      	mov	r2, r4
 80037cc:	4621      	mov	r1, r4
 80037ce:	2010      	movs	r0, #16
 80037d0:	f7fc ff0a 	bl	80005e8 <HAL_NVIC_SetPriority>
  HAL_NVIC_EnableIRQ(DMA1_Stream5_IRQn);
 80037d4:	2010      	movs	r0, #16
 80037d6:	f7fc ff3b 	bl	8000650 <HAL_NVIC_EnableIRQ>
  HAL_NVIC_SetPriority(DMA2_Stream1_IRQn, 0, 0);
 80037da:	4621      	mov	r1, r4
 80037dc:	4622      	mov	r2, r4
 80037de:	2039      	movs	r0, #57	; 0x39
 80037e0:	f7fc ff02 	bl	80005e8 <HAL_NVIC_SetPriority>
  HAL_NVIC_EnableIRQ(DMA2_Stream1_IRQn);
 80037e4:	2039      	movs	r0, #57	; 0x39
 80037e6:	f7fc ff33 	bl	8000650 <HAL_NVIC_EnableIRQ>
  heth.Instance = ETH;
 80037ea:	4849      	ldr	r0, [pc, #292]	; (8003910 <main+0x31c>)
 80037ec:	4b49      	ldr	r3, [pc, #292]	; (8003914 <main+0x320>)
  MACAddr[1] = 0x80;
 80037ee:	f88d 8065 	strb.w	r8, [sp, #101]	; 0x65
  heth.Init.AutoNegotiation = ETH_AUTONEGOTIATION_ENABLE;
 80037f2:	e880 0088 	stmia.w	r0, {r3, r7}
  MACAddr[2] = 0xE1;
 80037f6:	23e1      	movs	r3, #225	; 0xe1
  huart3.Instance = USART3;
 80037f8:	f8df 8134 	ldr.w	r8, [pc, #308]	; 8003930 <main+0x33c>
  MACAddr[2] = 0xE1;
 80037fc:	f88d 3066 	strb.w	r3, [sp, #102]	; 0x66
  heth.Init.MediaInterface = ETH_MEDIA_INTERFACE_RMII;
 8003800:	f44f 0300 	mov.w	r3, #8388608	; 0x800000
  heth.Init.PhyAddress = LAN8742A_PHY_ADDRESS;
 8003804:	8204      	strh	r4, [r0, #16]
  MACAddr[0] = 0x00;
 8003806:	f88d 4064 	strb.w	r4, [sp, #100]	; 0x64
  MACAddr[3] = 0x00;
 800380a:	f88d 4067 	strb.w	r4, [sp, #103]	; 0x67
  MACAddr[4] = 0x00;
 800380e:	f88d 4068 	strb.w	r4, [sp, #104]	; 0x68
  MACAddr[5] = 0x00;
 8003812:	f88d 4069 	strb.w	r4, [sp, #105]	; 0x69
  heth.Init.MACAddr = &MACAddr[0];
 8003816:	6146      	str	r6, [r0, #20]
  heth.Init.RxMode = ETH_RXPOLLING_MODE;
 8003818:	6184      	str	r4, [r0, #24]
  heth.Init.ChecksumMode = ETH_CHECKSUM_BY_HARDWARE;
 800381a:	61c4      	str	r4, [r0, #28]
  heth.Init.MediaInterface = ETH_MEDIA_INTERFACE_RMII;
 800381c:	6203      	str	r3, [r0, #32]
  if (HAL_ETH_Init(&heth) != HAL_OK)
 800381e:	f7fd fa79 	bl	8000d14 <HAL_ETH_Init>
  huart3.Instance = USART3;
 8003822:	4b3d      	ldr	r3, [pc, #244]	; (8003918 <main+0x324>)
 8003824:	f8c8 3000 	str.w	r3, [r8]
  huart3.Init.Mode = UART_MODE_TX_RX;
 8003828:	f04f 090c 	mov.w	r9, #12
  huart3.Init.BaudRate = 115200;
 800382c:	f44f 33e1 	mov.w	r3, #115200	; 0x1c200
  if (HAL_UART_Init(&huart3) != HAL_OK)
 8003830:	4640      	mov	r0, r8
  huart3.Init.BaudRate = 115200;
 8003832:	f8c8 3004 	str.w	r3, [r8, #4]
 8003836:	9300      	str	r3, [sp, #0]
  huart3.Init.WordLength = UART_WORDLENGTH_8B;
 8003838:	f8c8 4008 	str.w	r4, [r8, #8]
  huart3.Init.StopBits = UART_STOPBITS_1;
 800383c:	f8c8 400c 	str.w	r4, [r8, #12]
  huart3.Init.Parity = UART_PARITY_NONE;
 8003840:	f8c8 4010 	str.w	r4, [r8, #16]
  huart3.Init.HwFlowCtl = UART_HWCONTROL_NONE;
 8003844:	f8c8 4018 	str.w	r4, [r8, #24]
  huart3.Init.OverSampling = UART_OVERSAMPLING_16;
 8003848:	f8c8 401c 	str.w	r4, [r8, #28]
  huart3.Init.Mode = UART_MODE_TX_RX;
 800384c:	f8c8 9014 	str.w	r9, [r8, #20]
  if (HAL_UART_Init(&huart3) != HAL_OK)
 8003850:	f7fe fc08 	bl	8002064 <HAL_UART_Init>
  hpcd_USB_OTG_FS.Instance = USB_OTG_FS;
 8003854:	4831      	ldr	r0, [pc, #196]	; (800391c <main+0x328>)
  hpcd_USB_OTG_FS.Init.dev_endpoints = 4;
 8003856:	f04f 42a0 	mov.w	r2, #1342177280	; 0x50000000
 800385a:	f04f 0b04 	mov.w	fp, #4
 800385e:	e880 0804 	stmia.w	r0, {r2, fp}
  hpcd_USB_OTG_FS.Init.speed = PCD_SPEED_FULL;
 8003862:	f8c0 a00c 	str.w	sl, [r0, #12]
  hpcd_USB_OTG_FS.Init.dma_enable = DISABLE;
 8003866:	6104      	str	r4, [r0, #16]
  hpcd_USB_OTG_FS.Init.phy_itface = PCD_PHY_EMBEDDED;
 8003868:	f8c0 a018 	str.w	sl, [r0, #24]
  hpcd_USB_OTG_FS.Init.Sof_enable = ENABLE;
 800386c:	61c7      	str	r7, [r0, #28]
  hpcd_USB_OTG_FS.Init.low_power_enable = DISABLE;
 800386e:	6204      	str	r4, [r0, #32]
  hpcd_USB_OTG_FS.Init.lpm_enable = DISABLE;
 8003870:	6244      	str	r4, [r0, #36]	; 0x24
  hpcd_USB_OTG_FS.Init.vbus_sensing_enable = ENABLE;
 8003872:	62c7      	str	r7, [r0, #44]	; 0x2c
  hpcd_USB_OTG_FS.Init.use_dedicated_ep1 = DISABLE;
 8003874:	6304      	str	r4, [r0, #48]	; 0x30
  if (HAL_PCD_Init(&hpcd_USB_OTG_FS) != HAL_OK)
 8003876:	f7fd fc4d 	bl	8001114 <HAL_PCD_Init>
  hdac.Instance = DAC;
 800387a:	4a29      	ldr	r2, [pc, #164]	; (8003920 <main+0x32c>)
  DAC_ChannelConfTypeDef sConfig = {0};
 800387c:	6074      	str	r4, [r6, #4]
  if (HAL_DAC_Init(&hdac) != HAL_OK)
 800387e:	4628      	mov	r0, r5
  hdac.Instance = DAC;
 8003880:	602a      	str	r2, [r5, #0]
  DAC_ChannelConfTypeDef sConfig = {0};
 8003882:	9419      	str	r4, [sp, #100]	; 0x64
  if (HAL_DAC_Init(&hdac) != HAL_OK)
 8003884:	f7fc ff08 	bl	8000698 <HAL_DAC_Init>
  if (HAL_DAC_ConfigChannel(&hdac, &sConfig, DAC_CHANNEL_1) != HAL_OK)
 8003888:	4622      	mov	r2, r4
 800388a:	4631      	mov	r1, r6
 800388c:	4628      	mov	r0, r5
  sConfig.DAC_Trigger = DAC_TRIGGER_NONE;
 800388e:	9419      	str	r4, [sp, #100]	; 0x64
  sConfig.DAC_OutputBuffer = DAC_OUTPUTBUFFER_ENABLE;
 8003890:	941a      	str	r4, [sp, #104]	; 0x68
  if (HAL_DAC_ConfigChannel(&hdac, &sConfig, DAC_CHANNEL_1) != HAL_OK)
 8003892:	f7fc ff4e 	bl	8000732 <HAL_DAC_ConfigChannel>
  TIM_ClockConfigTypeDef sClockSourceConfig = {0};
 8003896:	4621      	mov	r1, r4
 8003898:	2210      	movs	r2, #16
 800389a:	a80e      	add	r0, sp, #56	; 0x38
 800389c:	f000 fcec 	bl	8004278 <memset>
  TIM_OC_InitTypeDef sConfigOC = {0};
 80038a0:	4621      	mov	r1, r4
 80038a2:	221c      	movs	r2, #28
 80038a4:	a812      	add	r0, sp, #72	; 0x48
  htim1.Instance = TIM1;
 80038a6:	4d1f      	ldr	r5, [pc, #124]	; (8003924 <main+0x330>)
  TIM_MasterConfigTypeDef sMasterConfig = {0};
 80038a8:	940c      	str	r4, [sp, #48]	; 0x30
 80038aa:	940d      	str	r4, [sp, #52]	; 0x34
  TIM_OC_InitTypeDef sConfigOC = {0};
 80038ac:	f000 fce4 	bl	8004278 <memset>
  TIM_BreakDeadTimeConfigTypeDef sBreakDeadTimeConfig = {0};
 80038b0:	4621      	mov	r1, r4
 80038b2:	2220      	movs	r2, #32
 80038b4:	4630      	mov	r0, r6
 80038b6:	f000 fcdf 	bl	8004278 <memset>
  htim1.Init.Prescaler = 3360-1;
 80038ba:	491b      	ldr	r1, [pc, #108]	; (8003928 <main+0x334>)
  htim1.Init.CounterMode = TIM_COUNTERMODE_UP;
 80038bc:	60ac      	str	r4, [r5, #8]
  htim1.Init.Prescaler = 3360-1;
 80038be:	f640 521f 	movw	r2, #3359	; 0xd1f
  if (HAL_TIM_Base_Init(&htim1) != HAL_OK)
 80038c2:	4628      	mov	r0, r5
  htim1.Init.Prescaler = 3360-1;
 80038c4:	e885 0006 	stmia.w	r5, {r1, r2}
  htim1.Init.Period = 2-1;
 80038c8:	60ef      	str	r7, [r5, #12]
  htim1.Init.ClockDivision = TIM_CLOCKDIVISION_DIV1;
 80038ca:	612c      	str	r4, [r5, #16]
  htim1.Init.RepetitionCounter = 0;
 80038cc:	616c      	str	r4, [r5, #20]
  htim1.Init.AutoReloadPreload = TIM_AUTORELOAD_PRELOAD_DISABLE;
 80038ce:	61ac      	str	r4, [r5, #24]
  if (HAL_TIM_Base_Init(&htim1) != HAL_OK)
 80038d0:	f7fe f854 	bl	800197c <HAL_TIM_Base_Init>
  sClockSourceConfig.ClockSource = TIM_CLOCKSOURCE_INTERNAL;
 80038d4:	f44f 5280 	mov.w	r2, #4096	; 0x1000
  if (HAL_TIM_ConfigClockSource(&htim1, &sClockSourceConfig) != HAL_OK)
 80038d8:	a90e      	add	r1, sp, #56	; 0x38
 80038da:	4628      	mov	r0, r5
  sClockSourceConfig.ClockSource = TIM_CLOCKSOURCE_INTERNAL;
 80038dc:	920e      	str	r2, [sp, #56]	; 0x38
  if (HAL_TIM_ConfigClockSource(&htim1, &sClockSourceConfig) != HAL_OK)
 80038de:	f7fe f93b 	bl	8001b58 <HAL_TIM_ConfigClockSource>
  if (HAL_TIM_OC_Init(&htim1) != HAL_OK)
 80038e2:	4628      	mov	r0, r5
 80038e4:	f7fe f864 	bl	80019b0 <HAL_TIM_OC_Init>
  if (HAL_TIMEx_MasterConfigSynchronization(&htim1, &sMasterConfig) != HAL_OK)
 80038e8:	a90c      	add	r1, sp, #48	; 0x30
 80038ea:	4628      	mov	r0, r5
  sMasterConfig.MasterOutputTrigger = TIM_TRGO_RESET;
 80038ec:	940c      	str	r4, [sp, #48]	; 0x30
  sMasterConfig.MasterSlaveMode = TIM_MASTERSLAVEMODE_DISABLE;
 80038ee:	940d      	str	r4, [sp, #52]	; 0x34
 80038f0:	e020      	b.n	8003934 <main+0x340>
 80038f2:	bf00      	nop
 80038f4:	40023800 	.word	0x40023800
 80038f8:	40021800 	.word	0x40021800
 80038fc:	40020400 	.word	0x40020400
 8003900:	40020800 	.word	0x40020800
 8003904:	40021400 	.word	0x40021400
 8003908:	40020000 	.word	0x40020000
 800390c:	200006e4 	.word	0x200006e4
 8003910:	200008b4 	.word	0x200008b4
 8003914:	40028000 	.word	0x40028000
 8003918:	40004800 	.word	0x40004800
 800391c:	20000248 	.word	0x20000248
 8003920:	40007400 	.word	0x40007400
 8003924:	200006fc 	.word	0x200006fc
 8003928:	40010000 	.word	0x40010000
 800392c:	10110000 	.word	0x10110000
 8003930:	20000208 	.word	0x20000208
  if (HAL_TIMEx_MasterConfigSynchronization(&htim1, &sMasterConfig) != HAL_OK)
 8003934:	f7fe fa02 	bl	8001d3c <HAL_TIMEx_MasterConfigSynchronization>
  sConfigOC.OCMode = TIM_OCMODE_TOGGLE;
 8003938:	2230      	movs	r2, #48	; 0x30
 800393a:	9212      	str	r2, [sp, #72]	; 0x48
  if (HAL_TIM_OC_ConfigChannel(&htim1, &sConfigOC, TIM_CHANNEL_1) != HAL_OK)
 800393c:	a912      	add	r1, sp, #72	; 0x48
 800393e:	4622      	mov	r2, r4
 8003940:	4628      	mov	r0, r5
  sConfigOC.Pulse = 0;
 8003942:	9413      	str	r4, [sp, #76]	; 0x4c
  sConfigOC.OCPolarity = TIM_OCPOLARITY_LOW;
 8003944:	f8cd a050 	str.w	sl, [sp, #80]	; 0x50
  sConfigOC.OCNPolarity = TIM_OCNPOLARITY_HIGH;
 8003948:	9415      	str	r4, [sp, #84]	; 0x54
  sConfigOC.OCFastMode = TIM_OCFAST_DISABLE;
 800394a:	9416      	str	r4, [sp, #88]	; 0x58
  sConfigOC.OCIdleState = TIM_OCIDLESTATE_RESET;
 800394c:	9417      	str	r4, [sp, #92]	; 0x5c
  sConfigOC.OCNIdleState = TIM_OCNIDLESTATE_RESET;
 800394e:	9418      	str	r4, [sp, #96]	; 0x60
  if (HAL_TIM_OC_ConfigChannel(&htim1, &sConfigOC, TIM_CHANNEL_1) != HAL_OK)
 8003950:	f7fe f8ca 	bl	8001ae8 <HAL_TIM_OC_ConfigChannel>
  if (HAL_TIM_OC_ConfigChannel(&htim1, &sConfigOC, TIM_CHANNEL_2) != HAL_OK)
 8003954:	465a      	mov	r2, fp
 8003956:	a912      	add	r1, sp, #72	; 0x48
 8003958:	4628      	mov	r0, r5
  sConfigOC.OCPolarity = TIM_OCPOLARITY_HIGH;
 800395a:	9414      	str	r4, [sp, #80]	; 0x50
  if (HAL_TIM_OC_ConfigChannel(&htim1, &sConfigOC, TIM_CHANNEL_2) != HAL_OK)
 800395c:	f7fe f8c4 	bl	8001ae8 <HAL_TIM_OC_ConfigChannel>
  if (HAL_TIM_OC_ConfigChannel(&htim1, &sConfigOC, TIM_CHANNEL_3) != HAL_OK)
 8003960:	2208      	movs	r2, #8
 8003962:	a912      	add	r1, sp, #72	; 0x48
 8003964:	4628      	mov	r0, r5
  sConfigOC.Pulse = 1;
 8003966:	9713      	str	r7, [sp, #76]	; 0x4c
  sConfigOC.OCPolarity = TIM_OCPOLARITY_LOW;
 8003968:	f8cd a050 	str.w	sl, [sp, #80]	; 0x50
  if (HAL_TIM_OC_ConfigChannel(&htim1, &sConfigOC, TIM_CHANNEL_3) != HAL_OK)
 800396c:	f7fe f8bc 	bl	8001ae8 <HAL_TIM_OC_ConfigChannel>
  if (HAL_TIM_OC_ConfigChannel(&htim1, &sConfigOC, TIM_CHANNEL_4) != HAL_OK)
 8003970:	464a      	mov	r2, r9
 8003972:	a912      	add	r1, sp, #72	; 0x48
 8003974:	4628      	mov	r0, r5
  sConfigOC.OCPolarity = TIM_OCPOLARITY_HIGH;
 8003976:	9414      	str	r4, [sp, #80]	; 0x50
  if (HAL_TIM_OC_ConfigChannel(&htim1, &sConfigOC, TIM_CHANNEL_4) != HAL_OK)
 8003978:	f7fe f8b6 	bl	8001ae8 <HAL_TIM_OC_ConfigChannel>
  sBreakDeadTimeConfig.BreakPolarity = TIM_BREAKPOLARITY_HIGH;
 800397c:	f44f 5300 	mov.w	r3, #8192	; 0x2000
  if (HAL_TIMEx_ConfigBreakDeadTime(&htim1, &sBreakDeadTimeConfig) != HAL_OK)
 8003980:	4631      	mov	r1, r6
 8003982:	4628      	mov	r0, r5
  sBreakDeadTimeConfig.BreakPolarity = TIM_BREAKPOLARITY_HIGH;
 8003984:	931e      	str	r3, [sp, #120]	; 0x78
  sBreakDeadTimeConfig.OffStateRunMode = TIM_OSSR_DISABLE;
 8003986:	9419      	str	r4, [sp, #100]	; 0x64
  sBreakDeadTimeConfig.OffStateIDLEMode = TIM_OSSI_DISABLE;
 8003988:	941a      	str	r4, [sp, #104]	; 0x68
  sBreakDeadTimeConfig.LockLevel = TIM_LOCKLEVEL_OFF;
 800398a:	941b      	str	r4, [sp, #108]	; 0x6c
  sBreakDeadTimeConfig.DeadTime = 0;
 800398c:	941c      	str	r4, [sp, #112]	; 0x70
  sBreakDeadTimeConfig.BreakState = TIM_BREAK_DISABLE;
 800398e:	941d      	str	r4, [sp, #116]	; 0x74
  sBreakDeadTimeConfig.AutomaticOutput = TIM_AUTOMATICOUTPUT_DISABLE;
 8003990:	9420      	str	r4, [sp, #128]	; 0x80
  if (HAL_TIMEx_ConfigBreakDeadTime(&htim1, &sBreakDeadTimeConfig) != HAL_OK)
 8003992:	f7fe f9f1 	bl	8001d78 <HAL_TIMEx_ConfigBreakDeadTime>
  HAL_TIM_MspPostInit(&htim1);
 8003996:	4628      	mov	r0, r5
  htim2.Instance = TIM2;
 8003998:	f8df a178 	ldr.w	sl, [pc, #376]	; 8003b14 <main+0x520>
  huart6.Instance = USART6;
 800399c:	4d4c      	ldr	r5, [pc, #304]	; (8003ad0 <main+0x4dc>)
  HAL_TIM_MspPostInit(&htim1);
 800399e:	f000 f9f7 	bl	8003d90 <HAL_TIM_MspPostInit>
  TIM_Encoder_InitTypeDef sConfig = {0};
 80039a2:	4621      	mov	r1, r4
 80039a4:	2224      	movs	r2, #36	; 0x24
 80039a6:	4630      	mov	r0, r6
 80039a8:	f000 fc66 	bl	8004278 <memset>
  htim2.Instance = TIM2;
 80039ac:	f04f 4280 	mov.w	r2, #1073741824	; 0x40000000
  htim2.Init.Prescaler = 0;
 80039b0:	e88a 0014 	stmia.w	sl, {r2, r4}
  htim2.Init.Period = 2000000000-1;
 80039b4:	4a47      	ldr	r2, [pc, #284]	; (8003ad4 <main+0x4e0>)
 80039b6:	f8ca 200c 	str.w	r2, [sl, #12]
  if (HAL_TIM_Encoder_Init(&htim2, &sConfig) != HAL_OK)
 80039ba:	4631      	mov	r1, r6
  sConfig.EncoderMode = TIM_ENCODERMODE_TI12;
 80039bc:	2203      	movs	r2, #3
  sConfig.IC1Selection = TIM_ICSELECTION_DIRECTTI;
 80039be:	971b      	str	r7, [sp, #108]	; 0x6c
  sConfig.IC2Selection = TIM_ICSELECTION_DIRECTTI;
 80039c0:	971f      	str	r7, [sp, #124]	; 0x7c
  if (HAL_TIM_Encoder_Init(&htim2, &sConfig) != HAL_OK)
 80039c2:	4650      	mov	r0, sl
  huart4.Instance = UART4;
 80039c4:	4f44      	ldr	r7, [pc, #272]	; (8003ad8 <main+0x4e4>)
  huart5.Instance = UART5;
 80039c6:	4e45      	ldr	r6, [pc, #276]	; (8003adc <main+0x4e8>)
  sConfig.EncoderMode = TIM_ENCODERMODE_TI12;
 80039c8:	9219      	str	r2, [sp, #100]	; 0x64
  TIM_MasterConfigTypeDef sMasterConfig = {0};
 80039ca:	9412      	str	r4, [sp, #72]	; 0x48
 80039cc:	9413      	str	r4, [sp, #76]	; 0x4c
  htim2.Init.CounterMode = TIM_COUNTERMODE_UP;
 80039ce:	f8ca 4008 	str.w	r4, [sl, #8]
  htim2.Init.ClockDivision = TIM_CLOCKDIVISION_DIV1;
 80039d2:	f8ca 4010 	str.w	r4, [sl, #16]
  htim2.Init.AutoReloadPreload = TIM_AUTORELOAD_PRELOAD_DISABLE;
 80039d6:	f8ca 4018 	str.w	r4, [sl, #24]
  if (HAL_TIM_Encoder_Init(&htim2, &sConfig) != HAL_OK)
 80039da:	f7fe f803 	bl	80019e4 <HAL_TIM_Encoder_Init>
  if (HAL_TIMEx_MasterConfigSynchronization(&htim2, &sMasterConfig) != HAL_OK)
 80039de:	a912      	add	r1, sp, #72	; 0x48
 80039e0:	4650      	mov	r0, sl
  sMasterConfig.MasterOutputTrigger = TIM_TRGO_RESET;
 80039e2:	9412      	str	r4, [sp, #72]	; 0x48
  sMasterConfig.MasterSlaveMode = TIM_MASTERSLAVEMODE_DISABLE;
 80039e4:	9413      	str	r4, [sp, #76]	; 0x4c
  if (HAL_TIMEx_MasterConfigSynchronization(&htim2, &sMasterConfig) != HAL_OK)
 80039e6:	f7fe f9a9 	bl	8001d3c <HAL_TIMEx_MasterConfigSynchronization>
  huart4.Instance = UART4;
 80039ea:	4a3d      	ldr	r2, [pc, #244]	; (8003ae0 <main+0x4ec>)
  huart4.Init.BaudRate = 115200;
 80039ec:	9b00      	ldr	r3, [sp, #0]
  huart4.Instance = UART4;
 80039ee:	603a      	str	r2, [r7, #0]
  if (HAL_UART_Init(&huart4) != HAL_OK)
 80039f0:	4638      	mov	r0, r7
  huart4.Init.BaudRate = 115200;
 80039f2:	607b      	str	r3, [r7, #4]
  huart4.Init.WordLength = UART_WORDLENGTH_8B;
 80039f4:	60bc      	str	r4, [r7, #8]
  huart4.Init.StopBits = UART_STOPBITS_1;
 80039f6:	60fc      	str	r4, [r7, #12]
  huart4.Init.Parity = UART_PARITY_NONE;
 80039f8:	613c      	str	r4, [r7, #16]
  huart4.Init.HwFlowCtl = UART_HWCONTROL_NONE;
 80039fa:	61bc      	str	r4, [r7, #24]
  huart4.Init.OverSampling = UART_OVERSAMPLING_16;
 80039fc:	61fc      	str	r4, [r7, #28]
  huart4.Init.Mode = UART_MODE_TX_RX;
 80039fe:	f8c7 9014 	str.w	r9, [r7, #20]
  if (HAL_UART_Init(&huart4) != HAL_OK)
 8003a02:	f7fe fb2f 	bl	8002064 <HAL_UART_Init>
  huart5.Instance = UART5;
 8003a06:	4a37      	ldr	r2, [pc, #220]	; (8003ae4 <main+0x4f0>)
  huart5.Init.BaudRate = 115200;
 8003a08:	9b00      	ldr	r3, [sp, #0]
  huart5.Instance = UART5;
 8003a0a:	6032      	str	r2, [r6, #0]
  if (HAL_UART_Init(&huart5) != HAL_OK)
 8003a0c:	4630      	mov	r0, r6
  huart5.Init.BaudRate = 115200;
 8003a0e:	6073      	str	r3, [r6, #4]
  huart5.Init.WordLength = UART_WORDLENGTH_8B;
 8003a10:	60b4      	str	r4, [r6, #8]
  huart5.Init.StopBits = UART_STOPBITS_1;
 8003a12:	60f4      	str	r4, [r6, #12]
  huart5.Init.Parity = UART_PARITY_NONE;
 8003a14:	6134      	str	r4, [r6, #16]
  huart5.Init.HwFlowCtl = UART_HWCONTROL_NONE;
 8003a16:	61b4      	str	r4, [r6, #24]
  huart5.Init.OverSampling = UART_OVERSAMPLING_16;
 8003a18:	61f4      	str	r4, [r6, #28]
  huart5.Init.Mode = UART_MODE_TX_RX;
 8003a1a:	f8c6 9014 	str.w	r9, [r6, #20]
  if (HAL_UART_Init(&huart5) != HAL_OK)
 8003a1e:	f7fe fb21 	bl	8002064 <HAL_UART_Init>
  huart2.Instance = USART2;
 8003a22:	4b31      	ldr	r3, [pc, #196]	; (8003ae8 <main+0x4f4>)
 8003a24:	4a31      	ldr	r2, [pc, #196]	; (8003aec <main+0x4f8>)
 8003a26:	601a      	str	r2, [r3, #0]
  if (HAL_UART_Init(&huart2) != HAL_OK)
 8003a28:	4618      	mov	r0, r3
  huart2.Init.BaudRate = 9600;
 8003a2a:	f44f 5216 	mov.w	r2, #9600	; 0x2580
 8003a2e:	605a      	str	r2, [r3, #4]
  huart2.Init.WordLength = UART_WORDLENGTH_8B;
 8003a30:	609c      	str	r4, [r3, #8]
  huart2.Init.StopBits = UART_STOPBITS_1;
 8003a32:	60dc      	str	r4, [r3, #12]
  huart2.Init.Parity = UART_PARITY_NONE;
 8003a34:	611c      	str	r4, [r3, #16]
  huart2.Init.HwFlowCtl = UART_HWCONTROL_NONE;
 8003a36:	619c      	str	r4, [r3, #24]
  huart2.Init.OverSampling = UART_OVERSAMPLING_16;
 8003a38:	61dc      	str	r4, [r3, #28]
  huart2.Init.Mode = UART_MODE_TX_RX;
 8003a3a:	f8c3 9014 	str.w	r9, [r3, #20]
  if (HAL_UART_Init(&huart2) != HAL_OK)
 8003a3e:	9300      	str	r3, [sp, #0]
  huart2.Init.BaudRate = 9600;
 8003a40:	9201      	str	r2, [sp, #4]
  if (HAL_UART_Init(&huart2) != HAL_OK)
 8003a42:	f7fe fb0f 	bl	8002064 <HAL_UART_Init>
  huart6.Instance = USART6;
 8003a46:	492a      	ldr	r1, [pc, #168]	; (8003af0 <main+0x4fc>)
  huart6.Init.BaudRate = 9600;
 8003a48:	9a01      	ldr	r2, [sp, #4]
  huart6.Instance = USART6;
 8003a4a:	6029      	str	r1, [r5, #0]
  if (HAL_UART_Init(&huart6) != HAL_OK)
 8003a4c:	4628      	mov	r0, r5
  huart6.Init.BaudRate = 9600;
 8003a4e:	606a      	str	r2, [r5, #4]
  huart6.Init.WordLength = UART_WORDLENGTH_8B;
 8003a50:	60ac      	str	r4, [r5, #8]
  huart6.Init.StopBits = UART_STOPBITS_1;
 8003a52:	60ec      	str	r4, [r5, #12]
  huart6.Init.Parity = UART_PARITY_NONE;
 8003a54:	612c      	str	r4, [r5, #16]
  huart6.Init.HwFlowCtl = UART_HWCONTROL_NONE;
 8003a56:	61ac      	str	r4, [r5, #24]
  huart6.Init.OverSampling = UART_OVERSAMPLING_16;
 8003a58:	61ec      	str	r4, [r5, #28]
  huart6.Init.Mode = UART_MODE_TX_RX;
 8003a5a:	f8c5 9014 	str.w	r9, [r5, #20]
  if (HAL_UART_Init(&huart6) != HAL_OK)
 8003a5e:	f7fe fb01 	bl	8002064 <HAL_UART_Init>
  HAL_NVIC_SetPriority(EXTI0_IRQn, 0, 0);
 8003a62:	4622      	mov	r2, r4
 8003a64:	4621      	mov	r1, r4
 8003a66:	2006      	movs	r0, #6
 8003a68:	f7fc fdbe 	bl	80005e8 <HAL_NVIC_SetPriority>
  HAL_NVIC_EnableIRQ(EXTI0_IRQn);
 8003a6c:	2006      	movs	r0, #6
 8003a6e:	f7fc fdef 	bl	8000650 <HAL_NVIC_EnableIRQ>
  HAL_UART_Receive_DMA(&huart2, (uint8_t *)usart2_buffer, 10);
 8003a72:	9b00      	ldr	r3, [sp, #0]
 8003a74:	491f      	ldr	r1, [pc, #124]	; (8003af4 <main+0x500>)
	  SendData(torque, pulse, force, stroke1);
 8003a76:	4c20      	ldr	r4, [pc, #128]	; (8003af8 <main+0x504>)
  HAL_UART_Receive_DMA(&huart2, (uint8_t *)usart2_buffer, 10);
 8003a78:	4618      	mov	r0, r3
 8003a7a:	220a      	movs	r2, #10
 8003a7c:	f7fe fb7e 	bl	800217c <HAL_UART_Receive_DMA>
  HAL_UART_Receive_DMA(&huart3, (uint8_t *)rx_data, 10);
 8003a80:	220a      	movs	r2, #10
 8003a82:	491e      	ldr	r1, [pc, #120]	; (8003afc <main+0x508>)
 8003a84:	4640      	mov	r0, r8
 8003a86:	f7fe fb79 	bl	800217c <HAL_UART_Receive_DMA>
  HAL_UART_Receive_DMA(&huart4, (uint8_t *)rx_data, 10);
 8003a8a:	220a      	movs	r2, #10
 8003a8c:	491b      	ldr	r1, [pc, #108]	; (8003afc <main+0x508>)
 8003a8e:	4638      	mov	r0, r7
 8003a90:	f7fe fb74 	bl	800217c <HAL_UART_Receive_DMA>
  HAL_UART_Receive_DMA(&huart5, (uint8_t *)usart5_buffer, 13);
 8003a94:	220d      	movs	r2, #13
 8003a96:	491a      	ldr	r1, [pc, #104]	; (8003b00 <main+0x50c>)
 8003a98:	4630      	mov	r0, r6
 8003a9a:	f7fe fb6f 	bl	800217c <HAL_UART_Receive_DMA>
  HAL_UART_Receive_DMA(&huart6, (uint8_t *)usart6_buffer, 13);
 8003a9e:	220d      	movs	r2, #13
 8003aa0:	4918      	ldr	r1, [pc, #96]	; (8003b04 <main+0x510>)
	  SendData(torque, pulse, force, stroke1);
 8003aa2:	4e19      	ldr	r6, [pc, #100]	; (8003b08 <main+0x514>)
  HAL_UART_Receive_DMA(&huart6, (uint8_t *)usart6_buffer, 13);
 8003aa4:	4628      	mov	r0, r5
 8003aa6:	f7fe fb69 	bl	800217c <HAL_UART_Receive_DMA>
  HAL_TIM_Encoder_Start(&htim2, TIM_CHANNEL_1|TIM_CHANNEL_2);
 8003aaa:	4659      	mov	r1, fp
 8003aac:	4650      	mov	r0, sl
 8003aae:	f7fd feb8 	bl	8001822 <HAL_TIM_Encoder_Start>
	  SendData(torque, pulse, force, stroke1);
 8003ab2:	4d16      	ldr	r5, [pc, #88]	; (8003b0c <main+0x518>)
	  CheckStatus();
 8003ab4:	f7ff fa66 	bl	8002f84 <CheckStatus>
	  CheckSafety();
 8003ab8:	f7ff f906 	bl	8002cc8 <CheckSafety>
	  CheckMode();
 8003abc:	f7ff fd70 	bl	80035a0 <CheckMode>
	  SendData(torque, pulse, force, stroke1);
 8003ac0:	4813      	ldr	r0, [pc, #76]	; (8003b10 <main+0x51c>)
 8003ac2:	6833      	ldr	r3, [r6, #0]
 8003ac4:	682a      	ldr	r2, [r5, #0]
 8003ac6:	6821      	ldr	r1, [r4, #0]
 8003ac8:	6800      	ldr	r0, [r0, #0]
 8003aca:	f7ff f877 	bl	8002bbc <SendData>
 8003ace:	e7f1      	b.n	8003ab4 <main+0x4c0>
 8003ad0:	20000754 	.word	0x20000754
 8003ad4:	773593ff 	.word	0x773593ff
 8003ad8:	20000794 	.word	0x20000794
 8003adc:	20000694 	.word	0x20000694
 8003ae0:	40004c00 	.word	0x40004c00
 8003ae4:	40005000 	.word	0x40005000
 8003ae8:	20000814 	.word	0x20000814
 8003aec:	40004400 	.word	0x40004400
 8003af0:	40011400 	.word	0x40011400
 8003af4:	20000668 	.word	0x20000668
 8003af8:	20000050 	.word	0x20000050
 8003afc:	20000749 	.word	0x20000749
 8003b00:	20000070 	.word	0x20000070
 8003b04:	2000073c 	.word	0x2000073c
 8003b08:	20000674 	.word	0x20000674
 8003b0c:	20000048 	.word	0x20000048
 8003b10:	20000054 	.word	0x20000054
 8003b14:	200007d4 	.word	0x200007d4

08003b18 <Error_Handler>:
/**
  * @brief  This function is executed in case of error occurrence.
  * @retval None
  */
void Error_Handler(void)
{
 8003b18:	4770      	bx	lr
	...

08003b1c <HAL_MspInit>:
void HAL_TIM_MspPostInit(TIM_HandleTypeDef *htim);
                    /**
  * Initializes the Global MSP.
  */
void HAL_MspInit(void)
{
 8003b1c:	b082      	sub	sp, #8
  /* USER CODE BEGIN MspInit 0 */

  /* USER CODE END MspInit 0 */

  __HAL_RCC_SYSCFG_CLK_ENABLE();
 8003b1e:	4b0c      	ldr	r3, [pc, #48]	; (8003b50 <HAL_MspInit+0x34>)
 8003b20:	2100      	movs	r1, #0
 8003b22:	9100      	str	r1, [sp, #0]
 8003b24:	6c5a      	ldr	r2, [r3, #68]	; 0x44
 8003b26:	f442 4280 	orr.w	r2, r2, #16384	; 0x4000
 8003b2a:	645a      	str	r2, [r3, #68]	; 0x44
 8003b2c:	6c5a      	ldr	r2, [r3, #68]	; 0x44
 8003b2e:	f402 4280 	and.w	r2, r2, #16384	; 0x4000
 8003b32:	9200      	str	r2, [sp, #0]
 8003b34:	9a00      	ldr	r2, [sp, #0]
  __HAL_RCC_PWR_CLK_ENABLE();
 8003b36:	9101      	str	r1, [sp, #4]
 8003b38:	6c1a      	ldr	r2, [r3, #64]	; 0x40
 8003b3a:	f042 5280 	orr.w	r2, r2, #268435456	; 0x10000000
 8003b3e:	641a      	str	r2, [r3, #64]	; 0x40
 8003b40:	6c1b      	ldr	r3, [r3, #64]	; 0x40
 8003b42:	f003 5380 	and.w	r3, r3, #268435456	; 0x10000000
 8003b46:	9301      	str	r3, [sp, #4]
 8003b48:	9b01      	ldr	r3, [sp, #4]
  /* System interrupt init*/

  /* USER CODE BEGIN MspInit 1 */

  /* USER CODE END MspInit 1 */
}
 8003b4a:	b002      	add	sp, #8
 8003b4c:	4770      	bx	lr
 8003b4e:	bf00      	nop
 8003b50:	40023800 	.word	0x40023800

08003b54 <HAL_DAC_MspInit>:
* This function configures the hardware resources used in this example
* @param hdac: DAC handle pointer
* @retval None
*/
void HAL_DAC_MspInit(DAC_HandleTypeDef* hdac)
{
 8003b54:	b510      	push	{r4, lr}
 8003b56:	4604      	mov	r4, r0
 8003b58:	b088      	sub	sp, #32
  GPIO_InitTypeDef GPIO_InitStruct = {0};
 8003b5a:	2214      	movs	r2, #20
 8003b5c:	2100      	movs	r1, #0
 8003b5e:	a803      	add	r0, sp, #12
 8003b60:	f000 fb8a 	bl	8004278 <memset>
  if(hdac->Instance==DAC)
 8003b64:	6822      	ldr	r2, [r4, #0]
 8003b66:	4b12      	ldr	r3, [pc, #72]	; (8003bb0 <HAL_DAC_MspInit+0x5c>)
 8003b68:	429a      	cmp	r2, r3
 8003b6a:	d11e      	bne.n	8003baa <HAL_DAC_MspInit+0x56>
  {
  /* USER CODE BEGIN DAC_MspInit 0 */

  /* USER CODE END DAC_MspInit 0 */
    /* Peripheral clock enable */
    __HAL_RCC_DAC_CLK_ENABLE();
 8003b6c:	f503 33e2 	add.w	r3, r3, #115712	; 0x1c400
 8003b70:	2100      	movs	r1, #0
 8003b72:	9101      	str	r1, [sp, #4]
 8003b74:	6c1a      	ldr	r2, [r3, #64]	; 0x40
    PA4     ------> DAC_OUT1 
    */
    GPIO_InitStruct.Pin = GPIO_PIN_4;
    GPIO_InitStruct.Mode = GPIO_MODE_ANALOG;
    GPIO_InitStruct.Pull = GPIO_NOPULL;
    HAL_GPIO_Init(GPIOA, &GPIO_InitStruct);
 8003b76:	480f      	ldr	r0, [pc, #60]	; (8003bb4 <HAL_DAC_MspInit+0x60>)
    __HAL_RCC_DAC_CLK_ENABLE();
 8003b78:	f042 5200 	orr.w	r2, r2, #536870912	; 0x20000000
 8003b7c:	641a      	str	r2, [r3, #64]	; 0x40
 8003b7e:	6c1a      	ldr	r2, [r3, #64]	; 0x40
 8003b80:	f002 5200 	and.w	r2, r2, #536870912	; 0x20000000
 8003b84:	9201      	str	r2, [sp, #4]
 8003b86:	9a01      	ldr	r2, [sp, #4]
    __HAL_RCC_GPIOA_CLK_ENABLE();
 8003b88:	9102      	str	r1, [sp, #8]
 8003b8a:	6b1a      	ldr	r2, [r3, #48]	; 0x30
 8003b8c:	f042 0201 	orr.w	r2, r2, #1
 8003b90:	631a      	str	r2, [r3, #48]	; 0x30
 8003b92:	6b1b      	ldr	r3, [r3, #48]	; 0x30
 8003b94:	f003 0301 	and.w	r3, r3, #1
 8003b98:	9302      	str	r3, [sp, #8]
 8003b9a:	9b02      	ldr	r3, [sp, #8]
    GPIO_InitStruct.Pin = GPIO_PIN_4;
 8003b9c:	2310      	movs	r3, #16
 8003b9e:	9303      	str	r3, [sp, #12]
    HAL_GPIO_Init(GPIOA, &GPIO_InitStruct);
 8003ba0:	a903      	add	r1, sp, #12
    GPIO_InitStruct.Mode = GPIO_MODE_ANALOG;
 8003ba2:	2303      	movs	r3, #3
 8003ba4:	9304      	str	r3, [sp, #16]
    HAL_GPIO_Init(GPIOA, &GPIO_InitStruct);
 8003ba6:	f7fd f9b1 	bl	8000f0c <HAL_GPIO_Init>
  /* USER CODE BEGIN DAC_MspInit 1 */

  /* USER CODE END DAC_MspInit 1 */
  }

}
 8003baa:	b008      	add	sp, #32
 8003bac:	bd10      	pop	{r4, pc}
 8003bae:	bf00      	nop
 8003bb0:	40007400 	.word	0x40007400
 8003bb4:	40020000 	.word	0x40020000

08003bb8 <HAL_ETH_MspInit>:
* This function configures the hardware resources used in this example
* @param heth: ETH handle pointer
* @retval None
*/
void HAL_ETH_MspInit(ETH_HandleTypeDef* heth)
{
 8003bb8:	b5f0      	push	{r4, r5, r6, r7, lr}
 8003bba:	4604      	mov	r4, r0
 8003bbc:	b08d      	sub	sp, #52	; 0x34
  GPIO_InitTypeDef GPIO_InitStruct = {0};
 8003bbe:	2214      	movs	r2, #20
 8003bc0:	2100      	movs	r1, #0
 8003bc2:	a807      	add	r0, sp, #28
 8003bc4:	f000 fb58 	bl	8004278 <memset>
  if(heth->Instance==ETH)
 8003bc8:	6822      	ldr	r2, [r4, #0]
 8003bca:	4b3d      	ldr	r3, [pc, #244]	; (8003cc0 <HAL_ETH_MspInit+0x108>)
 8003bcc:	429a      	cmp	r2, r3
 8003bce:	d174      	bne.n	8003cba <HAL_ETH_MspInit+0x102>
  {
  /* USER CODE BEGIN ETH_MspInit 0 */

  /* USER CODE END ETH_MspInit 0 */
    /* Peripheral clock enable */
    __HAL_RCC_ETH_CLK_ENABLE();
 8003bd0:	f5a3 4390 	sub.w	r3, r3, #18432	; 0x4800
 8003bd4:	2400      	movs	r4, #0
 8003bd6:	9400      	str	r4, [sp, #0]
 8003bd8:	6b1a      	ldr	r2, [r3, #48]	; 0x30
    GPIO_InitStruct.Pin = RMII_MDC_Pin|RMII_RXD0_Pin|RMII_RXD1_Pin;
    GPIO_InitStruct.Mode = GPIO_MODE_AF_PP;
    GPIO_InitStruct.Pull = GPIO_NOPULL;
    GPIO_InitStruct.Speed = GPIO_SPEED_FREQ_VERY_HIGH;
    GPIO_InitStruct.Alternate = GPIO_AF11_ETH;
    HAL_GPIO_Init(GPIOC, &GPIO_InitStruct);
 8003bda:	483a      	ldr	r0, [pc, #232]	; (8003cc4 <HAL_ETH_MspInit+0x10c>)
    __HAL_RCC_ETH_CLK_ENABLE();
 8003bdc:	f042 7200 	orr.w	r2, r2, #33554432	; 0x2000000
 8003be0:	631a      	str	r2, [r3, #48]	; 0x30
 8003be2:	6b1a      	ldr	r2, [r3, #48]	; 0x30
 8003be4:	f002 7200 	and.w	r2, r2, #33554432	; 0x2000000
 8003be8:	9200      	str	r2, [sp, #0]
 8003bea:	9a00      	ldr	r2, [sp, #0]
 8003bec:	9401      	str	r4, [sp, #4]
 8003bee:	6b1a      	ldr	r2, [r3, #48]	; 0x30
 8003bf0:	f042 6280 	orr.w	r2, r2, #67108864	; 0x4000000
 8003bf4:	631a      	str	r2, [r3, #48]	; 0x30
 8003bf6:	6b1a      	ldr	r2, [r3, #48]	; 0x30
 8003bf8:	f002 6280 	and.w	r2, r2, #67108864	; 0x4000000
 8003bfc:	9201      	str	r2, [sp, #4]
 8003bfe:	9a01      	ldr	r2, [sp, #4]
 8003c00:	9402      	str	r4, [sp, #8]
 8003c02:	6b1a      	ldr	r2, [r3, #48]	; 0x30
 8003c04:	f042 6200 	orr.w	r2, r2, #134217728	; 0x8000000
 8003c08:	631a      	str	r2, [r3, #48]	; 0x30
 8003c0a:	6b1a      	ldr	r2, [r3, #48]	; 0x30
 8003c0c:	f002 6200 	and.w	r2, r2, #134217728	; 0x8000000
 8003c10:	9202      	str	r2, [sp, #8]
 8003c12:	9a02      	ldr	r2, [sp, #8]
    __HAL_RCC_GPIOC_CLK_ENABLE();
 8003c14:	9403      	str	r4, [sp, #12]
 8003c16:	6b1a      	ldr	r2, [r3, #48]	; 0x30
 8003c18:	f042 0204 	orr.w	r2, r2, #4
 8003c1c:	631a      	str	r2, [r3, #48]	; 0x30
 8003c1e:	6b1a      	ldr	r2, [r3, #48]	; 0x30
 8003c20:	f002 0204 	and.w	r2, r2, #4
 8003c24:	9203      	str	r2, [sp, #12]
 8003c26:	9a03      	ldr	r2, [sp, #12]
    __HAL_RCC_GPIOA_CLK_ENABLE();
 8003c28:	9404      	str	r4, [sp, #16]
 8003c2a:	6b1a      	ldr	r2, [r3, #48]	; 0x30
 8003c2c:	f042 0201 	orr.w	r2, r2, #1
 8003c30:	631a      	str	r2, [r3, #48]	; 0x30
 8003c32:	6b1a      	ldr	r2, [r3, #48]	; 0x30
 8003c34:	f002 0201 	and.w	r2, r2, #1
 8003c38:	9204      	str	r2, [sp, #16]
 8003c3a:	9a04      	ldr	r2, [sp, #16]
    __HAL_RCC_GPIOB_CLK_ENABLE();
 8003c3c:	9405      	str	r4, [sp, #20]
 8003c3e:	6b1a      	ldr	r2, [r3, #48]	; 0x30
 8003c40:	f042 0202 	orr.w	r2, r2, #2
 8003c44:	631a      	str	r2, [r3, #48]	; 0x30
 8003c46:	6b1a      	ldr	r2, [r3, #48]	; 0x30
 8003c48:	f002 0202 	and.w	r2, r2, #2
 8003c4c:	9205      	str	r2, [sp, #20]
 8003c4e:	9a05      	ldr	r2, [sp, #20]
    __HAL_RCC_GPIOG_CLK_ENABLE();
 8003c50:	9406      	str	r4, [sp, #24]
 8003c52:	6b1a      	ldr	r2, [r3, #48]	; 0x30
 8003c54:	f042 0240 	orr.w	r2, r2, #64	; 0x40
 8003c58:	631a      	str	r2, [r3, #48]	; 0x30
 8003c5a:	6b1b      	ldr	r3, [r3, #48]	; 0x30
 8003c5c:	f003 0340 	and.w	r3, r3, #64	; 0x40
 8003c60:	9306      	str	r3, [sp, #24]
    GPIO_InitStruct.Mode = GPIO_MODE_AF_PP;
 8003c62:	2702      	movs	r7, #2
    GPIO_InitStruct.Speed = GPIO_SPEED_FREQ_VERY_HIGH;
 8003c64:	2603      	movs	r6, #3
    GPIO_InitStruct.Alternate = GPIO_AF11_ETH;
 8003c66:	250b      	movs	r5, #11
    __HAL_RCC_GPIOG_CLK_ENABLE();
 8003c68:	9b06      	ldr	r3, [sp, #24]
    GPIO_InitStruct.Mode = GPIO_MODE_AF_PP;
 8003c6a:	9708      	str	r7, [sp, #32]
    GPIO_InitStruct.Pin = RMII_MDC_Pin|RMII_RXD0_Pin|RMII_RXD1_Pin;
 8003c6c:	2332      	movs	r3, #50	; 0x32
    HAL_GPIO_Init(GPIOC, &GPIO_InitStruct);
 8003c6e:	a907      	add	r1, sp, #28
    GPIO_InitStruct.Pin = RMII_MDC_Pin|RMII_RXD0_Pin|RMII_RXD1_Pin;
 8003c70:	9307      	str	r3, [sp, #28]
    GPIO_InitStruct.Speed = GPIO_SPEED_FREQ_VERY_HIGH;
 8003c72:	960a      	str	r6, [sp, #40]	; 0x28
    GPIO_InitStruct.Alternate = GPIO_AF11_ETH;
 8003c74:	950b      	str	r5, [sp, #44]	; 0x2c
    HAL_GPIO_Init(GPIOC, &GPIO_InitStruct);
 8003c76:	f7fd f949 	bl	8000f0c <HAL_GPIO_Init>

    GPIO_InitStruct.Pin = RMII_REF_CLK_Pin|RMII_MDIO_Pin|RMII_CRS_DV_Pin;
 8003c7a:	2386      	movs	r3, #134	; 0x86
    GPIO_InitStruct.Mode = GPIO_MODE_AF_PP;
    GPIO_InitStruct.Pull = GPIO_NOPULL;
    GPIO_InitStruct.Speed = GPIO_SPEED_FREQ_VERY_HIGH;
    GPIO_InitStruct.Alternate = GPIO_AF11_ETH;
    HAL_GPIO_Init(GPIOA, &GPIO_InitStruct);
 8003c7c:	a907      	add	r1, sp, #28
 8003c7e:	4812      	ldr	r0, [pc, #72]	; (8003cc8 <HAL_ETH_MspInit+0x110>)
    GPIO_InitStruct.Pin = RMII_REF_CLK_Pin|RMII_MDIO_Pin|RMII_CRS_DV_Pin;
 8003c80:	9307      	str	r3, [sp, #28]
    GPIO_InitStruct.Mode = GPIO_MODE_AF_PP;
 8003c82:	9708      	str	r7, [sp, #32]
    GPIO_InitStruct.Pull = GPIO_NOPULL;
 8003c84:	9409      	str	r4, [sp, #36]	; 0x24
    GPIO_InitStruct.Speed = GPIO_SPEED_FREQ_VERY_HIGH;
 8003c86:	960a      	str	r6, [sp, #40]	; 0x28
    GPIO_InitStruct.Alternate = GPIO_AF11_ETH;
 8003c88:	950b      	str	r5, [sp, #44]	; 0x2c
    HAL_GPIO_Init(GPIOA, &GPIO_InitStruct);
 8003c8a:	f7fd f93f 	bl	8000f0c <HAL_GPIO_Init>

    GPIO_InitStruct.Pin = RMII_TXD1_Pin;
 8003c8e:	f44f 5300 	mov.w	r3, #8192	; 0x2000
    GPIO_InitStruct.Mode = GPIO_MODE_AF_PP;
    GPIO_InitStruct.Pull = GPIO_NOPULL;
    GPIO_InitStruct.Speed = GPIO_SPEED_FREQ_VERY_HIGH;
    GPIO_InitStruct.Alternate = GPIO_AF11_ETH;
    HAL_GPIO_Init(RMII_TXD1_GPIO_Port, &GPIO_InitStruct);
 8003c92:	a907      	add	r1, sp, #28
 8003c94:	480d      	ldr	r0, [pc, #52]	; (8003ccc <HAL_ETH_MspInit+0x114>)
    GPIO_InitStruct.Pin = RMII_TXD1_Pin;
 8003c96:	9307      	str	r3, [sp, #28]
    GPIO_InitStruct.Mode = GPIO_MODE_AF_PP;
 8003c98:	9708      	str	r7, [sp, #32]
    GPIO_InitStruct.Pull = GPIO_NOPULL;
 8003c9a:	9409      	str	r4, [sp, #36]	; 0x24
    GPIO_InitStruct.Speed = GPIO_SPEED_FREQ_VERY_HIGH;
 8003c9c:	960a      	str	r6, [sp, #40]	; 0x28
    GPIO_InitStruct.Alternate = GPIO_AF11_ETH;
 8003c9e:	950b      	str	r5, [sp, #44]	; 0x2c
    HAL_GPIO_Init(RMII_TXD1_GPIO_Port, &GPIO_InitStruct);
 8003ca0:	f7fd f934 	bl	8000f0c <HAL_GPIO_Init>

    GPIO_InitStruct.Pin = RMII_TX_EN_Pin|RMII_TXD0_Pin;
 8003ca4:	f44f 5320 	mov.w	r3, #10240	; 0x2800
    GPIO_InitStruct.Mode = GPIO_MODE_AF_PP;
    GPIO_InitStruct.Pull = GPIO_NOPULL;
    GPIO_InitStruct.Speed = GPIO_SPEED_FREQ_VERY_HIGH;
    GPIO_InitStruct.Alternate = GPIO_AF11_ETH;
    HAL_GPIO_Init(GPIOG, &GPIO_InitStruct);
 8003ca8:	a907      	add	r1, sp, #28
 8003caa:	4809      	ldr	r0, [pc, #36]	; (8003cd0 <HAL_ETH_MspInit+0x118>)
    GPIO_InitStruct.Pin = RMII_TX_EN_Pin|RMII_TXD0_Pin;
 8003cac:	9307      	str	r3, [sp, #28]
    GPIO_InitStruct.Mode = GPIO_MODE_AF_PP;
 8003cae:	9708      	str	r7, [sp, #32]
    GPIO_InitStruct.Pull = GPIO_NOPULL;
 8003cb0:	9409      	str	r4, [sp, #36]	; 0x24
    GPIO_InitStruct.Speed = GPIO_SPEED_FREQ_VERY_HIGH;
 8003cb2:	960a      	str	r6, [sp, #40]	; 0x28
    GPIO_InitStruct.Alternate = GPIO_AF11_ETH;
 8003cb4:	950b      	str	r5, [sp, #44]	; 0x2c
    HAL_GPIO_Init(GPIOG, &GPIO_InitStruct);
 8003cb6:	f7fd f929 	bl	8000f0c <HAL_GPIO_Init>
  /* USER CODE BEGIN ETH_MspInit 1 */

  /* USER CODE END ETH_MspInit 1 */
  }

}
 8003cba:	b00d      	add	sp, #52	; 0x34
 8003cbc:	bdf0      	pop	{r4, r5, r6, r7, pc}
 8003cbe:	bf00      	nop
 8003cc0:	40028000 	.word	0x40028000
 8003cc4:	40020800 	.word	0x40020800
 8003cc8:	40020000 	.word	0x40020000
 8003ccc:	40020400 	.word	0x40020400
 8003cd0:	40021800 	.word	0x40021800

08003cd4 <HAL_TIM_Base_MspInit>:
* @param htim_base: TIM_Base handle pointer
* @retval None
*/
void HAL_TIM_Base_MspInit(TIM_HandleTypeDef* htim_base)
{
  if(htim_base->Instance==TIM1)
 8003cd4:	6802      	ldr	r2, [r0, #0]
 8003cd6:	4b09      	ldr	r3, [pc, #36]	; (8003cfc <HAL_TIM_Base_MspInit+0x28>)
 8003cd8:	429a      	cmp	r2, r3
{
 8003cda:	b082      	sub	sp, #8
  if(htim_base->Instance==TIM1)
 8003cdc:	d10b      	bne.n	8003cf6 <HAL_TIM_Base_MspInit+0x22>
  {
  /* USER CODE BEGIN TIM1_MspInit 0 */

  /* USER CODE END TIM1_MspInit 0 */
    /* Peripheral clock enable */
    __HAL_RCC_TIM1_CLK_ENABLE();
 8003cde:	2300      	movs	r3, #0
 8003ce0:	9301      	str	r3, [sp, #4]
 8003ce2:	4b07      	ldr	r3, [pc, #28]	; (8003d00 <HAL_TIM_Base_MspInit+0x2c>)
 8003ce4:	6c5a      	ldr	r2, [r3, #68]	; 0x44
 8003ce6:	f042 0201 	orr.w	r2, r2, #1
 8003cea:	645a      	str	r2, [r3, #68]	; 0x44
 8003cec:	6c5b      	ldr	r3, [r3, #68]	; 0x44
 8003cee:	f003 0301 	and.w	r3, r3, #1
 8003cf2:	9301      	str	r3, [sp, #4]
 8003cf4:	9b01      	ldr	r3, [sp, #4]
  /* USER CODE BEGIN TIM1_MspInit 1 */

  /* USER CODE END TIM1_MspInit 1 */
  }

}
 8003cf6:	b002      	add	sp, #8
 8003cf8:	4770      	bx	lr
 8003cfa:	bf00      	nop
 8003cfc:	40010000 	.word	0x40010000
 8003d00:	40023800 	.word	0x40023800

08003d04 <HAL_TIM_Encoder_MspInit>:
* This function configures the hardware resources used in this example
* @param htim_encoder: TIM_Encoder handle pointer
* @retval None
*/
void HAL_TIM_Encoder_MspInit(TIM_HandleTypeDef* htim_encoder)
{
 8003d04:	b570      	push	{r4, r5, r6, lr}
 8003d06:	4604      	mov	r4, r0
 8003d08:	b088      	sub	sp, #32
  GPIO_InitTypeDef GPIO_InitStruct = {0};
 8003d0a:	2214      	movs	r2, #20
 8003d0c:	2100      	movs	r1, #0
 8003d0e:	a803      	add	r0, sp, #12
 8003d10:	f000 fab2 	bl	8004278 <memset>
  if(htim_encoder->Instance==TIM2)
 8003d14:	6823      	ldr	r3, [r4, #0]
 8003d16:	f1b3 4f80 	cmp.w	r3, #1073741824	; 0x40000000
 8003d1a:	d133      	bne.n	8003d84 <HAL_TIM_Encoder_MspInit+0x80>
  {
  /* USER CODE BEGIN TIM2_MspInit 0 */

  /* USER CODE END TIM2_MspInit 0 */
    /* Peripheral clock enable */
    __HAL_RCC_TIM2_CLK_ENABLE();
 8003d1c:	f503 330e 	add.w	r3, r3, #145408	; 0x23800
 8003d20:	2400      	movs	r4, #0
 8003d22:	9400      	str	r4, [sp, #0]
 8003d24:	6c1a      	ldr	r2, [r3, #64]	; 0x40
    GPIO_InitStruct.Pin = GPIO_PIN_0;
    GPIO_InitStruct.Mode = GPIO_MODE_AF_PP;
    GPIO_InitStruct.Pull = GPIO_NOPULL;
    GPIO_InitStruct.Speed = GPIO_SPEED_FREQ_LOW;
    GPIO_InitStruct.Alternate = GPIO_AF1_TIM2;
    HAL_GPIO_Init(GPIOA, &GPIO_InitStruct);
 8003d26:	4818      	ldr	r0, [pc, #96]	; (8003d88 <HAL_TIM_Encoder_MspInit+0x84>)
    __HAL_RCC_TIM2_CLK_ENABLE();
 8003d28:	f042 0201 	orr.w	r2, r2, #1
 8003d2c:	641a      	str	r2, [r3, #64]	; 0x40
 8003d2e:	6c1a      	ldr	r2, [r3, #64]	; 0x40
 8003d30:	f002 0201 	and.w	r2, r2, #1
 8003d34:	9200      	str	r2, [sp, #0]
 8003d36:	9a00      	ldr	r2, [sp, #0]
    __HAL_RCC_GPIOA_CLK_ENABLE();
 8003d38:	9401      	str	r4, [sp, #4]
 8003d3a:	6b1a      	ldr	r2, [r3, #48]	; 0x30
 8003d3c:	f042 0201 	orr.w	r2, r2, #1
 8003d40:	631a      	str	r2, [r3, #48]	; 0x30
 8003d42:	6b1a      	ldr	r2, [r3, #48]	; 0x30
 8003d44:	f002 0201 	and.w	r2, r2, #1
 8003d48:	9201      	str	r2, [sp, #4]
 8003d4a:	9a01      	ldr	r2, [sp, #4]
    __HAL_RCC_GPIOB_CLK_ENABLE();
 8003d4c:	9402      	str	r4, [sp, #8]
 8003d4e:	6b1a      	ldr	r2, [r3, #48]	; 0x30
 8003d50:	f042 0202 	orr.w	r2, r2, #2
 8003d54:	631a      	str	r2, [r3, #48]	; 0x30
 8003d56:	6b1b      	ldr	r3, [r3, #48]	; 0x30
 8003d58:	f003 0302 	and.w	r3, r3, #2
    GPIO_InitStruct.Pin = GPIO_PIN_0;
 8003d5c:	2501      	movs	r5, #1
    __HAL_RCC_GPIOB_CLK_ENABLE();
 8003d5e:	9302      	str	r3, [sp, #8]
    GPIO_InitStruct.Mode = GPIO_MODE_AF_PP;
 8003d60:	2602      	movs	r6, #2
    HAL_GPIO_Init(GPIOA, &GPIO_InitStruct);
 8003d62:	a903      	add	r1, sp, #12
    __HAL_RCC_GPIOB_CLK_ENABLE();
 8003d64:	9b02      	ldr	r3, [sp, #8]
    GPIO_InitStruct.Pin = GPIO_PIN_0;
 8003d66:	9503      	str	r5, [sp, #12]
    GPIO_InitStruct.Mode = GPIO_MODE_AF_PP;
 8003d68:	9604      	str	r6, [sp, #16]
    GPIO_InitStruct.Alternate = GPIO_AF1_TIM2;
 8003d6a:	9507      	str	r5, [sp, #28]
    HAL_GPIO_Init(GPIOA, &GPIO_InitStruct);
 8003d6c:	f7fd f8ce 	bl	8000f0c <HAL_GPIO_Init>

    GPIO_InitStruct.Pin = GPIO_PIN_3;
 8003d70:	2308      	movs	r3, #8
    GPIO_InitStruct.Mode = GPIO_MODE_AF_PP;
    GPIO_InitStruct.Pull = GPIO_NOPULL;
    GPIO_InitStruct.Speed = GPIO_SPEED_FREQ_LOW;
    GPIO_InitStruct.Alternate = GPIO_AF1_TIM2;
    HAL_GPIO_Init(GPIOB, &GPIO_InitStruct);
 8003d72:	a903      	add	r1, sp, #12
 8003d74:	4805      	ldr	r0, [pc, #20]	; (8003d8c <HAL_TIM_Encoder_MspInit+0x88>)
    GPIO_InitStruct.Pin = GPIO_PIN_3;
 8003d76:	9303      	str	r3, [sp, #12]
    GPIO_InitStruct.Mode = GPIO_MODE_AF_PP;
 8003d78:	9604      	str	r6, [sp, #16]
    GPIO_InitStruct.Pull = GPIO_NOPULL;
 8003d7a:	9405      	str	r4, [sp, #20]
    GPIO_InitStruct.Speed = GPIO_SPEED_FREQ_LOW;
 8003d7c:	9406      	str	r4, [sp, #24]
    GPIO_InitStruct.Alternate = GPIO_AF1_TIM2;
 8003d7e:	9507      	str	r5, [sp, #28]
    HAL_GPIO_Init(GPIOB, &GPIO_InitStruct);
 8003d80:	f7fd f8c4 	bl	8000f0c <HAL_GPIO_Init>
  /* USER CODE BEGIN TIM2_MspInit 1 */

  /* USER CODE END TIM2_MspInit 1 */
  }

}
 8003d84:	b008      	add	sp, #32
 8003d86:	bd70      	pop	{r4, r5, r6, pc}
 8003d88:	40020000 	.word	0x40020000
 8003d8c:	40020400 	.word	0x40020400

08003d90 <HAL_TIM_MspPostInit>:

void HAL_TIM_MspPostInit(TIM_HandleTypeDef* htim)
{
 8003d90:	b510      	push	{r4, lr}
 8003d92:	4604      	mov	r4, r0
 8003d94:	b086      	sub	sp, #24
  GPIO_InitTypeDef GPIO_InitStruct = {0};
 8003d96:	2214      	movs	r2, #20
 8003d98:	2100      	movs	r1, #0
 8003d9a:	a801      	add	r0, sp, #4
 8003d9c:	f000 fa6c 	bl	8004278 <memset>
  if(htim->Instance==TIM1)
 8003da0:	6822      	ldr	r2, [r4, #0]
 8003da2:	4b0e      	ldr	r3, [pc, #56]	; (8003ddc <HAL_TIM_MspPostInit+0x4c>)
 8003da4:	429a      	cmp	r2, r3
 8003da6:	d116      	bne.n	8003dd6 <HAL_TIM_MspPostInit+0x46>
  {
  /* USER CODE BEGIN TIM1_MspPostInit 0 */

  /* USER CODE END TIM1_MspPostInit 0 */
  
    __HAL_RCC_GPIOE_CLK_ENABLE();
 8003da8:	2300      	movs	r3, #0
 8003daa:	9300      	str	r3, [sp, #0]
 8003dac:	4b0c      	ldr	r3, [pc, #48]	; (8003de0 <HAL_TIM_MspPostInit+0x50>)
    GPIO_InitStruct.Pin = GPIO_PIN_9|GPIO_PIN_11|GPIO_PIN_13|GPIO_PIN_14;
    GPIO_InitStruct.Mode = GPIO_MODE_AF_PP;
    GPIO_InitStruct.Pull = GPIO_NOPULL;
    GPIO_InitStruct.Speed = GPIO_SPEED_FREQ_LOW;
    GPIO_InitStruct.Alternate = GPIO_AF1_TIM1;
    HAL_GPIO_Init(GPIOE, &GPIO_InitStruct);
 8003dae:	480d      	ldr	r0, [pc, #52]	; (8003de4 <HAL_TIM_MspPostInit+0x54>)
    __HAL_RCC_GPIOE_CLK_ENABLE();
 8003db0:	6b1a      	ldr	r2, [r3, #48]	; 0x30
 8003db2:	f042 0210 	orr.w	r2, r2, #16
 8003db6:	631a      	str	r2, [r3, #48]	; 0x30
 8003db8:	6b1b      	ldr	r3, [r3, #48]	; 0x30
 8003dba:	f003 0310 	and.w	r3, r3, #16
 8003dbe:	9300      	str	r3, [sp, #0]
 8003dc0:	9b00      	ldr	r3, [sp, #0]
    GPIO_InitStruct.Pin = GPIO_PIN_9|GPIO_PIN_11|GPIO_PIN_13|GPIO_PIN_14;
 8003dc2:	f44f 43d4 	mov.w	r3, #27136	; 0x6a00
 8003dc6:	9301      	str	r3, [sp, #4]
    GPIO_InitStruct.Mode = GPIO_MODE_AF_PP;
 8003dc8:	2302      	movs	r3, #2
 8003dca:	9302      	str	r3, [sp, #8]
    HAL_GPIO_Init(GPIOE, &GPIO_InitStruct);
 8003dcc:	a901      	add	r1, sp, #4
    GPIO_InitStruct.Alternate = GPIO_AF1_TIM1;
 8003dce:	2301      	movs	r3, #1
 8003dd0:	9305      	str	r3, [sp, #20]
    HAL_GPIO_Init(GPIOE, &GPIO_InitStruct);
 8003dd2:	f7fd f89b 	bl	8000f0c <HAL_GPIO_Init>
  /* USER CODE BEGIN TIM1_MspPostInit 1 */

  /* USER CODE END TIM1_MspPostInit 1 */
  }

}
 8003dd6:	b006      	add	sp, #24
 8003dd8:	bd10      	pop	{r4, pc}
 8003dda:	bf00      	nop
 8003ddc:	40010000 	.word	0x40010000
 8003de0:	40023800 	.word	0x40023800
 8003de4:	40021000 	.word	0x40021000

08003de8 <HAL_UART_MspInit>:
* This function configures the hardware resources used in this example
* @param huart: UART handle pointer
* @retval None
*/
void HAL_UART_MspInit(UART_HandleTypeDef* huart)
{
 8003de8:	e92d 43f0 	stmdb	sp!, {r4, r5, r6, r7, r8, r9, lr}
 8003dec:	4605      	mov	r5, r0
 8003dee:	b093      	sub	sp, #76	; 0x4c
  GPIO_InitTypeDef GPIO_InitStruct = {0};
 8003df0:	2214      	movs	r2, #20
 8003df2:	2100      	movs	r1, #0
 8003df4:	a80d      	add	r0, sp, #52	; 0x34
 8003df6:	f000 fa3f 	bl	8004278 <memset>
  if(huart->Instance==UART4)
 8003dfa:	682b      	ldr	r3, [r5, #0]
 8003dfc:	4a9a      	ldr	r2, [pc, #616]	; (8004068 <HAL_UART_MspInit+0x280>)
 8003dfe:	4293      	cmp	r3, r2
 8003e00:	d136      	bne.n	8003e70 <HAL_UART_MspInit+0x88>
  {
  /* USER CODE BEGIN UART4_MspInit 0 */

  /* USER CODE END UART4_MspInit 0 */
    /* Peripheral clock enable */
    __HAL_RCC_UART4_CLK_ENABLE();
 8003e02:	4b9a      	ldr	r3, [pc, #616]	; (800406c <HAL_UART_MspInit+0x284>)
    GPIO_InitStruct.Pin = GPIO_PIN_10|GPIO_PIN_11;
    GPIO_InitStruct.Mode = GPIO_MODE_AF_PP;
    GPIO_InitStruct.Pull = GPIO_PULLUP;
    GPIO_InitStruct.Speed = GPIO_SPEED_FREQ_VERY_HIGH;
    GPIO_InitStruct.Alternate = GPIO_AF8_UART4;
    HAL_GPIO_Init(GPIOC, &GPIO_InitStruct);
 8003e04:	489a      	ldr	r0, [pc, #616]	; (8004070 <HAL_UART_MspInit+0x288>)

    /* UART4 DMA Init */
    /* UART4_RX Init */
    hdma_uart4_rx.Instance = DMA1_Stream2;
 8003e06:	4c9b      	ldr	r4, [pc, #620]	; (8004074 <HAL_UART_MspInit+0x28c>)
    __HAL_RCC_UART4_CLK_ENABLE();
 8003e08:	2600      	movs	r6, #0
 8003e0a:	9601      	str	r6, [sp, #4]
 8003e0c:	6c1a      	ldr	r2, [r3, #64]	; 0x40
 8003e0e:	f442 2200 	orr.w	r2, r2, #524288	; 0x80000
 8003e12:	641a      	str	r2, [r3, #64]	; 0x40
 8003e14:	6c1a      	ldr	r2, [r3, #64]	; 0x40
 8003e16:	f402 2200 	and.w	r2, r2, #524288	; 0x80000
 8003e1a:	9201      	str	r2, [sp, #4]
 8003e1c:	9a01      	ldr	r2, [sp, #4]
    __HAL_RCC_GPIOC_CLK_ENABLE();
 8003e1e:	9602      	str	r6, [sp, #8]
 8003e20:	6b1a      	ldr	r2, [r3, #48]	; 0x30
 8003e22:	f042 0204 	orr.w	r2, r2, #4
 8003e26:	631a      	str	r2, [r3, #48]	; 0x30
 8003e28:	6b1b      	ldr	r3, [r3, #48]	; 0x30
 8003e2a:	f003 0304 	and.w	r3, r3, #4
 8003e2e:	9302      	str	r3, [sp, #8]
 8003e30:	9b02      	ldr	r3, [sp, #8]
    GPIO_InitStruct.Pin = GPIO_PIN_10|GPIO_PIN_11;
 8003e32:	f44f 6340 	mov.w	r3, #3072	; 0xc00
 8003e36:	930d      	str	r3, [sp, #52]	; 0x34
    GPIO_InitStruct.Mode = GPIO_MODE_AF_PP;
 8003e38:	2302      	movs	r3, #2
 8003e3a:	930e      	str	r3, [sp, #56]	; 0x38
    GPIO_InitStruct.Pull = GPIO_PULLUP;
 8003e3c:	2301      	movs	r3, #1
 8003e3e:	930f      	str	r3, [sp, #60]	; 0x3c
    GPIO_InitStruct.Speed = GPIO_SPEED_FREQ_VERY_HIGH;
 8003e40:	2303      	movs	r3, #3
 8003e42:	9310      	str	r3, [sp, #64]	; 0x40
    HAL_GPIO_Init(GPIOC, &GPIO_InitStruct);
 8003e44:	a90d      	add	r1, sp, #52	; 0x34
    GPIO_InitStruct.Alternate = GPIO_AF8_UART4;
 8003e46:	2308      	movs	r3, #8
 8003e48:	9311      	str	r3, [sp, #68]	; 0x44
    HAL_GPIO_Init(GPIOC, &GPIO_InitStruct);
 8003e4a:	f7fd f85f 	bl	8000f0c <HAL_GPIO_Init>
    hdma_uart4_rx.Instance = DMA1_Stream2;
 8003e4e:	4b8a      	ldr	r3, [pc, #552]	; (8004078 <HAL_UART_MspInit+0x290>)
    GPIO_InitStruct.Alternate = GPIO_AF7_USART3;
    HAL_GPIO_Init(GPIOD, &GPIO_InitStruct);

    /* USART3 DMA Init */
    /* USART3_RX Init */
    hdma_usart3_rx.Instance = DMA1_Stream1;
 8003e50:	6023      	str	r3, [r4, #0]
    hdma_usart3_rx.Init.Channel = DMA_CHANNEL_4;
 8003e52:	f04f 6300 	mov.w	r3, #134217728	; 0x8000000
    HAL_GPIO_Init(GPIOC, &GPIO_InitStruct);

    /* USART6 DMA Init */
    /* USART6_RX Init */
    hdma_usart6_rx.Instance = DMA2_Stream1;
    hdma_usart6_rx.Init.Channel = DMA_CHANNEL_5;
 8003e56:	6063      	str	r3, [r4, #4]
    hdma_usart6_rx.Init.Direction = DMA_PERIPH_TO_MEMORY;
    hdma_usart6_rx.Init.PeriphInc = DMA_PINC_DISABLE;
    hdma_usart6_rx.Init.MemInc = DMA_MINC_ENABLE;
 8003e58:	f44f 6380 	mov.w	r3, #1024	; 0x400
 8003e5c:	6123      	str	r3, [r4, #16]
    hdma_usart6_rx.Init.PeriphDataAlignment = DMA_PDATAALIGN_BYTE;
    hdma_usart6_rx.Init.MemDataAlignment = DMA_MDATAALIGN_BYTE;
    hdma_usart6_rx.Init.Mode = DMA_CIRCULAR;
 8003e5e:	f44f 7380 	mov.w	r3, #256	; 0x100
    hdma_usart6_rx.Init.Direction = DMA_PERIPH_TO_MEMORY;
 8003e62:	60a6      	str	r6, [r4, #8]
    hdma_usart6_rx.Init.PeriphInc = DMA_PINC_DISABLE;
 8003e64:	60e6      	str	r6, [r4, #12]
    hdma_usart6_rx.Init.PeriphDataAlignment = DMA_PDATAALIGN_BYTE;
 8003e66:	6166      	str	r6, [r4, #20]
    hdma_usart6_rx.Init.MemDataAlignment = DMA_MDATAALIGN_BYTE;
 8003e68:	61a6      	str	r6, [r4, #24]
    hdma_usart6_rx.Init.Mode = DMA_CIRCULAR;
 8003e6a:	61e3      	str	r3, [r4, #28]
    hdma_usart6_rx.Init.Priority = DMA_PRIORITY_LOW;
 8003e6c:	6226      	str	r6, [r4, #32]
 8003e6e:	e052      	b.n	8003f16 <HAL_UART_MspInit+0x12e>
  else if(huart->Instance==UART5)
 8003e70:	4a82      	ldr	r2, [pc, #520]	; (800407c <HAL_UART_MspInit+0x294>)
 8003e72:	4293      	cmp	r3, r2
 8003e74:	d15b      	bne.n	8003f2e <HAL_UART_MspInit+0x146>
    __HAL_RCC_UART5_CLK_ENABLE();
 8003e76:	4b7d      	ldr	r3, [pc, #500]	; (800406c <HAL_UART_MspInit+0x284>)
    HAL_GPIO_Init(GPIOC, &GPIO_InitStruct);
 8003e78:	487d      	ldr	r0, [pc, #500]	; (8004070 <HAL_UART_MspInit+0x288>)
    __HAL_RCC_UART5_CLK_ENABLE();
 8003e7a:	2600      	movs	r6, #0
 8003e7c:	9603      	str	r6, [sp, #12]
 8003e7e:	6c1a      	ldr	r2, [r3, #64]	; 0x40
 8003e80:	f442 1280 	orr.w	r2, r2, #1048576	; 0x100000
 8003e84:	641a      	str	r2, [r3, #64]	; 0x40
 8003e86:	6c1a      	ldr	r2, [r3, #64]	; 0x40
 8003e88:	f402 1280 	and.w	r2, r2, #1048576	; 0x100000
 8003e8c:	9203      	str	r2, [sp, #12]
 8003e8e:	9a03      	ldr	r2, [sp, #12]
    __HAL_RCC_GPIOC_CLK_ENABLE();
 8003e90:	9604      	str	r6, [sp, #16]
 8003e92:	6b1a      	ldr	r2, [r3, #48]	; 0x30
 8003e94:	f042 0204 	orr.w	r2, r2, #4
 8003e98:	631a      	str	r2, [r3, #48]	; 0x30
 8003e9a:	6b1a      	ldr	r2, [r3, #48]	; 0x30
 8003e9c:	f002 0204 	and.w	r2, r2, #4
 8003ea0:	9204      	str	r2, [sp, #16]
 8003ea2:	9a04      	ldr	r2, [sp, #16]
    __HAL_RCC_GPIOD_CLK_ENABLE();
 8003ea4:	9605      	str	r6, [sp, #20]
 8003ea6:	6b1a      	ldr	r2, [r3, #48]	; 0x30
 8003ea8:	f042 0208 	orr.w	r2, r2, #8
 8003eac:	631a      	str	r2, [r3, #48]	; 0x30
 8003eae:	6b1b      	ldr	r3, [r3, #48]	; 0x30
 8003eb0:	f003 0308 	and.w	r3, r3, #8
 8003eb4:	9305      	str	r3, [sp, #20]
    GPIO_InitStruct.Alternate = GPIO_AF8_UART5;
 8003eb6:	2408      	movs	r4, #8
    __HAL_RCC_GPIOD_CLK_ENABLE();
 8003eb8:	9b05      	ldr	r3, [sp, #20]
    GPIO_InitStruct.Alternate = GPIO_AF8_UART5;
 8003eba:	9411      	str	r4, [sp, #68]	; 0x44
    GPIO_InitStruct.Pin = GPIO_PIN_12;
 8003ebc:	f44f 5380 	mov.w	r3, #4096	; 0x1000
    GPIO_InitStruct.Mode = GPIO_MODE_AF_PP;
 8003ec0:	f04f 0902 	mov.w	r9, #2
    GPIO_InitStruct.Pull = GPIO_PULLUP;
 8003ec4:	f04f 0801 	mov.w	r8, #1
    GPIO_InitStruct.Speed = GPIO_SPEED_FREQ_VERY_HIGH;
 8003ec8:	2703      	movs	r7, #3
    HAL_GPIO_Init(GPIOC, &GPIO_InitStruct);
 8003eca:	a90d      	add	r1, sp, #52	; 0x34
    GPIO_InitStruct.Pin = GPIO_PIN_12;
 8003ecc:	930d      	str	r3, [sp, #52]	; 0x34
    GPIO_InitStruct.Mode = GPIO_MODE_AF_PP;
 8003ece:	f8cd 9038 	str.w	r9, [sp, #56]	; 0x38
    GPIO_InitStruct.Pull = GPIO_PULLUP;
 8003ed2:	f8cd 803c 	str.w	r8, [sp, #60]	; 0x3c
    GPIO_InitStruct.Speed = GPIO_SPEED_FREQ_VERY_HIGH;
 8003ed6:	9710      	str	r7, [sp, #64]	; 0x40
    HAL_GPIO_Init(GPIOC, &GPIO_InitStruct);
 8003ed8:	f7fd f818 	bl	8000f0c <HAL_GPIO_Init>
    GPIO_InitStruct.Pin = GPIO_PIN_2;
 8003edc:	2304      	movs	r3, #4
    HAL_GPIO_Init(GPIOD, &GPIO_InitStruct);
 8003ede:	a90d      	add	r1, sp, #52	; 0x34
 8003ee0:	4867      	ldr	r0, [pc, #412]	; (8004080 <HAL_UART_MspInit+0x298>)
    GPIO_InitStruct.Pin = GPIO_PIN_2;
 8003ee2:	930d      	str	r3, [sp, #52]	; 0x34
    GPIO_InitStruct.Alternate = GPIO_AF8_UART5;
 8003ee4:	9411      	str	r4, [sp, #68]	; 0x44
    GPIO_InitStruct.Mode = GPIO_MODE_AF_PP;
 8003ee6:	f8cd 9038 	str.w	r9, [sp, #56]	; 0x38
    hdma_uart5_rx.Instance = DMA1_Stream0;
 8003eea:	4c66      	ldr	r4, [pc, #408]	; (8004084 <HAL_UART_MspInit+0x29c>)
    GPIO_InitStruct.Pull = GPIO_PULLUP;
 8003eec:	f8cd 803c 	str.w	r8, [sp, #60]	; 0x3c
    GPIO_InitStruct.Speed = GPIO_SPEED_FREQ_VERY_HIGH;
 8003ef0:	9710      	str	r7, [sp, #64]	; 0x40
    HAL_GPIO_Init(GPIOD, &GPIO_InitStruct);
 8003ef2:	f7fd f80b 	bl	8000f0c <HAL_GPIO_Init>
    hdma_uart5_rx.Init.Channel = DMA_CHANNEL_4;
 8003ef6:	4a64      	ldr	r2, [pc, #400]	; (8004088 <HAL_UART_MspInit+0x2a0>)
    hdma_uart5_rx.Init.Direction = DMA_PERIPH_TO_MEMORY;
 8003ef8:	60a6      	str	r6, [r4, #8]
    hdma_uart5_rx.Init.Channel = DMA_CHANNEL_4;
 8003efa:	f04f 6300 	mov.w	r3, #134217728	; 0x8000000
 8003efe:	e884 000c 	stmia.w	r4, {r2, r3}
    hdma_uart5_rx.Init.MemInc = DMA_MINC_ENABLE;
 8003f02:	f44f 6380 	mov.w	r3, #1024	; 0x400
 8003f06:	6123      	str	r3, [r4, #16]
    hdma_uart5_rx.Init.Priority = DMA_PRIORITY_HIGH;
 8003f08:	f44f 3300 	mov.w	r3, #131072	; 0x20000
    hdma_uart5_rx.Init.PeriphInc = DMA_PINC_DISABLE;
 8003f0c:	60e6      	str	r6, [r4, #12]
    hdma_uart5_rx.Init.PeriphDataAlignment = DMA_PDATAALIGN_BYTE;
 8003f0e:	6166      	str	r6, [r4, #20]
    hdma_uart5_rx.Init.MemDataAlignment = DMA_MDATAALIGN_BYTE;
 8003f10:	61a6      	str	r6, [r4, #24]
    hdma_uart5_rx.Init.Mode = DMA_NORMAL;
 8003f12:	61e6      	str	r6, [r4, #28]
    hdma_uart5_rx.Init.Priority = DMA_PRIORITY_HIGH;
 8003f14:	6223      	str	r3, [r4, #32]
    hdma_usart6_rx.Init.FIFOMode = DMA_FIFOMODE_DISABLE;
 8003f16:	6266      	str	r6, [r4, #36]	; 0x24
    if (HAL_DMA_Init(&hdma_usart6_rx) != HAL_OK)
 8003f18:	4620      	mov	r0, r4
 8003f1a:	f7fc fc53 	bl	80007c4 <HAL_DMA_Init>
 8003f1e:	b108      	cbz	r0, 8003f24 <HAL_UART_MspInit+0x13c>
    {
      Error_Handler();
 8003f20:	f7ff fdfa 	bl	8003b18 <Error_Handler>
    }

    __HAL_LINKDMA(huart,hdmarx,hdma_usart6_rx);
 8003f24:	636c      	str	r4, [r5, #52]	; 0x34
 8003f26:	63a5      	str	r5, [r4, #56]	; 0x38
  /* USER CODE BEGIN USART6_MspInit 1 */

  /* USER CODE END USART6_MspInit 1 */
  }

}
 8003f28:	b013      	add	sp, #76	; 0x4c
 8003f2a:	e8bd 83f0 	ldmia.w	sp!, {r4, r5, r6, r7, r8, r9, pc}
  else if(huart->Instance==USART2)
 8003f2e:	4a57      	ldr	r2, [pc, #348]	; (800408c <HAL_UART_MspInit+0x2a4>)
 8003f30:	4293      	cmp	r3, r2
 8003f32:	d140      	bne.n	8003fb6 <HAL_UART_MspInit+0x1ce>
    __HAL_RCC_USART2_CLK_ENABLE();
 8003f34:	4b4d      	ldr	r3, [pc, #308]	; (800406c <HAL_UART_MspInit+0x284>)
    HAL_GPIO_Init(GPIOA, &GPIO_InitStruct);
 8003f36:	4856      	ldr	r0, [pc, #344]	; (8004090 <HAL_UART_MspInit+0x2a8>)
    __HAL_RCC_USART2_CLK_ENABLE();
 8003f38:	2600      	movs	r6, #0
 8003f3a:	9606      	str	r6, [sp, #24]
 8003f3c:	6c1a      	ldr	r2, [r3, #64]	; 0x40
 8003f3e:	f442 3200 	orr.w	r2, r2, #131072	; 0x20000
 8003f42:	641a      	str	r2, [r3, #64]	; 0x40
 8003f44:	6c1a      	ldr	r2, [r3, #64]	; 0x40
 8003f46:	f402 3200 	and.w	r2, r2, #131072	; 0x20000
 8003f4a:	9206      	str	r2, [sp, #24]
 8003f4c:	9a06      	ldr	r2, [sp, #24]
    __HAL_RCC_GPIOA_CLK_ENABLE();
 8003f4e:	9607      	str	r6, [sp, #28]
 8003f50:	6b1a      	ldr	r2, [r3, #48]	; 0x30
 8003f52:	f042 0201 	orr.w	r2, r2, #1
 8003f56:	631a      	str	r2, [r3, #48]	; 0x30
 8003f58:	6b1a      	ldr	r2, [r3, #48]	; 0x30
 8003f5a:	f002 0201 	and.w	r2, r2, #1
 8003f5e:	9207      	str	r2, [sp, #28]
 8003f60:	9a07      	ldr	r2, [sp, #28]
    __HAL_RCC_GPIOD_CLK_ENABLE();
 8003f62:	9608      	str	r6, [sp, #32]
 8003f64:	6b1a      	ldr	r2, [r3, #48]	; 0x30
 8003f66:	f042 0208 	orr.w	r2, r2, #8
 8003f6a:	631a      	str	r2, [r3, #48]	; 0x30
 8003f6c:	6b1b      	ldr	r3, [r3, #48]	; 0x30
 8003f6e:	f003 0308 	and.w	r3, r3, #8
 8003f72:	9308      	str	r3, [sp, #32]
    GPIO_InitStruct.Alternate = GPIO_AF7_USART2;
 8003f74:	2407      	movs	r4, #7
    __HAL_RCC_GPIOD_CLK_ENABLE();
 8003f76:	9b08      	ldr	r3, [sp, #32]
    GPIO_InitStruct.Alternate = GPIO_AF7_USART2;
 8003f78:	9411      	str	r4, [sp, #68]	; 0x44
    GPIO_InitStruct.Pin = GPIO_PIN_3;
 8003f7a:	2308      	movs	r3, #8
    GPIO_InitStruct.Mode = GPIO_MODE_AF_PP;
 8003f7c:	f04f 0902 	mov.w	r9, #2
    GPIO_InitStruct.Pull = GPIO_PULLUP;
 8003f80:	f04f 0801 	mov.w	r8, #1
    GPIO_InitStruct.Speed = GPIO_SPEED_FREQ_VERY_HIGH;
 8003f84:	2703      	movs	r7, #3
    HAL_GPIO_Init(GPIOA, &GPIO_InitStruct);
 8003f86:	a90d      	add	r1, sp, #52	; 0x34
    GPIO_InitStruct.Pin = GPIO_PIN_3;
 8003f88:	930d      	str	r3, [sp, #52]	; 0x34
    GPIO_InitStruct.Mode = GPIO_MODE_AF_PP;
 8003f8a:	f8cd 9038 	str.w	r9, [sp, #56]	; 0x38
    GPIO_InitStruct.Pull = GPIO_PULLUP;
 8003f8e:	f8cd 803c 	str.w	r8, [sp, #60]	; 0x3c
    GPIO_InitStruct.Speed = GPIO_SPEED_FREQ_VERY_HIGH;
 8003f92:	9710      	str	r7, [sp, #64]	; 0x40
    HAL_GPIO_Init(GPIOA, &GPIO_InitStruct);
 8003f94:	f7fc ffba 	bl	8000f0c <HAL_GPIO_Init>
    GPIO_InitStruct.Pin = GPIO_PIN_5;
 8003f98:	2320      	movs	r3, #32
    HAL_GPIO_Init(GPIOD, &GPIO_InitStruct);
 8003f9a:	a90d      	add	r1, sp, #52	; 0x34
 8003f9c:	4838      	ldr	r0, [pc, #224]	; (8004080 <HAL_UART_MspInit+0x298>)
    GPIO_InitStruct.Pin = GPIO_PIN_5;
 8003f9e:	930d      	str	r3, [sp, #52]	; 0x34
    GPIO_InitStruct.Alternate = GPIO_AF7_USART2;
 8003fa0:	9411      	str	r4, [sp, #68]	; 0x44
    GPIO_InitStruct.Mode = GPIO_MODE_AF_PP;
 8003fa2:	f8cd 9038 	str.w	r9, [sp, #56]	; 0x38
    GPIO_InitStruct.Pull = GPIO_PULLUP;
 8003fa6:	f8cd 803c 	str.w	r8, [sp, #60]	; 0x3c
    GPIO_InitStruct.Speed = GPIO_SPEED_FREQ_VERY_HIGH;
 8003faa:	9710      	str	r7, [sp, #64]	; 0x40
    hdma_usart2_rx.Instance = DMA1_Stream5;
 8003fac:	4c39      	ldr	r4, [pc, #228]	; (8004094 <HAL_UART_MspInit+0x2ac>)
    HAL_GPIO_Init(GPIOD, &GPIO_InitStruct);
 8003fae:	f7fc ffad 	bl	8000f0c <HAL_GPIO_Init>
    hdma_usart2_rx.Instance = DMA1_Stream5;
 8003fb2:	4b39      	ldr	r3, [pc, #228]	; (8004098 <HAL_UART_MspInit+0x2b0>)
 8003fb4:	e74c      	b.n	8003e50 <HAL_UART_MspInit+0x68>
  else if(huart->Instance==USART3)
 8003fb6:	4a39      	ldr	r2, [pc, #228]	; (800409c <HAL_UART_MspInit+0x2b4>)
 8003fb8:	4293      	cmp	r3, r2
 8003fba:	d127      	bne.n	800400c <HAL_UART_MspInit+0x224>
    __HAL_RCC_USART3_CLK_ENABLE();
 8003fbc:	4b2b      	ldr	r3, [pc, #172]	; (800406c <HAL_UART_MspInit+0x284>)
    HAL_GPIO_Init(GPIOD, &GPIO_InitStruct);
 8003fbe:	4830      	ldr	r0, [pc, #192]	; (8004080 <HAL_UART_MspInit+0x298>)
    hdma_usart3_rx.Instance = DMA1_Stream1;
 8003fc0:	4c37      	ldr	r4, [pc, #220]	; (80040a0 <HAL_UART_MspInit+0x2b8>)
    __HAL_RCC_USART3_CLK_ENABLE();
 8003fc2:	2600      	movs	r6, #0
 8003fc4:	9609      	str	r6, [sp, #36]	; 0x24
 8003fc6:	6c1a      	ldr	r2, [r3, #64]	; 0x40
 8003fc8:	f442 2280 	orr.w	r2, r2, #262144	; 0x40000
 8003fcc:	641a      	str	r2, [r3, #64]	; 0x40
 8003fce:	6c1a      	ldr	r2, [r3, #64]	; 0x40
 8003fd0:	f402 2280 	and.w	r2, r2, #262144	; 0x40000
 8003fd4:	9209      	str	r2, [sp, #36]	; 0x24
 8003fd6:	9a09      	ldr	r2, [sp, #36]	; 0x24
    __HAL_RCC_GPIOD_CLK_ENABLE();
 8003fd8:	960a      	str	r6, [sp, #40]	; 0x28
 8003fda:	6b1a      	ldr	r2, [r3, #48]	; 0x30
 8003fdc:	f042 0208 	orr.w	r2, r2, #8
 8003fe0:	631a      	str	r2, [r3, #48]	; 0x30
 8003fe2:	6b1b      	ldr	r3, [r3, #48]	; 0x30
 8003fe4:	f003 0308 	and.w	r3, r3, #8
 8003fe8:	930a      	str	r3, [sp, #40]	; 0x28
 8003fea:	9b0a      	ldr	r3, [sp, #40]	; 0x28
    GPIO_InitStruct.Pin = STLK_RX_Pin|STLK_TX_Pin;
 8003fec:	f44f 7340 	mov.w	r3, #768	; 0x300
 8003ff0:	930d      	str	r3, [sp, #52]	; 0x34
    GPIO_InitStruct.Mode = GPIO_MODE_AF_PP;
 8003ff2:	2302      	movs	r3, #2
 8003ff4:	930e      	str	r3, [sp, #56]	; 0x38
    GPIO_InitStruct.Pull = GPIO_PULLUP;
 8003ff6:	2301      	movs	r3, #1
 8003ff8:	930f      	str	r3, [sp, #60]	; 0x3c
    GPIO_InitStruct.Speed = GPIO_SPEED_FREQ_VERY_HIGH;
 8003ffa:	2303      	movs	r3, #3
 8003ffc:	9310      	str	r3, [sp, #64]	; 0x40
    HAL_GPIO_Init(GPIOD, &GPIO_InitStruct);
 8003ffe:	a90d      	add	r1, sp, #52	; 0x34
    GPIO_InitStruct.Alternate = GPIO_AF7_USART3;
 8004000:	2307      	movs	r3, #7
 8004002:	9311      	str	r3, [sp, #68]	; 0x44
    HAL_GPIO_Init(GPIOD, &GPIO_InitStruct);
 8004004:	f7fc ff82 	bl	8000f0c <HAL_GPIO_Init>
    hdma_usart3_rx.Instance = DMA1_Stream1;
 8004008:	4b26      	ldr	r3, [pc, #152]	; (80040a4 <HAL_UART_MspInit+0x2bc>)
 800400a:	e721      	b.n	8003e50 <HAL_UART_MspInit+0x68>
  else if(huart->Instance==USART6)
 800400c:	4a26      	ldr	r2, [pc, #152]	; (80040a8 <HAL_UART_MspInit+0x2c0>)
 800400e:	4293      	cmp	r3, r2
 8004010:	d18a      	bne.n	8003f28 <HAL_UART_MspInit+0x140>
    __HAL_RCC_USART6_CLK_ENABLE();
 8004012:	4b16      	ldr	r3, [pc, #88]	; (800406c <HAL_UART_MspInit+0x284>)
    HAL_GPIO_Init(GPIOC, &GPIO_InitStruct);
 8004014:	4816      	ldr	r0, [pc, #88]	; (8004070 <HAL_UART_MspInit+0x288>)
    hdma_usart6_rx.Instance = DMA2_Stream1;
 8004016:	4c25      	ldr	r4, [pc, #148]	; (80040ac <HAL_UART_MspInit+0x2c4>)
    __HAL_RCC_USART6_CLK_ENABLE();
 8004018:	2600      	movs	r6, #0
 800401a:	960b      	str	r6, [sp, #44]	; 0x2c
 800401c:	6c5a      	ldr	r2, [r3, #68]	; 0x44
 800401e:	f042 0220 	orr.w	r2, r2, #32
 8004022:	645a      	str	r2, [r3, #68]	; 0x44
 8004024:	6c5a      	ldr	r2, [r3, #68]	; 0x44
 8004026:	f002 0220 	and.w	r2, r2, #32
 800402a:	920b      	str	r2, [sp, #44]	; 0x2c
 800402c:	9a0b      	ldr	r2, [sp, #44]	; 0x2c
    __HAL_RCC_GPIOC_CLK_ENABLE();
 800402e:	960c      	str	r6, [sp, #48]	; 0x30
 8004030:	6b1a      	ldr	r2, [r3, #48]	; 0x30
 8004032:	f042 0204 	orr.w	r2, r2, #4
 8004036:	631a      	str	r2, [r3, #48]	; 0x30
 8004038:	6b1b      	ldr	r3, [r3, #48]	; 0x30
 800403a:	f003 0304 	and.w	r3, r3, #4
 800403e:	930c      	str	r3, [sp, #48]	; 0x30
 8004040:	9b0c      	ldr	r3, [sp, #48]	; 0x30
    GPIO_InitStruct.Pin = GPIO_PIN_6|GPIO_PIN_7;
 8004042:	23c0      	movs	r3, #192	; 0xc0
 8004044:	930d      	str	r3, [sp, #52]	; 0x34
    GPIO_InitStruct.Mode = GPIO_MODE_AF_PP;
 8004046:	2302      	movs	r3, #2
 8004048:	930e      	str	r3, [sp, #56]	; 0x38
    GPIO_InitStruct.Pull = GPIO_PULLUP;
 800404a:	2301      	movs	r3, #1
 800404c:	930f      	str	r3, [sp, #60]	; 0x3c
    GPIO_InitStruct.Speed = GPIO_SPEED_FREQ_VERY_HIGH;
 800404e:	2303      	movs	r3, #3
 8004050:	9310      	str	r3, [sp, #64]	; 0x40
    HAL_GPIO_Init(GPIOC, &GPIO_InitStruct);
 8004052:	a90d      	add	r1, sp, #52	; 0x34
    GPIO_InitStruct.Alternate = GPIO_AF8_USART6;
 8004054:	2308      	movs	r3, #8
 8004056:	9311      	str	r3, [sp, #68]	; 0x44
    HAL_GPIO_Init(GPIOC, &GPIO_InitStruct);
 8004058:	f7fc ff58 	bl	8000f0c <HAL_GPIO_Init>
    hdma_usart6_rx.Instance = DMA2_Stream1;
 800405c:	4b14      	ldr	r3, [pc, #80]	; (80040b0 <HAL_UART_MspInit+0x2c8>)
 800405e:	6023      	str	r3, [r4, #0]
    hdma_usart6_rx.Init.Channel = DMA_CHANNEL_5;
 8004060:	f04f 6320 	mov.w	r3, #167772160	; 0xa000000
 8004064:	e6f7      	b.n	8003e56 <HAL_UART_MspInit+0x6e>
 8004066:	bf00      	nop
 8004068:	40004c00 	.word	0x40004c00
 800406c:	40023800 	.word	0x40023800
 8004070:	40020800 	.word	0x40020800
 8004074:	20000080 	.word	0x20000080
 8004078:	40026040 	.word	0x40026040
 800407c:	40005000 	.word	0x40005000
 8004080:	40020c00 	.word	0x40020c00
 8004084:	20000854 	.word	0x20000854
 8004088:	40026010 	.word	0x40026010
 800408c:	40004400 	.word	0x40004400
 8004090:	40020000 	.word	0x40020000
 8004094:	200000e0 	.word	0x200000e0
 8004098:	40026088 	.word	0x40026088
 800409c:	40004800 	.word	0x40004800
 80040a0:	200001a8 	.word	0x200001a8
 80040a4:	40026028 	.word	0x40026028
 80040a8:	40011400 	.word	0x40011400
 80040ac:	20000140 	.word	0x20000140
 80040b0:	40026428 	.word	0x40026428

080040b4 <HAL_PCD_MspInit>:
* This function configures the hardware resources used in this example
* @param hpcd: PCD handle pointer
* @retval None
*/
void HAL_PCD_MspInit(PCD_HandleTypeDef* hpcd)
{
 80040b4:	b530      	push	{r4, r5, lr}
 80040b6:	4604      	mov	r4, r0
 80040b8:	b089      	sub	sp, #36	; 0x24
  GPIO_InitTypeDef GPIO_InitStruct = {0};
 80040ba:	2214      	movs	r2, #20
 80040bc:	2100      	movs	r1, #0
 80040be:	a803      	add	r0, sp, #12
 80040c0:	f000 f8da 	bl	8004278 <memset>
  if(hpcd->Instance==USB_OTG_FS)
 80040c4:	6823      	ldr	r3, [r4, #0]
 80040c6:	f1b3 4fa0 	cmp.w	r3, #1342177280	; 0x50000000
 80040ca:	d12f      	bne.n	800412c <HAL_PCD_MspInit+0x78>
  {
  /* USER CODE BEGIN USB_OTG_FS_MspInit 0 */

  /* USER CODE END USB_OTG_FS_MspInit 0 */
  
    __HAL_RCC_GPIOA_CLK_ENABLE();
 80040cc:	4c18      	ldr	r4, [pc, #96]	; (8004130 <HAL_PCD_MspInit+0x7c>)
    GPIO_InitStruct.Pin = USB_SOF_Pin|USB_ID_Pin|USB_DM_Pin|USB_DP_Pin;
    GPIO_InitStruct.Mode = GPIO_MODE_AF_PP;
    GPIO_InitStruct.Pull = GPIO_NOPULL;
    GPIO_InitStruct.Speed = GPIO_SPEED_FREQ_VERY_HIGH;
    GPIO_InitStruct.Alternate = GPIO_AF10_OTG_FS;
    HAL_GPIO_Init(GPIOA, &GPIO_InitStruct);
 80040ce:	4819      	ldr	r0, [pc, #100]	; (8004134 <HAL_PCD_MspInit+0x80>)
    __HAL_RCC_GPIOA_CLK_ENABLE();
 80040d0:	2500      	movs	r5, #0
 80040d2:	9501      	str	r5, [sp, #4]
 80040d4:	6b23      	ldr	r3, [r4, #48]	; 0x30
 80040d6:	f043 0301 	orr.w	r3, r3, #1
 80040da:	6323      	str	r3, [r4, #48]	; 0x30
 80040dc:	6b23      	ldr	r3, [r4, #48]	; 0x30
 80040de:	f003 0301 	and.w	r3, r3, #1
 80040e2:	9301      	str	r3, [sp, #4]
 80040e4:	9b01      	ldr	r3, [sp, #4]
    GPIO_InitStruct.Pin = USB_SOF_Pin|USB_ID_Pin|USB_DM_Pin|USB_DP_Pin;
 80040e6:	f44f 53e8 	mov.w	r3, #7424	; 0x1d00
 80040ea:	9303      	str	r3, [sp, #12]
    GPIO_InitStruct.Mode = GPIO_MODE_AF_PP;
 80040ec:	2302      	movs	r3, #2
 80040ee:	9304      	str	r3, [sp, #16]
    GPIO_InitStruct.Speed = GPIO_SPEED_FREQ_VERY_HIGH;
 80040f0:	2303      	movs	r3, #3
 80040f2:	9306      	str	r3, [sp, #24]
    HAL_GPIO_Init(GPIOA, &GPIO_InitStruct);
 80040f4:	a903      	add	r1, sp, #12
    GPIO_InitStruct.Alternate = GPIO_AF10_OTG_FS;
 80040f6:	230a      	movs	r3, #10
 80040f8:	9307      	str	r3, [sp, #28]
    HAL_GPIO_Init(GPIOA, &GPIO_InitStruct);
 80040fa:	f7fc ff07 	bl	8000f0c <HAL_GPIO_Init>

    GPIO_InitStruct.Pin = USB_VBUS_Pin;
 80040fe:	f44f 7300 	mov.w	r3, #512	; 0x200
    GPIO_InitStruct.Mode = GPIO_MODE_INPUT;
    GPIO_InitStruct.Pull = GPIO_NOPULL;
    HAL_GPIO_Init(USB_VBUS_GPIO_Port, &GPIO_InitStruct);
 8004102:	a903      	add	r1, sp, #12
 8004104:	480b      	ldr	r0, [pc, #44]	; (8004134 <HAL_PCD_MspInit+0x80>)
    GPIO_InitStruct.Pin = USB_VBUS_Pin;
 8004106:	9303      	str	r3, [sp, #12]
    GPIO_InitStruct.Mode = GPIO_MODE_INPUT;
 8004108:	9504      	str	r5, [sp, #16]
    GPIO_InitStruct.Pull = GPIO_NOPULL;
 800410a:	9505      	str	r5, [sp, #20]
    HAL_GPIO_Init(USB_VBUS_GPIO_Port, &GPIO_InitStruct);
 800410c:	f7fc fefe 	bl	8000f0c <HAL_GPIO_Init>

    /* Peripheral clock enable */
    __HAL_RCC_USB_OTG_FS_CLK_ENABLE();
 8004110:	6b63      	ldr	r3, [r4, #52]	; 0x34
 8004112:	f043 0380 	orr.w	r3, r3, #128	; 0x80
 8004116:	6363      	str	r3, [r4, #52]	; 0x34
 8004118:	9502      	str	r5, [sp, #8]
 800411a:	6c63      	ldr	r3, [r4, #68]	; 0x44
 800411c:	f443 4380 	orr.w	r3, r3, #16384	; 0x4000
 8004120:	6463      	str	r3, [r4, #68]	; 0x44
 8004122:	6c63      	ldr	r3, [r4, #68]	; 0x44
 8004124:	f403 4380 	and.w	r3, r3, #16384	; 0x4000
 8004128:	9302      	str	r3, [sp, #8]
 800412a:	9b02      	ldr	r3, [sp, #8]
  /* USER CODE BEGIN USB_OTG_FS_MspInit 1 */

  /* USER CODE END USB_OTG_FS_MspInit 1 */
  }

}
 800412c:	b009      	add	sp, #36	; 0x24
 800412e:	bd30      	pop	{r4, r5, pc}
 8004130:	40023800 	.word	0x40023800
 8004134:	40020000 	.word	0x40020000

08004138 <NMI_Handler>:
 8004138:	4770      	bx	lr

0800413a <HardFault_Handler>:

/**
  * @brief This function handles Hard fault interrupt.
  */
void HardFault_Handler(void)
{
 800413a:	e7fe      	b.n	800413a <HardFault_Handler>

0800413c <MemManage_Handler>:

/**
  * @brief This function handles Memory management fault.
  */
void MemManage_Handler(void)
{
 800413c:	e7fe      	b.n	800413c <MemManage_Handler>

0800413e <BusFault_Handler>:

/**
  * @brief This function handles Pre-fetch fault, memory access fault.
  */
void BusFault_Handler(void)
{
 800413e:	e7fe      	b.n	800413e <BusFault_Handler>

08004140 <UsageFault_Handler>:

/**
  * @brief This function handles Undefined instruction or illegal state.
  */
void UsageFault_Handler(void)
{
 8004140:	e7fe      	b.n	8004140 <UsageFault_Handler>

08004142 <SVC_Handler>:
 8004142:	4770      	bx	lr

08004144 <DebugMon_Handler>:
 8004144:	4770      	bx	lr

08004146 <PendSV_Handler>:

/**
  * @brief This function handles Pendable request for system service.
  */
void PendSV_Handler(void)
{
 8004146:	4770      	bx	lr

08004148 <SysTick_Handler>:
void SysTick_Handler(void)
{
  /* USER CODE BEGIN SysTick_IRQn 0 */

  /* USER CODE END SysTick_IRQn 0 */
  HAL_IncTick();
 8004148:	f7fc ba16 	b.w	8000578 <HAL_IncTick>

0800414c <EXTI0_IRQHandler>:
void EXTI0_IRQHandler(void)
{
  /* USER CODE BEGIN EXTI0_IRQn 0 */

  /* USER CODE END EXTI0_IRQn 0 */
  HAL_GPIO_EXTI_IRQHandler(GPIO_PIN_0);
 800414c:	2001      	movs	r0, #1
 800414e:	f7fc bfd5 	b.w	80010fc <HAL_GPIO_EXTI_IRQHandler>
	...

08004154 <DMA1_Stream0_IRQHandler>:
void DMA1_Stream0_IRQHandler(void)
{
  /* USER CODE BEGIN DMA1_Stream0_IRQn 0 */

  /* USER CODE END DMA1_Stream0_IRQn 0 */
  HAL_DMA_IRQHandler(&hdma_uart5_rx);
 8004154:	4801      	ldr	r0, [pc, #4]	; (800415c <DMA1_Stream0_IRQHandler+0x8>)
 8004156:	f7fc bc35 	b.w	80009c4 <HAL_DMA_IRQHandler>
 800415a:	bf00      	nop
 800415c:	20000854 	.word	0x20000854

08004160 <DMA1_Stream1_IRQHandler>:
void DMA1_Stream1_IRQHandler(void)
{
  /* USER CODE BEGIN DMA1_Stream1_IRQn 0 */

  /* USER CODE END DMA1_Stream1_IRQn 0 */
  HAL_DMA_IRQHandler(&hdma_usart3_rx);
 8004160:	4801      	ldr	r0, [pc, #4]	; (8004168 <DMA1_Stream1_IRQHandler+0x8>)
 8004162:	f7fc bc2f 	b.w	80009c4 <HAL_DMA_IRQHandler>
 8004166:	bf00      	nop
 8004168:	200001a8 	.word	0x200001a8

0800416c <DMA1_Stream2_IRQHandler>:
void DMA1_Stream2_IRQHandler(void)
{
  /* USER CODE BEGIN DMA1_Stream2_IRQn 0 */

  /* USER CODE END DMA1_Stream2_IRQn 0 */
  HAL_DMA_IRQHandler(&hdma_uart4_rx);
 800416c:	4801      	ldr	r0, [pc, #4]	; (8004174 <DMA1_Stream2_IRQHandler+0x8>)
 800416e:	f7fc bc29 	b.w	80009c4 <HAL_DMA_IRQHandler>
 8004172:	bf00      	nop
 8004174:	20000080 	.word	0x20000080

08004178 <DMA1_Stream5_IRQHandler>:
void DMA1_Stream5_IRQHandler(void)
{
  /* USER CODE BEGIN DMA1_Stream5_IRQn 0 */

  /* USER CODE END DMA1_Stream5_IRQn 0 */
  HAL_DMA_IRQHandler(&hdma_usart2_rx);
 8004178:	4801      	ldr	r0, [pc, #4]	; (8004180 <DMA1_Stream5_IRQHandler+0x8>)
 800417a:	f7fc bc23 	b.w	80009c4 <HAL_DMA_IRQHandler>
 800417e:	bf00      	nop
 8004180:	200000e0 	.word	0x200000e0

08004184 <DMA2_Stream1_IRQHandler>:
void DMA2_Stream1_IRQHandler(void)
{
  /* USER CODE BEGIN DMA2_Stream1_IRQn 0 */

  /* USER CODE END DMA2_Stream1_IRQn 0 */
  HAL_DMA_IRQHandler(&hdma_usart6_rx);
 8004184:	4801      	ldr	r0, [pc, #4]	; (800418c <DMA2_Stream1_IRQHandler+0x8>)
 8004186:	f7fc bc1d 	b.w	80009c4 <HAL_DMA_IRQHandler>
 800418a:	bf00      	nop
 800418c:	20000140 	.word	0x20000140

08004190 <SystemInit>:
  */
void SystemInit(void)
{
  /* FPU settings ------------------------------------------------------------*/
  #if (__FPU_PRESENT == 1) && (__FPU_USED == 1)
    SCB->CPACR |= ((3UL << 10*2)|(3UL << 11*2));  /* set CP10 and CP11 Full Access */
 8004190:	490f      	ldr	r1, [pc, #60]	; (80041d0 <SystemInit+0x40>)
 8004192:	f8d1 3088 	ldr.w	r3, [r1, #136]	; 0x88
 8004196:	f443 0370 	orr.w	r3, r3, #15728640	; 0xf00000
 800419a:	f8c1 3088 	str.w	r3, [r1, #136]	; 0x88
  #endif
  /* Reset the RCC clock configuration to the default reset state ------------*/
  /* Set HSION bit */
  RCC->CR |= (uint32_t)0x00000001;
 800419e:	4b0d      	ldr	r3, [pc, #52]	; (80041d4 <SystemInit+0x44>)
 80041a0:	681a      	ldr	r2, [r3, #0]

  /* Reset CFGR register */
  RCC->CFGR = 0x00000000;
 80041a2:	2000      	movs	r0, #0
  RCC->CR |= (uint32_t)0x00000001;
 80041a4:	f042 0201 	orr.w	r2, r2, #1
 80041a8:	601a      	str	r2, [r3, #0]
  RCC->CFGR = 0x00000000;
 80041aa:	6098      	str	r0, [r3, #8]

  /* Reset HSEON, CSSON and PLLON bits */
  RCC->CR &= (uint32_t)0xFEF6FFFF;
 80041ac:	681a      	ldr	r2, [r3, #0]
 80041ae:	f022 7284 	bic.w	r2, r2, #17301504	; 0x1080000
 80041b2:	f422 3280 	bic.w	r2, r2, #65536	; 0x10000
 80041b6:	601a      	str	r2, [r3, #0]

  /* Reset PLLCFGR register */
  RCC->PLLCFGR = 0x24003010;
 80041b8:	4a07      	ldr	r2, [pc, #28]	; (80041d8 <SystemInit+0x48>)
 80041ba:	605a      	str	r2, [r3, #4]

  /* Reset HSEBYP bit */
  RCC->CR &= (uint32_t)0xFFFBFFFF;
 80041bc:	681a      	ldr	r2, [r3, #0]
 80041be:	f422 2280 	bic.w	r2, r2, #262144	; 0x40000
 80041c2:	601a      	str	r2, [r3, #0]

  /* Disable all interrupts */
  RCC->CIR = 0x00000000;
 80041c4:	60d8      	str	r0, [r3, #12]

  /* Configure the Vector Table location add offset address ------------------*/
#ifdef VECT_TAB_SRAM
  SCB->VTOR = SRAM_BASE | VECT_TAB_OFFSET; /* Vector Table Relocation in Internal SRAM */
#else
  SCB->VTOR = FLASH_BASE | VECT_TAB_OFFSET; /* Vector Table Relocation in Internal FLASH */
 80041c6:	f04f 6300 	mov.w	r3, #134217728	; 0x8000000
 80041ca:	608b      	str	r3, [r1, #8]
 80041cc:	4770      	bx	lr
 80041ce:	bf00      	nop
 80041d0:	e000ed00 	.word	0xe000ed00
 80041d4:	40023800 	.word	0x40023800
 80041d8:	24003010 	.word	0x24003010

080041dc <Reset_Handler>:

    .section  .text.Reset_Handler
  .weak  Reset_Handler
  .type  Reset_Handler, %function
Reset_Handler: 
  ldr   sp, =_estack       /* set stack pointer */
 80041dc:	f8df d034 	ldr.w	sp, [pc, #52]	; 8004214 <LoopFillZerobss+0x14>
 
/* Copy the data segment initializers from flash to SRAM */  
  movs  r1, #0
 80041e0:	2100      	movs	r1, #0
  b  LoopCopyDataInit
 80041e2:	e003      	b.n	80041ec <LoopCopyDataInit>

080041e4 <CopyDataInit>:

CopyDataInit:
  ldr  r3, =_sidata
 80041e4:	4b0c      	ldr	r3, [pc, #48]	; (8004218 <LoopFillZerobss+0x18>)
  ldr  r3, [r3, r1]
 80041e6:	585b      	ldr	r3, [r3, r1]
  str  r3, [r0, r1]
 80041e8:	5043      	str	r3, [r0, r1]
  adds  r1, r1, #4
 80041ea:	3104      	adds	r1, #4

080041ec <LoopCopyDataInit>:
    
LoopCopyDataInit:
  ldr  r0, =_sdata
 80041ec:	480b      	ldr	r0, [pc, #44]	; (800421c <LoopFillZerobss+0x1c>)
  ldr  r3, =_edata
 80041ee:	4b0c      	ldr	r3, [pc, #48]	; (8004220 <LoopFillZerobss+0x20>)
  adds  r2, r0, r1
 80041f0:	1842      	adds	r2, r0, r1
  cmp  r2, r3
 80041f2:	429a      	cmp	r2, r3
  bcc  CopyDataInit
 80041f4:	d3f6      	bcc.n	80041e4 <CopyDataInit>
  ldr  r2, =_sbss
 80041f6:	4a0b      	ldr	r2, [pc, #44]	; (8004224 <LoopFillZerobss+0x24>)
  b  LoopFillZerobss
 80041f8:	e002      	b.n	8004200 <LoopFillZerobss>

080041fa <FillZerobss>:
/* Zero fill the bss segment. */  
FillZerobss:
  movs  r3, #0
 80041fa:	2300      	movs	r3, #0
  str  r3, [r2], #4
 80041fc:	f842 3b04 	str.w	r3, [r2], #4

08004200 <LoopFillZerobss>:
    
LoopFillZerobss:
  ldr  r3, = _ebss
 8004200:	4b09      	ldr	r3, [pc, #36]	; (8004228 <LoopFillZerobss+0x28>)
  cmp  r2, r3
 8004202:	429a      	cmp	r2, r3
  bcc  FillZerobss
 8004204:	d3f9      	bcc.n	80041fa <FillZerobss>

/* Call the clock system intitialization function.*/
  bl  SystemInit   
 8004206:	f7ff ffc3 	bl	8004190 <SystemInit>
/* Call static constructors */
    bl __libc_init_array
 800420a:	f000 f811 	bl	8004230 <__libc_init_array>
/* Call the application's entry point.*/
  bl  main
 800420e:	f7ff f9f1 	bl	80035f4 <main>
  bx  lr    
 8004212:	4770      	bx	lr
  ldr   sp, =_estack       /* set stack pointer */
 8004214:	20030000 	.word	0x20030000
  ldr  r3, =_sidata
 8004218:	080042d0 	.word	0x080042d0
  ldr  r0, =_sdata
 800421c:	20000000 	.word	0x20000000
  ldr  r3, =_edata
 8004220:	2000000c 	.word	0x2000000c
  ldr  r2, =_sbss
 8004224:	2000000c 	.word	0x2000000c
  ldr  r3, = _ebss
 8004228:	20000914 	.word	0x20000914

0800422c <ADC_IRQHandler>:
 * @retval None       
*/
    .section  .text.Default_Handler,"ax",%progbits
Default_Handler:
Infinite_Loop:
  b  Infinite_Loop
 800422c:	e7fe      	b.n	800422c <ADC_IRQHandler>
	...

08004230 <__libc_init_array>:
 8004230:	b570      	push	{r4, r5, r6, lr}
 8004232:	4e0d      	ldr	r6, [pc, #52]	; (8004268 <__libc_init_array+0x38>)
 8004234:	4c0d      	ldr	r4, [pc, #52]	; (800426c <__libc_init_array+0x3c>)
 8004236:	1ba4      	subs	r4, r4, r6
 8004238:	10a4      	asrs	r4, r4, #2
 800423a:	2500      	movs	r5, #0
 800423c:	42a5      	cmp	r5, r4
 800423e:	d109      	bne.n	8004254 <__libc_init_array+0x24>
 8004240:	4e0b      	ldr	r6, [pc, #44]	; (8004270 <__libc_init_array+0x40>)
 8004242:	4c0c      	ldr	r4, [pc, #48]	; (8004274 <__libc_init_array+0x44>)
 8004244:	f000 f820 	bl	8004288 <_init>
 8004248:	1ba4      	subs	r4, r4, r6
 800424a:	10a4      	asrs	r4, r4, #2
 800424c:	2500      	movs	r5, #0
 800424e:	42a5      	cmp	r5, r4
 8004250:	d105      	bne.n	800425e <__libc_init_array+0x2e>
 8004252:	bd70      	pop	{r4, r5, r6, pc}
 8004254:	f856 3025 	ldr.w	r3, [r6, r5, lsl #2]
 8004258:	4798      	blx	r3
 800425a:	3501      	adds	r5, #1
 800425c:	e7ee      	b.n	800423c <__libc_init_array+0xc>
 800425e:	f856 3025 	ldr.w	r3, [r6, r5, lsl #2]
 8004262:	4798      	blx	r3
 8004264:	3501      	adds	r5, #1
 8004266:	e7f2      	b.n	800424e <__libc_init_array+0x1e>
 8004268:	080042c8 	.word	0x080042c8
 800426c:	080042c8 	.word	0x080042c8
 8004270:	080042c8 	.word	0x080042c8
 8004274:	080042cc 	.word	0x080042cc

08004278 <memset>:
 8004278:	4402      	add	r2, r0
 800427a:	4603      	mov	r3, r0
 800427c:	4293      	cmp	r3, r2
 800427e:	d100      	bne.n	8004282 <memset+0xa>
 8004280:	4770      	bx	lr
 8004282:	f803 1b01 	strb.w	r1, [r3], #1
 8004286:	e7f9      	b.n	800427c <memset+0x4>

08004288 <_init>:
 8004288:	b5f8      	push	{r3, r4, r5, r6, r7, lr}
 800428a:	bf00      	nop
 800428c:	bcf8      	pop	{r3, r4, r5, r6, r7}
 800428e:	bc08      	pop	{r3}
 8004290:	469e      	mov	lr, r3
 8004292:	4770      	bx	lr

08004294 <_fini>:
 8004294:	b5f8      	push	{r3, r4, r5, r6, r7, lr}
 8004296:	bf00      	nop
 8004298:	bcf8      	pop	{r3, r4, r5, r6, r7}
 800429a:	bc08      	pop	{r3}
 800429c:	469e      	mov	lr, r3
 800429e:	4770      	bx	lr
